TN:
SF:/usr/include/c++/11/bits/alloc_traits.h
FN:562,_ZNSt16allocator_traitsISaIcEE37select_on_container_copy_constructionERKS0_
FNDA:0,_ZNSt16allocator_traitsISaIcEE37select_on_container_copy_constructionERKS0_
DA:562,0
DA:563,0
end_of_record
SF:/usr/include/c++/11/ext/type_traits.h
FN:152,_ZN9__gnu_cxx17__is_null_pointerIcEEbPT_
FNDA:0,_ZN9__gnu_cxx17__is_null_pointerIcEEbPT_
FN:152,_ZN9__gnu_cxx17__is_null_pointerIKcEEbPT_
FNDA:0,_ZN9__gnu_cxx17__is_null_pointerIKcEEbPT_
DA:152,0
DA:153,0
DA:152,0
DA:153,0
end_of_record
SF:/usr/include/c++/11/tuple
FN:124,_ZNSt10_Head_baseILm1ESt14default_deleteINSt7__cxx1118basic_stringstreamIcSt11char_traitsIcESaIcEEEELb1EE7_M_headERS8_
FNDA:0,_ZNSt10_Head_baseILm1ESt14default_deleteINSt7__cxx1118basic_stringstreamIcSt11char_traitsIcESaIcEEEELb1EE7_M_headERS8_
FN:233,_ZNSt10_Head_baseILm0EPNSt7__cxx1118basic_stringstreamIcSt11char_traitsIcESaIcEEELb0EE7_M_headERS7_
FNDA:0,_ZNSt10_Head_baseILm0EPNSt7__cxx1118basic_stringstreamIcSt11char_traitsIcESaIcEEELb0EE7_M_headERS7_
FN:236,_ZNSt10_Head_baseILm0EPNSt7__cxx1118basic_stringstreamIcSt11char_traitsIcESaIcEEELb0EE7_M_headERKS7_
FNDA:0,_ZNSt10_Head_baseILm0EPNSt7__cxx1118basic_stringstreamIcSt11char_traitsIcESaIcEEELb0EE7_M_headERKS7_
FN:268,_ZNSt11_Tuple_implILm0EJPNSt7__cxx1118basic_stringstreamIcSt11char_traitsIcESaIcEEESt14default_deleteIS5_EEE7_M_headERS9_
FNDA:0,_ZNSt11_Tuple_implILm0EJPNSt7__cxx1118basic_stringstreamIcSt11char_traitsIcESaIcEEESt14default_deleteIS5_EEE7_M_headERS9_
FN:271,_ZNSt11_Tuple_implILm0EJPNSt7__cxx1118basic_stringstreamIcSt11char_traitsIcESaIcEEESt14default_deleteIS5_EEE7_M_headERKS9_
FNDA:0,_ZNSt11_Tuple_implILm0EJPNSt7__cxx1118basic_stringstreamIcSt11char_traitsIcESaIcEEESt14default_deleteIS5_EEE7_M_headERKS9_
FN:424,_ZNSt11_Tuple_implILm1EJSt14default_deleteINSt7__cxx1118basic_stringstreamIcSt11char_traitsIcESaIcEEEEEE7_M_headERS8_
FNDA:0,_ZNSt11_Tuple_implILm1EJSt14default_deleteINSt7__cxx1118basic_stringstreamIcSt11char_traitsIcESaIcEEEEEE7_M_headERS8_
FN:1377,_ZSt12__get_helperILm1ESt14default_deleteINSt7__cxx1118basic_stringstreamIcSt11char_traitsIcESaIcEEEEJEERT0_RSt11_Tuple_implIXT_EJS8_DpT1_EE
FNDA:0,_ZSt12__get_helperILm1ESt14default_deleteINSt7__cxx1118basic_stringstreamIcSt11char_traitsIcESaIcEEEEJEERT0_RSt11_Tuple_implIXT_EJS8_DpT1_EE
FN:1377,_ZSt12__get_helperILm0EPNSt7__cxx1118basic_stringstreamIcSt11char_traitsIcESaIcEEEJSt14default_deleteIS5_EEERT0_RSt11_Tuple_implIXT_EJS9_DpT1_EE
FNDA:0,_ZSt12__get_helperILm0EPNSt7__cxx1118basic_stringstreamIcSt11char_traitsIcESaIcEEEJSt14default_deleteIS5_EEERT0_RSt11_Tuple_implIXT_EJS9_DpT1_EE
FN:1382,_ZSt12__get_helperILm0EPNSt7__cxx1118basic_stringstreamIcSt11char_traitsIcESaIcEEEJSt14default_deleteIS5_EEERKT0_RKSt11_Tuple_implIXT_EJS9_DpT1_EE
FNDA:0,_ZSt12__get_helperILm0EPNSt7__cxx1118basic_stringstreamIcSt11char_traitsIcESaIcEEEJSt14default_deleteIS5_EEERKT0_RKSt11_Tuple_implIXT_EJS9_DpT1_EE
FN:1393,_ZSt3getILm1EJPNSt7__cxx1118basic_stringstreamIcSt11char_traitsIcESaIcEEESt14default_deleteIS5_EEERNSt13tuple_elementIXT_ESt5tupleIJDpT0_EEE4typeERSD_
FNDA:0,_ZSt3getILm1EJPNSt7__cxx1118basic_stringstreamIcSt11char_traitsIcESaIcEEESt14default_deleteIS5_EEERNSt13tuple_elementIXT_ESt5tupleIJDpT0_EEE4typeERSD_
FN:1393,_ZSt3getILm0EJPNSt7__cxx1118basic_stringstreamIcSt11char_traitsIcESaIcEEESt14default_deleteIS5_EEERNSt13tuple_elementIXT_ESt5tupleIJDpT0_EEE4typeERSD_
FNDA:0,_ZSt3getILm0EJPNSt7__cxx1118basic_stringstreamIcSt11char_traitsIcESaIcEEESt14default_deleteIS5_EEERNSt13tuple_elementIXT_ESt5tupleIJDpT0_EEE4typeERSD_
FN:1399,_ZSt3getILm0EJPNSt7__cxx1118basic_stringstreamIcSt11char_traitsIcESaIcEEESt14default_deleteIS5_EEERKNSt13tuple_elementIXT_ESt5tupleIJDpT0_EEE4typeERKSD_
FNDA:0,_ZSt3getILm0EJPNSt7__cxx1118basic_stringstreamIcSt11char_traitsIcESaIcEEESt14default_deleteIS5_EEERKNSt13tuple_elementIXT_ESt5tupleIJDpT0_EEE4typeERKSD_
DA:124,0
DA:233,0
DA:236,0
DA:268,0
DA:271,0
DA:424,0
DA:1377,0
DA:1378,0
DA:1377,0
DA:1378,0
DA:1382,0
DA:1383,0
DA:1393,0
DA:1394,0
DA:1393,0
DA:1394,0
DA:1399,0
DA:1400,0
end_of_record
SF:/usr/include/c++/11/bits/stl_iterator_base_funcs.h
FN:98,_ZSt10__distanceIPcENSt15iterator_traitsIT_E15difference_typeES2_S2_St26random_access_iterator_tag
FNDA:0,_ZSt10__distanceIPcENSt15iterator_traitsIT_E15difference_typeES2_S2_St26random_access_iterator_tag
FN:98,_ZSt10__distanceIPKcENSt15iterator_traitsIT_E15difference_typeES3_S3_St26random_access_iterator_tag
FNDA:0,_ZSt10__distanceIPKcENSt15iterator_traitsIT_E15difference_typeES3_S3_St26random_access_iterator_tag
FN:138,_ZSt8distanceIPcENSt15iterator_traitsIT_E15difference_typeES2_S2_
FNDA:0,_ZSt8distanceIPcENSt15iterator_traitsIT_E15difference_typeES2_S2_
FN:138,_ZSt8distanceIPKcENSt15iterator_traitsIT_E15difference_typeES3_S3_
FNDA:0,_ZSt8distanceIPKcENSt15iterator_traitsIT_E15difference_typeES3_S3_
FN:174,_ZSt9__advanceIN9__gnu_cxx17__normal_iteratorIPcNSt7__cxx1112basic_stringIcSt11char_traitsIcESaIcEEEEElEvRT_T0_St26random_access_iterator_tag
FNDA:3,_ZSt9__advanceIN9__gnu_cxx17__normal_iteratorIPcNSt7__cxx1112basic_stringIcSt11char_traitsIcESaIcEEEEElEvRT_T0_St26random_access_iterator_tag
FN:202,_ZSt7advanceIN9__gnu_cxx17__normal_iteratorIPcNSt7__cxx1112basic_stringIcSt11char_traitsIcESaIcEEEEElEvRT_T0_
FNDA:3,_ZSt7advanceIN9__gnu_cxx17__normal_iteratorIPcNSt7__cxx1112basic_stringIcSt11char_traitsIcESaIcEEEEElEvRT_T0_
FN:224,_ZSt4prevIN9__gnu_cxx17__normal_iteratorIPcNSt7__cxx1112basic_stringIcSt11char_traitsIcESaIcEEEEEET_SA_NSt15iterator_traitsISA_E15difference_typeE
FNDA:3,_ZSt4prevIN9__gnu_cxx17__normal_iteratorIPcNSt7__cxx1112basic_stringIcSt11char_traitsIcESaIcEEEEEET_SA_NSt15iterator_traitsISA_E15difference_typeE
DA:98,0
DA:104,0
DA:98,0
DA:104,0
DA:138,0
DA:141,0
DA:142,0
DA:138,0
DA:141,0
DA:142,0
DA:174,3
DA:185,3
DA:186,3
DA:202,3
DA:205,3
DA:206,3
DA:207,3
DA:224,3
DA:230,3
DA:231,3
end_of_record
SF:/usr/include/c++/11/type_traits
FN:70,_ZNKSt17integral_constantIbLb1EEcvbEv
FNDA:0,_ZNKSt17integral_constantIbLb1EEcvbEv
DA:70,0
end_of_record
SF:/usr/include/c++/11/ext/new_allocator.h
FN:79,_ZN9__gnu_cxx13new_allocatorIcEC2Ev
FNDA:0,_ZN9__gnu_cxx13new_allocatorIcEC2Ev
FN:82,_ZN9__gnu_cxx13new_allocatorIcEC2ERKS1_
FNDA:0,_ZN9__gnu_cxx13new_allocatorIcEC2ERKS1_
FN:89,_ZN9__gnu_cxx13new_allocatorIcED2Ev
FNDA:0,_ZN9__gnu_cxx13new_allocatorIcED2Ev
DA:79,0
DA:82,0
DA:89,0
end_of_record
SF:/home/jlaustill/repo/sea-dash/.pio/libdeps/latest_stable/googletest/googletest/include/gtest/internal/gtest-filepath.h
FN:72,_ZN7testing8internal8FilePathC2Ev
FNDA:0,_ZN7testing8internal8FilePathC2Ev
FN:73,_ZN7testing8internal8FilePathC2ERKS1_
FNDA:0,_ZN7testing8internal8FilePathC2ERKS1_
FN:76,_ZN7testing8internal8FilePathC2ENSt7__cxx1112basic_stringIcSt11char_traitsIcESaIcEEE
FNDA:0,_ZN7testing8internal8FilePathC2ENSt7__cxx1112basic_stringIcSt11char_traitsIcESaIcEEE
FN:89,_ZN7testing8internal8FilePath3SetERKS1_
FNDA:0,_ZN7testing8internal8FilePath3SetERKS1_
FN:91,_ZNK7testing8internal8FilePath6stringB5cxx11Ev
FNDA:0,_ZNK7testing8internal8FilePath6stringB5cxx11Ev
FN:92,_ZNK7testing8internal8FilePath5c_strEv
FNDA:0,_ZNK7testing8internal8FilePath5c_strEv
FN:124,_ZNK7testing8internal8FilePath7IsEmptyEv
FNDA:0,_ZNK7testing8internal8FilePath7IsEmptyEv
DA:72,0
DA:73,0
DA:76,0
DA:77,0
DA:78,0
DA:89,0
DA:91,0
DA:92,0
DA:124,0
end_of_record
SF:/usr/include/c++/11/bits/unique_ptr.h
FN:79,_ZNKSt14default_deleteINSt7__cxx1118basic_stringstreamIcSt11char_traitsIcESaIcEEEEclEPS5_
FNDA:0,_ZNKSt14default_deleteINSt7__cxx1118basic_stringstreamIcSt11char_traitsIcESaIcEEEEclEPS5_
FN:172,_ZNSt15__uniq_ptr_implINSt7__cxx1118basic_stringstreamIcSt11char_traitsIcESaIcEEESt14default_deleteIS5_EE6_M_ptrEv
FNDA:0,_ZNSt15__uniq_ptr_implINSt7__cxx1118basic_stringstreamIcSt11char_traitsIcESaIcEEESt14default_deleteIS5_EE6_M_ptrEv
FN:173,_ZNKSt15__uniq_ptr_implINSt7__cxx1118basic_stringstreamIcSt11char_traitsIcESaIcEEESt14default_deleteIS5_EE6_M_ptrEv
FNDA:0,_ZNKSt15__uniq_ptr_implINSt7__cxx1118basic_stringstreamIcSt11char_traitsIcESaIcEEESt14default_deleteIS5_EE6_M_ptrEv
FN:174,_ZNSt15__uniq_ptr_implINSt7__cxx1118basic_stringstreamIcSt11char_traitsIcESaIcEEESt14default_deleteIS5_EE10_M_deleterEv
FNDA:0,_ZNSt15__uniq_ptr_implINSt7__cxx1118basic_stringstreamIcSt11char_traitsIcESaIcEEESt14default_deleteIS5_EE10_M_deleterEv
FN:355,_ZNSt10unique_ptrINSt7__cxx1118basic_stringstreamIcSt11char_traitsIcESaIcEEESt14default_deleteIS5_EED2Ev
FNDA:0,_ZNSt10unique_ptrINSt7__cxx1118basic_stringstreamIcSt11char_traitsIcESaIcEEESt14default_deleteIS5_EED2Ev
FN:405,_ZNKSt10unique_ptrINSt7__cxx1118basic_stringstreamIcSt11char_traitsIcESaIcEEESt14default_deleteIS5_EEdeEv
FNDA:0,_ZNKSt10unique_ptrINSt7__cxx1118basic_stringstreamIcSt11char_traitsIcESaIcEEESt14default_deleteIS5_EEdeEv
FN:421,_ZNKSt10unique_ptrINSt7__cxx1118basic_stringstreamIcSt11char_traitsIcESaIcEEESt14default_deleteIS5_EE3getEv
FNDA:0,_ZNKSt10unique_ptrINSt7__cxx1118basic_stringstreamIcSt11char_traitsIcESaIcEEESt14default_deleteIS5_EE3getEv
FN:426,_ZNSt10unique_ptrINSt7__cxx1118basic_stringstreamIcSt11char_traitsIcESaIcEEESt14default_deleteIS5_EE11get_deleterEv
FNDA:0,_ZNSt10unique_ptrINSt7__cxx1118basic_stringstreamIcSt11char_traitsIcESaIcEEESt14default_deleteIS5_EE11get_deleterEv
DA:79,0
DA:85,0
DA:86,0
DA:172,0
DA:173,0
DA:174,0
DA:355,0
DA:359,0
DA:360,0
DA:361,0
DA:362,0
DA:363,0
DA:405,0
DA:407,0
DA:408,0
DA:421,0
DA:422,0
DA:426,0
DA:427,0
end_of_record
SF:/usr/include/c++/11/ext/alloc_traits.h
FN:97,_ZN9__gnu_cxx14__alloc_traitsISaIcEcE17_S_select_on_copyERKS1_
FNDA:0,_ZN9__gnu_cxx14__alloc_traitsISaIcEcE17_S_select_on_copyERKS1_
DA:97,0
DA:98,0
end_of_record
SF:/usr/include/c++/11/iostream
end_of_record
SF:/usr/include/c++/11/bits/basic_string.tcc
FN:206,_ZNSt7__cxx1112basic_stringIcSt11char_traitsIcESaIcEE12_M_constructIPcEEvT_S7_St20forward_iterator_tag
FNDA:0,_ZNSt7__cxx1112basic_stringIcSt11char_traitsIcESaIcEE12_M_constructIPcEEvT_S7_St20forward_iterator_tag
FN:206,_ZNSt7__cxx1112basic_stringIcSt11char_traitsIcESaIcEE12_M_constructIPKcEEvT_S8_St20forward_iterator_tag
FNDA:0,_ZNSt7__cxx1112basic_stringIcSt11char_traitsIcESaIcEE12_M_constructIPKcEEvT_S8_St20forward_iterator_tag
DA:206,0
DA:211,0
DA:212,0
DA:215,0
DA:217,0
DA:219,0
DA:220,0
DA:225,0
DA:226,0
DA:228,0
DA:229,0
DA:232,0
DA:233,0
DA:206,0
DA:211,0
DA:212,0
DA:215,0
DA:217,0
DA:219,0
DA:220,0
DA:225,0
DA:226,0
DA:228,0
DA:229,0
DA:232,0
DA:233,0
end_of_record
SF:/usr/include/c++/11/bits/allocator.h
FN:204,_ZSteqRKSaIcES1_
FNDA:0,_ZSteqRKSaIcES1_
DA:204,0
DA:205,0
end_of_record
SF:/home/jlaustill/repo/sea-dash/.pio/libdeps/latest_stable/googletest/googletest/include/gtest/internal/gtest-port.h
FN:2069,_ZN7testing8internal5posix4StatEPKcP4stat
FNDA:0,_ZN7testing8internal5posix4StatEPKcP4stat
FN:2076,_ZN7testing8internal5posix5IsDirERK4stat
FNDA:0,_ZN7testing8internal5posix5IsDirERK4stat
DA:2069,0
DA:2076,0
end_of_record
SF:/usr/include/c++/11/bits/move.h
FN:104,_ZSt4moveIRPNSt7__cxx1118basic_stringstreamIcSt11char_traitsIcESaIcEEEEONSt16remove_referenceIT_E4typeEOS9_
FNDA:0,_ZSt4moveIRPNSt7__cxx1118basic_stringstreamIcSt11char_traitsIcESaIcEEEEONSt16remove_referenceIT_E4typeEOS9_
FN:104,_ZSt4moveIRSaIcEEONSt16remove_referenceIT_E4typeEOS3_
FNDA:0,_ZSt4moveIRSaIcEEONSt16remove_referenceIT_E4typeEOS3_
FN:104,_ZSt4moveIRNSt7__cxx1112basic_stringIcSt11char_traitsIcESaIcEEEEONSt16remove_referenceIT_E4typeEOS8_
FNDA:0,_ZSt4moveIRNSt7__cxx1112basic_stringIcSt11char_traitsIcESaIcEEEEONSt16remove_referenceIT_E4typeEOS8_
DA:104,0
DA:105,0
DA:104,0
DA:105,0
DA:104,0
DA:105,0
end_of_record
SF:/usr/include/c++/11/bits/stl_iterator.h
FN:1027,_ZN9__gnu_cxx17__normal_iteratorIPcNSt7__cxx1112basic_stringIcSt11char_traitsIcESaIcEEEEC2ERKS1_
FNDA:29,_ZN9__gnu_cxx17__normal_iteratorIPcNSt7__cxx1112basic_stringIcSt11char_traitsIcESaIcEEEEC2ERKS1_
FN:1033,_ZN9__gnu_cxx17__normal_iteratorIPKcNSt7__cxx1112basic_stringIcSt11char_traitsIcESaIcEEEEC2IPcEERKNS0_IT_NS_11__enable_ifIXsrSt10__are_sameISC_SB_E7__valueES8_E6__typeEEE
FNDA:2,_ZN9__gnu_cxx17__normal_iteratorIPKcNSt7__cxx1112basic_stringIcSt11char_traitsIcESaIcEEEEC2IPcEERKNS0_IT_NS_11__enable_ifIXsrSt10__are_sameISC_SB_E7__valueES8_E6__typeEEE
FN:1042,_ZNK9__gnu_cxx17__normal_iteratorIPKcNSt7__cxx1112basic_stringIcSt11char_traitsIcESaIcEEEEdeEv
FNDA:0,_ZNK9__gnu_cxx17__normal_iteratorIPKcNSt7__cxx1112basic_stringIcSt11char_traitsIcESaIcEEEEdeEv
FN:1042,_ZNK9__gnu_cxx17__normal_iteratorIPcNSt7__cxx1112basic_stringIcSt11char_traitsIcESaIcEEEEdeEv
FNDA:32,_ZNK9__gnu_cxx17__normal_iteratorIPcNSt7__cxx1112basic_stringIcSt11char_traitsIcESaIcEEEEdeEv
FN:1052,_ZN9__gnu_cxx17__normal_iteratorIPKcNSt7__cxx1112basic_stringIcSt11char_traitsIcESaIcEEEEppEv
FNDA:0,_ZN9__gnu_cxx17__normal_iteratorIPKcNSt7__cxx1112basic_stringIcSt11char_traitsIcESaIcEEEEppEv
FN:1060,_ZN9__gnu_cxx17__normal_iteratorIPcNSt7__cxx1112basic_stringIcSt11char_traitsIcESaIcEEEEppEi
FNDA:29,_ZN9__gnu_cxx17__normal_iteratorIPcNSt7__cxx1112basic_stringIcSt11char_traitsIcESaIcEEEEppEi
FN:1085,_ZN9__gnu_cxx17__normal_iteratorIPcNSt7__cxx1112basic_stringIcSt11char_traitsIcESaIcEEEEpLEl
FNDA:3,_ZN9__gnu_cxx17__normal_iteratorIPcNSt7__cxx1112basic_stringIcSt11char_traitsIcESaIcEEEEpLEl
FN:1105,_ZNK9__gnu_cxx17__normal_iteratorIPKcNSt7__cxx1112basic_stringIcSt11char_traitsIcESaIcEEEE4baseEv
FNDA:0,_ZNK9__gnu_cxx17__normal_iteratorIPKcNSt7__cxx1112basic_stringIcSt11char_traitsIcESaIcEEEE4baseEv
FN:1105,_ZNK9__gnu_cxx17__normal_iteratorIPcNSt7__cxx1112basic_stringIcSt11char_traitsIcESaIcEEEE4baseEv
FNDA:40,_ZNK9__gnu_cxx17__normal_iteratorIPcNSt7__cxx1112basic_stringIcSt11char_traitsIcESaIcEEEE4baseEv
FN:1163,_ZN9__gnu_cxxeqIPcNSt7__cxx1112basic_stringIcSt11char_traitsIcESaIcEEEEEbRKNS_17__normal_iteratorIT_T0_EESD_
FNDA:4,_ZN9__gnu_cxxeqIPcNSt7__cxx1112basic_stringIcSt11char_traitsIcESaIcEEEEEbRKNS_17__normal_iteratorIT_T0_EESD_
FN:1171,_ZN9__gnu_cxxneIPKcPcNSt7__cxx1112basic_stringIcSt11char_traitsIcESaIcEEEEEbRKNS_17__normal_iteratorIT_T1_EERKNSA_IT0_SC_EE
FNDA:30,_ZN9__gnu_cxxneIPKcPcNSt7__cxx1112basic_stringIcSt11char_traitsIcESaIcEEEEEbRKNS_17__normal_iteratorIT_T1_EERKNSA_IT0_SC_EE
FN:1179,_ZN9__gnu_cxxneIPKcNSt7__cxx1112basic_stringIcSt11char_traitsIcESaIcEEEEEbRKNS_17__normal_iteratorIT_T0_EESE_
FNDA:0,_ZN9__gnu_cxxneIPKcNSt7__cxx1112basic_stringIcSt11char_traitsIcESaIcEEEEEbRKNS_17__normal_iteratorIT_T0_EESE_
FN:1268,_ZN9__gnu_cxxmiIPKcNSt7__cxx1112basic_stringIcSt11char_traitsIcESaIcEEEEENS_17__normal_iteratorIT_T0_E15difference_typeERKSC_SF_
FNDA:0,_ZN9__gnu_cxxmiIPKcNSt7__cxx1112basic_stringIcSt11char_traitsIcESaIcEEEEENS_17__normal_iteratorIT_T0_E15difference_typeERKSC_SF_
DA:1027,29
DA:1028,29
DA:1033,2
DA:1037,2
DA:1042,0
DA:1043,0
DA:1042,32
DA:1043,32
DA:1052,0
DA:1054,0
DA:1055,0
DA:1060,29
DA:1061,29
DA:1085,3
DA:1086,3
DA:1105,0
DA:1106,0
DA:1105,40
DA:1106,40
DA:1163,4
DA:1166,4
DA:1171,30
DA:1174,30
DA:1179,0
DA:1182,0
DA:1268,0
DA:1271,0
end_of_record
SF:/usr/include/c++/11/bits/char_traits.h
FN:393,_ZNSt11char_traitsIcE6lengthEPKc
FNDA:0,_ZNSt11char_traitsIcE6lengthEPKc
FN:429,_ZNSt11char_traitsIcE4copyEPcPKcm
FNDA:0,_ZNSt11char_traitsIcE4copyEPcPKcm
DA:393,0
DA:399,0
DA:429,0
DA:431,0
DA:432,0
DA:437,0
end_of_record
SF:/usr/include/c++/11/bits/stl_iterator_base_types.h
FN:238,_ZSt19__iterator_categoryIPcENSt15iterator_traitsIT_E17iterator_categoryERKS2_
FNDA:0,_ZSt19__iterator_categoryIPcENSt15iterator_traitsIT_E17iterator_categoryERKS2_
FN:238,_ZSt19__iterator_categoryIPKcENSt15iterator_traitsIT_E17iterator_categoryERKS3_
FNDA:0,_ZSt19__iterator_categoryIPKcENSt15iterator_traitsIT_E17iterator_categoryERKS3_
FN:238,_ZSt19__iterator_categoryIN9__gnu_cxx17__normal_iteratorIPcNSt7__cxx1112basic_stringIcSt11char_traitsIcESaIcEEEEEENSt15iterator_traitsIT_E17iterator_categoryERKSB_
FNDA:3,_ZSt19__iterator_categoryIN9__gnu_cxx17__normal_iteratorIPcNSt7__cxx1112basic_stringIcSt11char_traitsIcESaIcEEEEEENSt15iterator_traitsIT_E17iterator_categoryERKSB_
DA:238,0
DA:239,0
DA:238,0
DA:239,0
DA:238,3
DA:239,3
end_of_record
SF:/home/jlaustill/repo/sea-dash/.pio/libdeps/latest_stable/googletest/googletest/src/gtest-filepath.cc
FN:92,_ZN7testing8internalL15IsPathSeparatorEc
FNDA:29,_ZN7testing8internalL15IsPathSeparatorEc
FN:101,_ZN7testing8internal8FilePath13GetCurrentDirEv
FNDA:1,_ZN7testing8internal8FilePath13GetCurrentDirEv
FN:130,_ZNK7testing8internal8FilePath15RemoveExtensionEPKc
FNDA:0,_ZNK7testing8internal8FilePath15RemoveExtensionEPKc
FN:142,_ZNK7testing8internal8FilePath21FindLastPathSeparatorEv
FNDA:0,_ZNK7testing8internal8FilePath21FindLastPathSeparatorEv
FN:155,_ZNK7testing8internal8FilePath19CalculateRootLengthEv
FNDA:0,_ZNK7testing8internal8FilePath19CalculateRootLengthEv
FN:199,_ZNK7testing8internal8FilePath19RemoveDirectoryNameEv
FNDA:0,_ZNK7testing8internal8FilePath19RemoveDirectoryNameEv
FN:210,_ZNK7testing8internal8FilePath14RemoveFileNameEv
FNDA:0,_ZNK7testing8internal8FilePath14RemoveFileNameEv
FN:227,_ZN7testing8internal8FilePath12MakeFileNameERKS1_S3_iPKc
FNDA:0,_ZN7testing8internal8FilePath12MakeFileNameERKS1_S3_iPKc
FN:242,_ZN7testing8internal8FilePath11ConcatPathsERKS1_S3_
FNDA:0,_ZN7testing8internal8FilePath11ConcatPathsERKS1_S3_
FN:251,_ZNK7testing8internal8FilePath21FileOrDirectoryExistsEv
FNDA:0,_ZNK7testing8internal8FilePath21FileOrDirectoryExistsEv
FN:265,_ZNK7testing8internal8FilePath15DirectoryExistsEv
FNDA:0,_ZNK7testing8internal8FilePath15DirectoryExistsEv
FN:295,_ZNK7testing8internal8FilePath15IsRootDirectoryEv
FNDA:0,_ZNK7testing8internal8FilePath15IsRootDirectoryEv
FN:302,_ZNK7testing8internal8FilePath14IsAbsolutePathEv
FNDA:0,_ZNK7testing8internal8FilePath14IsAbsolutePathEv
FN:312,_ZN7testing8internal8FilePath22GenerateUniqueFileNameERKS1_S3_PKc
FNDA:0,_ZN7testing8internal8FilePath22GenerateUniqueFileNameERKS1_S3_PKc
FN:326,_ZNK7testing8internal8FilePath11IsDirectoryEv
FNDA:0,_ZNK7testing8internal8FilePath11IsDirectoryEv
FN:334,_ZNK7testing8internal8FilePath28CreateDirectoriesRecursivelyEv
FNDA:0,_ZNK7testing8internal8FilePath28CreateDirectoriesRecursivelyEv
FN:351,_ZNK7testing8internal8FilePath12CreateFolderEv
FNDA:0,_ZNK7testing8internal8FilePath12CreateFolderEv
FN:377,_ZNK7testing8internal8FilePath27RemoveTrailingPathSeparatorEv
FNDA:0,_ZNK7testing8internal8FilePath27RemoveTrailingPathSeparatorEv
FN:386,_ZN7testing8internal8FilePath9NormalizeEv
FNDA:1,_ZN7testing8internal8FilePath9NormalizeEv
DA:92,29
DA:96,29
DA:101,1
DA:114,1
DA:115,1
DA:122,1
DA:130,0
DA:131,0
DA:132,0
DA:134,0
DA:136,0
DA:137,0
DA:142,0
DA:143,0
DA:152,0
DA:155,0
DA:156,0
DA:157,0
DA:158,0
DA:186,0
DA:187,0
DA:190,0
DA:199,0
DA:200,0
DA:201,0
DA:210,0
DA:211,0
DA:212,0
DA:213,0
DA:214,0
DA:216,0
DA:218,0
DA:219,0
DA:227,0
DA:230,0
DA:231,0
DA:232,0
DA:235,0
DA:237,0
DA:238,0
DA:242,0
DA:244,0
DA:245,0
DA:246,0
DA:247,0
DA:251,0
DA:258,0
DA:259,0
DA:265,0
DA:266,0
DA:273,0
DA:285,0
DA:286,0
DA:287,0
DA:290,0
DA:295,0
DA:296,0
DA:297,0
DA:298,0
DA:302,0
DA:312,0
DA:315,0
DA:316,0
DA:318,0
DA:319,0
DA:320,0
DA:321,0
DA:326,0
DA:327,0
DA:328,0
DA:334,0
DA:335,0
DA:336,0
DA:339,0
DA:340,0
DA:343,0
DA:344,0
DA:345,0
DA:351,0
DA:365,0
DA:368,0
DA:369,0
DA:371,0
DA:377,0
DA:378,0
DA:379,0
DA:386,1
DA:387,1
DA:389,1
DA:398,30
DA:399,29
DA:400,29
DA:401,25
DA:402,4
DA:403,4
DA:405,29
DA:408,1
DA:409,1
end_of_record
SF:/usr/include/c++/11/bits/basic_string.h
FN:251,_ZNSt7__cxx1112basic_stringIcSt11char_traitsIcESaIcEE16_M_construct_auxIPcEEvT_S7_St12__false_type
FNDA:0,_ZNSt7__cxx1112basic_stringIcSt11char_traitsIcESaIcEE16_M_construct_auxIPcEEvT_S7_St12__false_type
FN:251,_ZNSt7__cxx1112basic_stringIcSt11char_traitsIcESaIcEE16_M_construct_auxIPKcEEvT_S8_St12__false_type
FNDA:0,_ZNSt7__cxx1112basic_stringIcSt11char_traitsIcESaIcEE16_M_construct_auxIPKcEEvT_S8_St12__false_type
FN:271,_ZNSt7__cxx1112basic_stringIcSt11char_traitsIcESaIcEE12_M_constructIPcEEvT_S7_
FNDA:0,_ZNSt7__cxx1112basic_stringIcSt11char_traitsIcESaIcEE12_M_constructIPcEEvT_S7_
FN:271,_ZNSt7__cxx1112basic_stringIcSt11char_traitsIcESaIcEE12_M_constructIPKcEEvT_S8_
FNDA:0,_ZNSt7__cxx1112basic_stringIcSt11char_traitsIcESaIcEE12_M_constructIPKcEEvT_S8_
FN:6132,_ZStplIcSt11char_traitsIcESaIcEENSt7__cxx1112basic_stringIT_T0_T1_EERKS8_PKS5_
FNDA:0,_ZStplIcSt11char_traitsIcESaIcEENSt7__cxx1112basic_stringIT_T0_T1_EERKS8_PKS5_
FN:6148,_ZStplIcSt11char_traitsIcESaIcEENSt7__cxx1112basic_stringIT_T0_T1_EERKS8_S5_
FNDA:0,_ZStplIcSt11char_traitsIcESaIcEENSt7__cxx1112basic_stringIT_T0_T1_EERKS8_S5_
FN:6160,_ZStplIcSt11char_traitsIcESaIcEENSt7__cxx1112basic_stringIT_T0_T1_EEOS8_RKS8_
FNDA:0,_ZStplIcSt11char_traitsIcESaIcEENSt7__cxx1112basic_stringIT_T0_T1_EEOS8_RKS8_
FN:6172,_ZStplIcSt11char_traitsIcESaIcEENSt7__cxx1112basic_stringIT_T0_T1_EEOS8_S9_
FNDA:0,_ZStplIcSt11char_traitsIcESaIcEENSt7__cxx1112basic_stringIT_T0_T1_EEOS8_S9_
FN:6206,_ZStplIcSt11char_traitsIcESaIcEENSt7__cxx1112basic_stringIT_T0_T1_EEOS8_PKS5_
FNDA:0,_ZStplIcSt11char_traitsIcESaIcEENSt7__cxx1112basic_stringIT_T0_T1_EEOS8_PKS5_
DA:251,0
DA:255,0
DA:256,0
DA:251,0
DA:255,0
DA:256,0
DA:271,0
DA:274,0
DA:275,0
DA:271,0
DA:274,0
DA:275,0
DA:6132,0
DA:6135,0
DA:6136,0
DA:6137,0
DA:6138,0
DA:6148,0
DA:6152,0
DA:6153,0
DA:6154,0
DA:6155,0
DA:6160,0
DA:6162,0
DA:6172,0
DA:6177,0
DA:6178,0
DA:6179,0
DA:6180,0
DA:6181,0
DA:6182,0
DA:6185,0
DA:6186,0
DA:6187,0
DA:6189,0
DA:6206,0
DA:6208,0
end_of_record
SF:/home/jlaustill/repo/sea-dash/.pio/libdeps/latest_stable/googletest/googletest/include/gtest/gtest-message.h
FN:132,_ZN7testing7MessagelsIiEERS0_RKT_
FNDA:0,_ZN7testing7MessagelsIiEERS0_RKT_
FN:242,_ZN7testing8internal18StreamableToStringIiEENSt7__cxx1112basic_stringIcSt11char_traitsIcESaIcEEERKT_
FNDA:0,_ZN7testing8internal18StreamableToStringIiEENSt7__cxx1112basic_stringIcSt11char_traitsIcESaIcEEERKT_
DA:132,0
DA:148,0
DA:149,0
DA:242,0
DA:243,0
end_of_record
TN:
SF:/usr/include/c++/11/initializer_list
FN:71,_ZNKSt16initializer_listIPKcE4sizeEv
FNDA:0,_ZNKSt16initializer_listIPKcE4sizeEv
FN:75,_ZNKSt16initializer_listIPKcE5beginEv
FNDA:0,_ZNKSt16initializer_listIPKcE5beginEv
FN:79,_ZNKSt16initializer_listIPKcE3endEv
FNDA:0,_ZNKSt16initializer_listIPKcE3endEv
DA:71,0
DA:75,0
DA:79,0
end_of_record
SF:/home/jlaustill/repo/sea-dash/.pio/libdeps/latest_stable/googletest/googletest/include/gtest/internal/gtest-internal.h
FN:293,_ZN7testing8internal13FloatingPointIfEC2ERKf
FNDA:0,_ZN7testing8internal13FloatingPointIfEC2ERKf
FN:293,_ZN7testing8internal13FloatingPointIdEC2ERKd
FNDA:0,_ZN7testing8internal13FloatingPointIdEC2ERKd
FN:315,_ZNK7testing8internal13FloatingPointIdE13exponent_bitsEv
FNDA:0,_ZNK7testing8internal13FloatingPointIdE13exponent_bitsEv
FN:315,_ZNK7testing8internal13FloatingPointIfE13exponent_bitsEv
FNDA:0,_ZNK7testing8internal13FloatingPointIfE13exponent_bitsEv
FN:318,_ZNK7testing8internal13FloatingPointIdE13fraction_bitsEv
FNDA:0,_ZNK7testing8internal13FloatingPointIdE13fraction_bitsEv
FN:318,_ZNK7testing8internal13FloatingPointIfE13fraction_bitsEv
FNDA:0,_ZNK7testing8internal13FloatingPointIfE13fraction_bitsEv
FN:324,_ZNK7testing8internal13FloatingPointIdE6is_nanEv
FNDA:0,_ZNK7testing8internal13FloatingPointIdE6is_nanEv
FN:324,_ZNK7testing8internal13FloatingPointIfE6is_nanEv
FNDA:0,_ZNK7testing8internal13FloatingPointIfE6is_nanEv
FN:336,_ZNK7testing8internal13FloatingPointIfE12AlmostEqualsERKS2_
FNDA:0,_ZNK7testing8internal13FloatingPointIfE12AlmostEqualsERKS2_
FN:336,_ZNK7testing8internal13FloatingPointIdE12AlmostEqualsERKS2_
FNDA:0,_ZNK7testing8internal13FloatingPointIdE12AlmostEqualsERKS2_
FN:367,_ZN7testing8internal13FloatingPointIdE24SignAndMagnitudeToBiasedERKm
FNDA:0,_ZN7testing8internal13FloatingPointIdE24SignAndMagnitudeToBiasedERKm
FN:367,_ZN7testing8internal13FloatingPointIfE24SignAndMagnitudeToBiasedERKj
FNDA:0,_ZN7testing8internal13FloatingPointIfE24SignAndMagnitudeToBiasedERKj
FN:379,_ZN7testing8internal13FloatingPointIfE38DistanceBetweenSignAndMagnitudeNumbersERKjS4_
FNDA:0,_ZN7testing8internal13FloatingPointIfE38DistanceBetweenSignAndMagnitudeNumbersERKjS4_
FN:379,_ZN7testing8internal13FloatingPointIdE38DistanceBetweenSignAndMagnitudeNumbersERKmS4_
FNDA:0,_ZN7testing8internal13FloatingPointIdE38DistanceBetweenSignAndMagnitudeNumbersERKmS4_
FN:418,_ZN7testing8internal9GetTypeIdINS0_12_GLOBAL__N_111FailureTestEEEPKvv
FNDA:0,_ZN7testing8internal9GetTypeIdINS0_12_GLOBAL__N_111FailureTestEEEPKvv
FN:418,_ZN7testing8internal9GetTypeIdINS_4TestEEEPKvv
FNDA:21,_ZN7testing8internal9GetTypeIdINS_4TestEEEPKvv
FN:437,_ZN7testing8internal15TestFactoryBaseD0Ev
FNDA:0,_ZN7testing8internal15TestFactoryBaseD0Ev
FN:437,_ZN7testing8internal15TestFactoryBaseD2Ev
FNDA:0,_ZN7testing8internal15TestFactoryBaseD2Ev
FN:444,_ZN7testing8internal15TestFactoryBaseC2Ev
FNDA:0,_ZN7testing8internal15TestFactoryBaseC2Ev
FN:477,_ZN7testing8internal12CodeLocationC2ENSt7__cxx1112basic_stringIcSt11char_traitsIcESaIcEEEi
FNDA:0,_ZN7testing8internal12CodeLocationC2ENSt7__cxx1112basic_stringIcSt11char_traitsIcESaIcEEEi
FN:490,_ZN7testing8internal19GetNotDefaultOrNullEPFvvES2_
FNDA:0,_ZN7testing8internal19GetNotDefaultOrNullEPFvvES2_
FN:505,_ZN7testing8internal16SuiteApiResolverINS0_12_GLOBAL__N_111FailureTestEE19GetSetUpCaseOrSuiteEPKci
FNDA:0,_ZN7testing8internal16SuiteApiResolverINS0_12_GLOBAL__N_111FailureTestEE19GetSetUpCaseOrSuiteEPKci
FN:526,_ZN7testing8internal16SuiteApiResolverINS0_12_GLOBAL__N_111FailureTestEE22GetTearDownCaseOrSuiteEPKci
FNDA:0,_ZN7testing8internal16SuiteApiResolverINS0_12_GLOBAL__N_111FailureTestEE22GetTearDownCaseOrSuiteEPKci
FN:853,_ZN7testing8internal6RandomC2Ej
FNDA:1,_ZN7testing8internal6RandomC2Ej
FN:855,_ZN7testing8internal6Random6ReseedEj
FNDA:0,_ZN7testing8internal6Random6ReseedEj
DA:293,0
DA:293,0
DA:315,0
DA:315,0
DA:318,0
DA:318,0
DA:324,0
DA:327,0
DA:324,0
DA:327,0
DA:336,0
DA:339,0
DA:341,0
DA:342,0
DA:336,0
DA:339,0
DA:341,0
DA:342,0
DA:367,0
DA:368,0
DA:370,0
DA:373,0
DA:367,0
DA:368,0
DA:370,0
DA:373,0
DA:379,0
DA:381,0
DA:382,0
DA:383,0
DA:379,0
DA:381,0
DA:382,0
DA:383,0
DA:418,0
DA:423,0
DA:418,21
DA:423,21
DA:437,0
DA:437,0
DA:444,0
DA:477,0
DA:478,0
DA:490,0
DA:492,0
DA:505,0
DA:509,0
DA:511,0
DA:513,0
DA:516,0
DA:518,0
DA:526,0
DA:530,0
DA:532,0
DA:534,0
DA:537,0
DA:539,0
DA:853,1
DA:855,0
end_of_record
SF:/usr/include/c++/11/ext/new_allocator.h
FN:79,_ZN9__gnu_cxx13new_allocatorIPN7testing17TestEventListenerEEC2Ev
FNDA:1,_ZN9__gnu_cxx13new_allocatorIPN7testing17TestEventListenerEEC2Ev
FN:79,_ZN9__gnu_cxx13new_allocatorINSt7__cxx1112basic_stringIcSt11char_traitsIcESaIcEEEEC2Ev
FNDA:0,_ZN9__gnu_cxx13new_allocatorINSt7__cxx1112basic_stringIcSt11char_traitsIcESaIcEEEEC2Ev
FN:79,_ZN9__gnu_cxx13new_allocatorINSt8__detail10_Hash_nodeINSt7__cxx1112basic_stringIcSt11char_traitsIcESaIcEEELb1EEEEC2Ev
FNDA:6,_ZN9__gnu_cxx13new_allocatorINSt8__detail10_Hash_nodeINSt7__cxx1112basic_stringIcSt11char_traitsIcESaIcEEELb1EEEEC2Ev
FN:79,_ZN9__gnu_cxx13new_allocatorImEC2Ev
FNDA:0,_ZN9__gnu_cxx13new_allocatorImEC2Ev
FN:79,_ZN9__gnu_cxx13new_allocatorISt13_Rb_tree_nodeISt4pairIKNSt7__cxx1112basic_stringIcSt11char_traitsIcESaIcEEEmEEEC2Ev
FNDA:0,_ZN9__gnu_cxx13new_allocatorISt13_Rb_tree_nodeISt4pairIKNSt7__cxx1112basic_stringIcSt11char_traitsIcESaIcEEEmEEEC2Ev
FN:79,_ZN9__gnu_cxx13new_allocatorISt10_List_nodeISt4pairIcPKcEEEC2Ev
FNDA:0,_ZN9__gnu_cxx13new_allocatorISt10_List_nodeISt4pairIcPKcEEEC2Ev
FN:79,_ZN9__gnu_cxx13new_allocatorIN7testing14TestPartResultEEC2Ev
FNDA:23,_ZN9__gnu_cxx13new_allocatorIN7testing14TestPartResultEEC2Ev
FN:79,_ZN9__gnu_cxx13new_allocatorIN7testing12TestPropertyEEC2Ev
FNDA:23,_ZN9__gnu_cxx13new_allocatorIN7testing12TestPropertyEEC2Ev
FN:79,_ZN9__gnu_cxx13new_allocatorIPN7testing8TestInfoEEC2Ev
FNDA:2,_ZN9__gnu_cxx13new_allocatorIPN7testing8TestInfoEEC2Ev
FN:79,_ZN9__gnu_cxx13new_allocatorIiEC2Ev
FNDA:3,_ZN9__gnu_cxx13new_allocatorIiEC2Ev
FN:79,_ZN9__gnu_cxx13new_allocatorIN7testing8internal9TraceInfoEEC2Ev
FNDA:0,_ZN9__gnu_cxx13new_allocatorIN7testing8internal9TraceInfoEEC2Ev
FN:79,_ZN9__gnu_cxx13new_allocatorIPN7testing11EnvironmentEEC2Ev
FNDA:1,_ZN9__gnu_cxx13new_allocatorIPN7testing11EnvironmentEEC2Ev
FN:79,_ZN9__gnu_cxx13new_allocatorIPN7testing9TestSuiteEEC2Ev
FNDA:1,_ZN9__gnu_cxx13new_allocatorIPN7testing9TestSuiteEEC2Ev
FN:79,_ZN9__gnu_cxx13new_allocatorINSt8__detail10_Hash_nodeISt4pairIKNSt7__cxx1112basic_stringIcSt11char_traitsIcESaIcEEEPN7testing9TestSuiteEELb1EEEEC2Ev
FNDA:1,_ZN9__gnu_cxx13new_allocatorINSt8__detail10_Hash_nodeISt4pairIKNSt7__cxx1112basic_stringIcSt11char_traitsIcESaIcEEEPN7testing9TestSuiteEELb1EEEEC2Ev
FN:79,_ZN9__gnu_cxx13new_allocatorIPN7testing8internal30ParameterizedTestSuiteInfoBaseEEC2Ev
FNDA:1,_ZN9__gnu_cxx13new_allocatorIPN7testing8internal30ParameterizedTestSuiteInfoBaseEEC2Ev
FN:79,_ZN9__gnu_cxx13new_allocatorINSt8__detail10_Hash_nodeISt4pairIKNSt7__cxx1112basic_stringIcSt11char_traitsIcESaIcEEEmELb1EEEEC2Ev
FNDA:1,_ZN9__gnu_cxx13new_allocatorINSt8__detail10_Hash_nodeISt4pairIKNSt7__cxx1112basic_stringIcSt11char_traitsIcESaIcEEEmELb1EEEEC2Ev
FN:79,_ZN9__gnu_cxx13new_allocatorISt13_Rb_tree_nodeISt4pairIKNSt7__cxx1112basic_stringIcSt11char_traitsIcESaIcEEEN7testing8internal34TypeParameterizedTestSuiteRegistry30TypeParameterizedTestSuiteInfoEEEEC2Ev
FNDA:1,_ZN9__gnu_cxx13new_allocatorISt13_Rb_tree_nodeISt4pairIKNSt7__cxx1112basic_stringIcSt11char_traitsIcESaIcEEEN7testing8internal34TypeParameterizedTestSuiteRegistry30TypeParameterizedTestSuiteInfoEEEEC2Ev
FN:79,_ZN9__gnu_cxx13new_allocatorISt13_Rb_tree_nodeINSt7__cxx1112basic_stringIcSt11char_traitsIcESaIcEEEEEC2Ev
FNDA:1,_ZN9__gnu_cxx13new_allocatorISt13_Rb_tree_nodeINSt7__cxx1112basic_stringIcSt11char_traitsIcESaIcEEEEEC2Ev
FN:79,_ZN9__gnu_cxx13new_allocatorIPNSt8__detail15_Hash_node_baseEEC2Ev
FNDA:2,_ZN9__gnu_cxx13new_allocatorIPNSt8__detail15_Hash_node_baseEEC2Ev
FN:79,_ZN9__gnu_cxx13new_allocatorIN7testing8internal13edit_distance8EditTypeEEC2Ev
FNDA:0,_ZN9__gnu_cxx13new_allocatorIN7testing8internal13edit_distance8EditTypeEEC2Ev
FN:79,_ZN9__gnu_cxx13new_allocatorIcEC2Ev
FNDA:0,_ZN9__gnu_cxx13new_allocatorIcEC2Ev
FN:79,_ZN9__gnu_cxx13new_allocatorISt6vectorIN7testing8internal13edit_distance8EditTypeESaIS5_EEEC2Ev
FNDA:0,_ZN9__gnu_cxx13new_allocatorISt6vectorIN7testing8internal13edit_distance8EditTypeESaIS5_EEEC2Ev
FN:79,_ZN9__gnu_cxx13new_allocatorIwEC2Ev
FNDA:0,_ZN9__gnu_cxx13new_allocatorIwEC2Ev
FN:79,_ZN9__gnu_cxx13new_allocatorISt6vectorIdSaIdEEEC2Ev
FNDA:0,_ZN9__gnu_cxx13new_allocatorISt6vectorIdSaIdEEEC2Ev
FN:79,_ZN9__gnu_cxx13new_allocatorIdEC2Ev
FNDA:0,_ZN9__gnu_cxx13new_allocatorIdEC2Ev
FN:82,_ZN9__gnu_cxx13new_allocatorISt6vectorIN7testing8internal13edit_distance8EditTypeESaIS5_EEEC2ERKS8_
FNDA:0,_ZN9__gnu_cxx13new_allocatorISt6vectorIN7testing8internal13edit_distance8EditTypeESaIS5_EEEC2ERKS8_
FN:82,_ZN9__gnu_cxx13new_allocatorISt6vectorIdSaIdEEEC2ERKS4_
FNDA:0,_ZN9__gnu_cxx13new_allocatorISt6vectorIdSaIdEEEC2ERKS4_
FN:82,_ZN9__gnu_cxx13new_allocatorIdEC2ERKS1_
FNDA:0,_ZN9__gnu_cxx13new_allocatorIdEC2ERKS1_
FN:82,_ZN9__gnu_cxx13new_allocatorIcEC2ERKS1_
FNDA:0,_ZN9__gnu_cxx13new_allocatorIcEC2ERKS1_
FN:82,_ZN9__gnu_cxx13new_allocatorIN7testing8internal13edit_distance8EditTypeEEC2ERKS5_
FNDA:0,_ZN9__gnu_cxx13new_allocatorIN7testing8internal13edit_distance8EditTypeEEC2ERKS5_
FN:82,_ZN9__gnu_cxx13new_allocatorINSt7__cxx1112basic_stringIcSt11char_traitsIcESaIcEEEEC2ERKS7_
FNDA:0,_ZN9__gnu_cxx13new_allocatorINSt7__cxx1112basic_stringIcSt11char_traitsIcESaIcEEEEC2ERKS7_
FN:89,_ZN9__gnu_cxx13new_allocatorINSt7__cxx1112basic_stringIcSt11char_traitsIcESaIcEEEED2Ev
FNDA:0,_ZN9__gnu_cxx13new_allocatorINSt7__cxx1112basic_stringIcSt11char_traitsIcESaIcEEEED2Ev
FN:89,_ZN9__gnu_cxx13new_allocatorISt6vectorIdSaIdEEED2Ev
FNDA:0,_ZN9__gnu_cxx13new_allocatorISt6vectorIdSaIdEEED2Ev
FN:89,_ZN9__gnu_cxx13new_allocatorIdED2Ev
FNDA:0,_ZN9__gnu_cxx13new_allocatorIdED2Ev
FN:89,_ZN9__gnu_cxx13new_allocatorINSt8__detail10_Hash_nodeINSt7__cxx1112basic_stringIcSt11char_traitsIcESaIcEEELb1EEEED2Ev
FNDA:6,_ZN9__gnu_cxx13new_allocatorINSt8__detail10_Hash_nodeINSt7__cxx1112basic_stringIcSt11char_traitsIcESaIcEEELb1EEEED2Ev
FN:89,_ZN9__gnu_cxx13new_allocatorIN7testing8internal9TraceInfoEED2Ev
FNDA:0,_ZN9__gnu_cxx13new_allocatorIN7testing8internal9TraceInfoEED2Ev
FN:89,_ZN9__gnu_cxx13new_allocatorIwED2Ev
FNDA:0,_ZN9__gnu_cxx13new_allocatorIwED2Ev
FN:89,_ZN9__gnu_cxx13new_allocatorIcED2Ev
FNDA:0,_ZN9__gnu_cxx13new_allocatorIcED2Ev
FN:89,_ZN9__gnu_cxx13new_allocatorIN7testing14TestPartResultEED2Ev
FNDA:23,_ZN9__gnu_cxx13new_allocatorIN7testing14TestPartResultEED2Ev
FN:89,_ZN9__gnu_cxx13new_allocatorIN7testing8internal13edit_distance8EditTypeEED2Ev
FNDA:0,_ZN9__gnu_cxx13new_allocatorIN7testing8internal13edit_distance8EditTypeEED2Ev
FN:89,_ZN9__gnu_cxx13new_allocatorISt6vectorIN7testing8internal13edit_distance8EditTypeESaIS5_EEED2Ev
FNDA:0,_ZN9__gnu_cxx13new_allocatorISt6vectorIN7testing8internal13edit_distance8EditTypeESaIS5_EEED2Ev
FN:89,_ZN9__gnu_cxx13new_allocatorImED2Ev
FNDA:0,_ZN9__gnu_cxx13new_allocatorImED2Ev
FN:89,_ZN9__gnu_cxx13new_allocatorISt13_Rb_tree_nodeISt4pairIKNSt7__cxx1112basic_stringIcSt11char_traitsIcESaIcEEEmEEED2Ev
FNDA:0,_ZN9__gnu_cxx13new_allocatorISt13_Rb_tree_nodeISt4pairIKNSt7__cxx1112basic_stringIcSt11char_traitsIcESaIcEEEmEEED2Ev
FN:89,_ZN9__gnu_cxx13new_allocatorISt10_List_nodeISt4pairIcPKcEEED2Ev
FNDA:0,_ZN9__gnu_cxx13new_allocatorISt10_List_nodeISt4pairIcPKcEEED2Ev
FN:89,_ZN9__gnu_cxx13new_allocatorISt13_Rb_tree_nodeINSt7__cxx1112basic_stringIcSt11char_traitsIcESaIcEEEEED2Ev
FNDA:1,_ZN9__gnu_cxx13new_allocatorISt13_Rb_tree_nodeINSt7__cxx1112basic_stringIcSt11char_traitsIcESaIcEEEEED2Ev
FN:89,_ZN9__gnu_cxx13new_allocatorISt13_Rb_tree_nodeISt4pairIKNSt7__cxx1112basic_stringIcSt11char_traitsIcESaIcEEEN7testing8internal34TypeParameterizedTestSuiteRegistry30TypeParameterizedTestSuiteInfoEEEED2Ev
FNDA:1,_ZN9__gnu_cxx13new_allocatorISt13_Rb_tree_nodeISt4pairIKNSt7__cxx1112basic_stringIcSt11char_traitsIcESaIcEEEN7testing8internal34TypeParameterizedTestSuiteRegistry30TypeParameterizedTestSuiteInfoEEEED2Ev
FN:89,_ZN9__gnu_cxx13new_allocatorINSt8__detail10_Hash_nodeISt4pairIKNSt7__cxx1112basic_stringIcSt11char_traitsIcESaIcEEEmELb1EEEED2Ev
FNDA:1,_ZN9__gnu_cxx13new_allocatorINSt8__detail10_Hash_nodeISt4pairIKNSt7__cxx1112basic_stringIcSt11char_traitsIcESaIcEEEmELb1EEEED2Ev
FN:89,_ZN9__gnu_cxx13new_allocatorIPN7testing8internal30ParameterizedTestSuiteInfoBaseEED2Ev
FNDA:1,_ZN9__gnu_cxx13new_allocatorIPN7testing8internal30ParameterizedTestSuiteInfoBaseEED2Ev
FN:89,_ZN9__gnu_cxx13new_allocatorINSt8__detail10_Hash_nodeISt4pairIKNSt7__cxx1112basic_stringIcSt11char_traitsIcESaIcEEEPN7testing9TestSuiteEELb1EEEED2Ev
FNDA:1,_ZN9__gnu_cxx13new_allocatorINSt8__detail10_Hash_nodeISt4pairIKNSt7__cxx1112basic_stringIcSt11char_traitsIcESaIcEEEPN7testing9TestSuiteEELb1EEEED2Ev
FN:89,_ZN9__gnu_cxx13new_allocatorIPN7testing9TestSuiteEED2Ev
FNDA:1,_ZN9__gnu_cxx13new_allocatorIPN7testing9TestSuiteEED2Ev
FN:89,_ZN9__gnu_cxx13new_allocatorIPN7testing11EnvironmentEED2Ev
FNDA:1,_ZN9__gnu_cxx13new_allocatorIPN7testing11EnvironmentEED2Ev
FN:89,_ZN9__gnu_cxx13new_allocatorIPN7testing17TestEventListenerEED2Ev
FNDA:1,_ZN9__gnu_cxx13new_allocatorIPN7testing17TestEventListenerEED2Ev
FN:89,_ZN9__gnu_cxx13new_allocatorIiED2Ev
FNDA:3,_ZN9__gnu_cxx13new_allocatorIiED2Ev
FN:89,_ZN9__gnu_cxx13new_allocatorIPN7testing8TestInfoEED2Ev
FNDA:2,_ZN9__gnu_cxx13new_allocatorIPN7testing8TestInfoEED2Ev
FN:89,_ZN9__gnu_cxx13new_allocatorIN7testing12TestPropertyEED2Ev
FNDA:23,_ZN9__gnu_cxx13new_allocatorIN7testing12TestPropertyEED2Ev
FN:89,_ZN9__gnu_cxx13new_allocatorIPNSt8__detail15_Hash_node_baseEED2Ev
FNDA:2,_ZN9__gnu_cxx13new_allocatorIPNSt8__detail15_Hash_node_baseEED2Ev
FN:103,_ZN9__gnu_cxx13new_allocatorISt6vectorIN7testing8internal13edit_distance8EditTypeESaIS5_EEE8allocateEmPKv
FNDA:0,_ZN9__gnu_cxx13new_allocatorISt6vectorIN7testing8internal13edit_distance8EditTypeESaIS5_EEE8allocateEmPKv
FN:103,_ZN9__gnu_cxx13new_allocatorINSt8__detail10_Hash_nodeISt4pairIKNSt7__cxx1112basic_stringIcSt11char_traitsIcESaIcEEEPN7testing9TestSuiteEELb1EEEE8allocateEmPKv
FNDA:2,_ZN9__gnu_cxx13new_allocatorINSt8__detail10_Hash_nodeISt4pairIKNSt7__cxx1112basic_stringIcSt11char_traitsIcESaIcEEEPN7testing9TestSuiteEELb1EEEE8allocateEmPKv
FN:103,_ZN9__gnu_cxx13new_allocatorIiE8allocateEmPKv
FNDA:11,_ZN9__gnu_cxx13new_allocatorIiE8allocateEmPKv
FN:103,_ZN9__gnu_cxx13new_allocatorISt10_List_nodeISt4pairIcPKcEEE8allocateEmPKv
FNDA:0,_ZN9__gnu_cxx13new_allocatorISt10_List_nodeISt4pairIcPKcEEE8allocateEmPKv
FN:103,_ZN9__gnu_cxx13new_allocatorIN7testing8internal13edit_distance8EditTypeEE8allocateEmPKv
FNDA:0,_ZN9__gnu_cxx13new_allocatorIN7testing8internal13edit_distance8EditTypeEE8allocateEmPKv
FN:103,_ZN9__gnu_cxx13new_allocatorISt13_Rb_tree_nodeISt4pairIKNSt7__cxx1112basic_stringIcSt11char_traitsIcESaIcEEEN7testing8internal34TypeParameterizedTestSuiteRegistry30TypeParameterizedTestSuiteInfoEEEE8allocateEmPKv
FNDA:0,_ZN9__gnu_cxx13new_allocatorISt13_Rb_tree_nodeISt4pairIKNSt7__cxx1112basic_stringIcSt11char_traitsIcESaIcEEEN7testing8internal34TypeParameterizedTestSuiteRegistry30TypeParameterizedTestSuiteInfoEEEE8allocateEmPKv
FN:103,_ZN9__gnu_cxx13new_allocatorImE8allocateEmPKv
FNDA:0,_ZN9__gnu_cxx13new_allocatorImE8allocateEmPKv
FN:103,_ZN9__gnu_cxx13new_allocatorISt13_Rb_tree_nodeINSt7__cxx1112basic_stringIcSt11char_traitsIcESaIcEEEEE8allocateEmPKv
FNDA:0,_ZN9__gnu_cxx13new_allocatorISt13_Rb_tree_nodeINSt7__cxx1112basic_stringIcSt11char_traitsIcESaIcEEEEE8allocateEmPKv
FN:103,_ZN9__gnu_cxx13new_allocatorINSt7__cxx1112basic_stringIcSt11char_traitsIcESaIcEEEE8allocateEmPKv
FNDA:0,_ZN9__gnu_cxx13new_allocatorINSt7__cxx1112basic_stringIcSt11char_traitsIcESaIcEEEE8allocateEmPKv
FN:103,_ZN9__gnu_cxx13new_allocatorIN7testing14TestPartResultEE8allocateEmPKv
FNDA:0,_ZN9__gnu_cxx13new_allocatorIN7testing14TestPartResultEE8allocateEmPKv
FN:103,_ZN9__gnu_cxx13new_allocatorIN7testing12TestPropertyEE8allocateEmPKv
FNDA:0,_ZN9__gnu_cxx13new_allocatorIN7testing12TestPropertyEE8allocateEmPKv
FN:103,_ZN9__gnu_cxx13new_allocatorIPN7testing8TestInfoEE8allocateEmPKv
FNDA:9,_ZN9__gnu_cxx13new_allocatorIPN7testing8TestInfoEE8allocateEmPKv
FN:103,_ZN9__gnu_cxx13new_allocatorISt13_Rb_tree_nodeISt4pairIKNSt7__cxx1112basic_stringIcSt11char_traitsIcESaIcEEEmEEE8allocateEmPKv
FNDA:0,_ZN9__gnu_cxx13new_allocatorISt13_Rb_tree_nodeISt4pairIKNSt7__cxx1112basic_stringIcSt11char_traitsIcESaIcEEEmEEE8allocateEmPKv
FN:103,_ZN9__gnu_cxx13new_allocatorIPN7testing17TestEventListenerEE8allocateEmPKv
FNDA:1,_ZN9__gnu_cxx13new_allocatorIPN7testing17TestEventListenerEE8allocateEmPKv
FN:103,_ZN9__gnu_cxx13new_allocatorIdE8allocateEmPKv
FNDA:0,_ZN9__gnu_cxx13new_allocatorIdE8allocateEmPKv
FN:103,_ZN9__gnu_cxx13new_allocatorIPN7testing11EnvironmentEE8allocateEmPKv
FNDA:0,_ZN9__gnu_cxx13new_allocatorIPN7testing11EnvironmentEE8allocateEmPKv
FN:103,_ZN9__gnu_cxx13new_allocatorIPNSt8__detail15_Hash_node_baseEE8allocateEmPKv
FNDA:1,_ZN9__gnu_cxx13new_allocatorIPNSt8__detail15_Hash_node_baseEE8allocateEmPKv
FN:103,_ZN9__gnu_cxx13new_allocatorIN7testing8internal9TraceInfoEE8allocateEmPKv
FNDA:0,_ZN9__gnu_cxx13new_allocatorIN7testing8internal9TraceInfoEE8allocateEmPKv
FN:103,_ZN9__gnu_cxx13new_allocatorISt6vectorIdSaIdEEE8allocateEmPKv
FNDA:0,_ZN9__gnu_cxx13new_allocatorISt6vectorIdSaIdEEE8allocateEmPKv
FN:103,_ZN9__gnu_cxx13new_allocatorINSt8__detail10_Hash_nodeINSt7__cxx1112basic_stringIcSt11char_traitsIcESaIcEEELb1EEEE8allocateEmPKv
FNDA:0,_ZN9__gnu_cxx13new_allocatorINSt8__detail10_Hash_nodeINSt7__cxx1112basic_stringIcSt11char_traitsIcESaIcEEELb1EEEE8allocateEmPKv
FN:103,_ZN9__gnu_cxx13new_allocatorIPN7testing9TestSuiteEE8allocateEmPKv
FNDA:2,_ZN9__gnu_cxx13new_allocatorIPN7testing9TestSuiteEE8allocateEmPKv
FN:132,_ZN9__gnu_cxx13new_allocatorIN7testing12TestPropertyEE10deallocateEPS2_m
FNDA:0,_ZN9__gnu_cxx13new_allocatorIN7testing12TestPropertyEE10deallocateEPS2_m
FN:132,_ZN9__gnu_cxx13new_allocatorIPN7testing11EnvironmentEE10deallocateEPS3_m
FNDA:0,_ZN9__gnu_cxx13new_allocatorIPN7testing11EnvironmentEE10deallocateEPS3_m
FN:132,_ZN9__gnu_cxx13new_allocatorIPNSt8__detail15_Hash_node_baseEE10deallocateEPS3_m
FNDA:1,_ZN9__gnu_cxx13new_allocatorIPNSt8__detail15_Hash_node_baseEE10deallocateEPS3_m
FN:132,_ZN9__gnu_cxx13new_allocatorINSt8__detail10_Hash_nodeINSt7__cxx1112basic_stringIcSt11char_traitsIcESaIcEEELb1EEEE10deallocateEPS9_m
FNDA:0,_ZN9__gnu_cxx13new_allocatorINSt8__detail10_Hash_nodeINSt7__cxx1112basic_stringIcSt11char_traitsIcESaIcEEELb1EEEE10deallocateEPS9_m
FN:132,_ZN9__gnu_cxx13new_allocatorIPN7testing8TestInfoEE10deallocateEPS3_m
FNDA:9,_ZN9__gnu_cxx13new_allocatorIPN7testing8TestInfoEE10deallocateEPS3_m
FN:132,_ZN9__gnu_cxx13new_allocatorIiE10deallocateEPim
FNDA:11,_ZN9__gnu_cxx13new_allocatorIiE10deallocateEPim
FN:132,_ZN9__gnu_cxx13new_allocatorIPN7testing17TestEventListenerEE10deallocateEPS3_m
FNDA:1,_ZN9__gnu_cxx13new_allocatorIPN7testing17TestEventListenerEE10deallocateEPS3_m
FN:132,_ZN9__gnu_cxx13new_allocatorISt13_Rb_tree_nodeISt4pairIKNSt7__cxx1112basic_stringIcSt11char_traitsIcESaIcEEEN7testing8internal34TypeParameterizedTestSuiteRegistry30TypeParameterizedTestSuiteInfoEEEE10deallocateEPSF_m
FNDA:0,_ZN9__gnu_cxx13new_allocatorISt13_Rb_tree_nodeISt4pairIKNSt7__cxx1112basic_stringIcSt11char_traitsIcESaIcEEEN7testing8internal34TypeParameterizedTestSuiteRegistry30TypeParameterizedTestSuiteInfoEEEE10deallocateEPSF_m
FN:132,_ZN9__gnu_cxx13new_allocatorIN7testing14TestPartResultEE10deallocateEPS2_m
FNDA:0,_ZN9__gnu_cxx13new_allocatorIN7testing14TestPartResultEE10deallocateEPS2_m
FN:132,_ZN9__gnu_cxx13new_allocatorINSt8__detail10_Hash_nodeISt4pairIKNSt7__cxx1112basic_stringIcSt11char_traitsIcESaIcEEEmELb1EEEE10deallocateEPSC_m
FNDA:0,_ZN9__gnu_cxx13new_allocatorINSt8__detail10_Hash_nodeISt4pairIKNSt7__cxx1112basic_stringIcSt11char_traitsIcESaIcEEEmELb1EEEE10deallocateEPSC_m
FN:132,_ZN9__gnu_cxx13new_allocatorISt13_Rb_tree_nodeINSt7__cxx1112basic_stringIcSt11char_traitsIcESaIcEEEEE10deallocateEPS8_m
FNDA:0,_ZN9__gnu_cxx13new_allocatorISt13_Rb_tree_nodeINSt7__cxx1112basic_stringIcSt11char_traitsIcESaIcEEEEE10deallocateEPS8_m
FN:132,_ZN9__gnu_cxx13new_allocatorImE10deallocateEPmm
FNDA:0,_ZN9__gnu_cxx13new_allocatorImE10deallocateEPmm
FN:132,_ZN9__gnu_cxx13new_allocatorIN7testing8internal13edit_distance8EditTypeEE10deallocateEPS4_m
FNDA:0,_ZN9__gnu_cxx13new_allocatorIN7testing8internal13edit_distance8EditTypeEE10deallocateEPS4_m
FN:132,_ZN9__gnu_cxx13new_allocatorISt13_Rb_tree_nodeISt4pairIKNSt7__cxx1112basic_stringIcSt11char_traitsIcESaIcEEEmEEE10deallocateEPSB_m
FNDA:0,_ZN9__gnu_cxx13new_allocatorISt13_Rb_tree_nodeISt4pairIKNSt7__cxx1112basic_stringIcSt11char_traitsIcESaIcEEEmEEE10deallocateEPSB_m
FN:132,_ZN9__gnu_cxx13new_allocatorINSt7__cxx1112basic_stringIcSt11char_traitsIcESaIcEEEE10deallocateEPS6_m
FNDA:0,_ZN9__gnu_cxx13new_allocatorINSt7__cxx1112basic_stringIcSt11char_traitsIcESaIcEEEE10deallocateEPS6_m
FN:132,_ZN9__gnu_cxx13new_allocatorIN7testing8internal9TraceInfoEE10deallocateEPS3_m
FNDA:0,_ZN9__gnu_cxx13new_allocatorIN7testing8internal9TraceInfoEE10deallocateEPS3_m
FN:132,_ZN9__gnu_cxx13new_allocatorIPN7testing8internal30ParameterizedTestSuiteInfoBaseEE10deallocateEPS4_m
FNDA:0,_ZN9__gnu_cxx13new_allocatorIPN7testing8internal30ParameterizedTestSuiteInfoBaseEE10deallocateEPS4_m
FN:132,_ZN9__gnu_cxx13new_allocatorISt10_List_nodeISt4pairIcPKcEEE10deallocateEPS6_m
FNDA:0,_ZN9__gnu_cxx13new_allocatorISt10_List_nodeISt4pairIcPKcEEE10deallocateEPS6_m
FN:132,_ZN9__gnu_cxx13new_allocatorINSt8__detail10_Hash_nodeISt4pairIKNSt7__cxx1112basic_stringIcSt11char_traitsIcESaIcEEEPN7testing9TestSuiteEELb1EEEE10deallocateEPSF_m
FNDA:2,_ZN9__gnu_cxx13new_allocatorINSt8__detail10_Hash_nodeISt4pairIKNSt7__cxx1112basic_stringIcSt11char_traitsIcESaIcEEEPN7testing9TestSuiteEELb1EEEE10deallocateEPSF_m
FN:132,_ZN9__gnu_cxx13new_allocatorIPN7testing9TestSuiteEE10deallocateEPS3_m
FNDA:2,_ZN9__gnu_cxx13new_allocatorIPN7testing9TestSuiteEE10deallocateEPS3_m
FN:132,_ZN9__gnu_cxx13new_allocatorISt6vectorIN7testing8internal13edit_distance8EditTypeESaIS5_EEE10deallocateEPS7_m
FNDA:0,_ZN9__gnu_cxx13new_allocatorISt6vectorIN7testing8internal13edit_distance8EditTypeESaIS5_EEE10deallocateEPS7_m
FN:132,_ZN9__gnu_cxx13new_allocatorIdE10deallocateEPdm
FNDA:0,_ZN9__gnu_cxx13new_allocatorIdE10deallocateEPdm
FN:132,_ZN9__gnu_cxx13new_allocatorISt6vectorIdSaIdEEE10deallocateEPS3_m
FNDA:0,_ZN9__gnu_cxx13new_allocatorISt6vectorIdSaIdEEE10deallocateEPS3_m
FN:154,_ZNK9__gnu_cxx13new_allocatorIPN7testing11EnvironmentEE8max_sizeEv
FNDA:0,_ZNK9__gnu_cxx13new_allocatorIPN7testing11EnvironmentEE8max_sizeEv
FN:154,_ZNK9__gnu_cxx13new_allocatorIiE8max_sizeEv
FNDA:22,_ZNK9__gnu_cxx13new_allocatorIiE8max_sizeEv
FN:154,_ZNK9__gnu_cxx13new_allocatorImE8max_sizeEv
FNDA:0,_ZNK9__gnu_cxx13new_allocatorImE8max_sizeEv
FN:154,_ZNK9__gnu_cxx13new_allocatorIPN7testing9TestSuiteEE8max_sizeEv
FNDA:4,_ZNK9__gnu_cxx13new_allocatorIPN7testing9TestSuiteEE8max_sizeEv
FN:154,_ZNK9__gnu_cxx13new_allocatorISt6vectorIN7testing8internal13edit_distance8EditTypeESaIS5_EEE8max_sizeEv
FNDA:0,_ZNK9__gnu_cxx13new_allocatorISt6vectorIN7testing8internal13edit_distance8EditTypeESaIS5_EEE8max_sizeEv
FN:154,_ZNK9__gnu_cxx13new_allocatorIN7testing8internal13edit_distance8EditTypeEE8max_sizeEv
FNDA:0,_ZNK9__gnu_cxx13new_allocatorIN7testing8internal13edit_distance8EditTypeEE8max_sizeEv
FN:154,_ZNK9__gnu_cxx13new_allocatorISt6vectorIdSaIdEEE8max_sizeEv
FNDA:0,_ZNK9__gnu_cxx13new_allocatorISt6vectorIdSaIdEEE8max_sizeEv
FN:154,_ZNK9__gnu_cxx13new_allocatorIdE8max_sizeEv
FNDA:0,_ZNK9__gnu_cxx13new_allocatorIdE8max_sizeEv
FN:154,_ZNK9__gnu_cxx13new_allocatorINSt7__cxx1112basic_stringIcSt11char_traitsIcESaIcEEEE8max_sizeEv
FNDA:0,_ZNK9__gnu_cxx13new_allocatorINSt7__cxx1112basic_stringIcSt11char_traitsIcESaIcEEEE8max_sizeEv
FN:154,_ZNK9__gnu_cxx13new_allocatorIN7testing14TestPartResultEE8max_sizeEv
FNDA:0,_ZNK9__gnu_cxx13new_allocatorIN7testing14TestPartResultEE8max_sizeEv
FN:154,_ZNK9__gnu_cxx13new_allocatorIN7testing8internal9TraceInfoEE8max_sizeEv
FNDA:0,_ZNK9__gnu_cxx13new_allocatorIN7testing8internal9TraceInfoEE8max_sizeEv
FN:154,_ZNK9__gnu_cxx13new_allocatorIN7testing12TestPropertyEE8max_sizeEv
FNDA:0,_ZNK9__gnu_cxx13new_allocatorIN7testing12TestPropertyEE8max_sizeEv
FN:154,_ZNK9__gnu_cxx13new_allocatorIPN7testing8TestInfoEE8max_sizeEv
FNDA:18,_ZNK9__gnu_cxx13new_allocatorIPN7testing8TestInfoEE8max_sizeEv
FN:154,_ZNK9__gnu_cxx13new_allocatorIPN7testing17TestEventListenerEE8max_sizeEv
FNDA:2,_ZNK9__gnu_cxx13new_allocatorIPN7testing17TestEventListenerEE8max_sizeEv
FN:160,_ZN9__gnu_cxx13new_allocatorIPN7testing17TestEventListenerEE9constructIS3_JRKS3_EEEvPT_DpOT0_
FNDA:1,_ZN9__gnu_cxx13new_allocatorIPN7testing17TestEventListenerEE9constructIS3_JRKS3_EEEvPT_DpOT0_
FN:160,_ZN9__gnu_cxx13new_allocatorINSt8__detail10_Hash_nodeINSt7__cxx1112basic_stringIcSt11char_traitsIcESaIcEEELb1EEEE9constructIS8_JS8_EEEvPT_DpOT0_
FNDA:0,_ZN9__gnu_cxx13new_allocatorINSt8__detail10_Hash_nodeINSt7__cxx1112basic_stringIcSt11char_traitsIcESaIcEEELb1EEEE9constructIS8_JS8_EEEvPT_DpOT0_
FN:160,_ZN9__gnu_cxx13new_allocatorIPN7testing11EnvironmentEE9constructIS3_JRKS3_EEEvPT_DpOT0_
FNDA:0,_ZN9__gnu_cxx13new_allocatorIPN7testing11EnvironmentEE9constructIS3_JRKS3_EEEvPT_DpOT0_
FN:160,_ZN9__gnu_cxx13new_allocatorIPN7testing8TestInfoEE9constructIS3_JRKS3_EEEvPT_DpOT0_
FNDA:20,_ZN9__gnu_cxx13new_allocatorIPN7testing8TestInfoEE9constructIS3_JRKS3_EEEvPT_DpOT0_
FN:160,_ZN9__gnu_cxx13new_allocatorIN7testing8internal9TraceInfoEE9constructIS3_JS3_EEEvPT_DpOT0_
FNDA:0,_ZN9__gnu_cxx13new_allocatorIN7testing8internal9TraceInfoEE9constructIS3_JS3_EEEvPT_DpOT0_
FN:160,_ZN9__gnu_cxx13new_allocatorIN7testing12TestPropertyEE9constructIS2_JS2_EEEvPT_DpOT0_
FNDA:0,_ZN9__gnu_cxx13new_allocatorIN7testing12TestPropertyEE9constructIS2_JS2_EEEvPT_DpOT0_
FN:160,_ZN9__gnu_cxx13new_allocatorIN7testing12TestPropertyEE9constructIS2_JRKS2_EEEvPT_DpOT0_
FNDA:0,_ZN9__gnu_cxx13new_allocatorIN7testing12TestPropertyEE9constructIS2_JRKS2_EEEvPT_DpOT0_
FN:160,_ZN9__gnu_cxx13new_allocatorIN7testing14TestPartResultEE9constructIS2_JS2_EEEvPT_DpOT0_
FNDA:0,_ZN9__gnu_cxx13new_allocatorIN7testing14TestPartResultEE9constructIS2_JS2_EEEvPT_DpOT0_
FN:160,_ZN9__gnu_cxx13new_allocatorIN7testing14TestPartResultEE9constructIS2_JRKS2_EEEvPT_DpOT0_
FNDA:0,_ZN9__gnu_cxx13new_allocatorIN7testing14TestPartResultEE9constructIS2_JRKS2_EEEvPT_DpOT0_
FN:160,_ZN9__gnu_cxx13new_allocatorISt13_Rb_tree_nodeISt4pairIKNSt7__cxx1112basic_stringIcSt11char_traitsIcESaIcEEEmEEE9constructISA_JRKSt21piecewise_construct_tSt5tupleIJRS9_EESH_IJEEEEEvPT_DpOT0_
FNDA:0,_ZN9__gnu_cxx13new_allocatorISt13_Rb_tree_nodeISt4pairIKNSt7__cxx1112basic_stringIcSt11char_traitsIcESaIcEEEmEEE9constructISA_JRKSt21piecewise_construct_tSt5tupleIJRS9_EESH_IJEEEEEvPT_DpOT0_
FN:160,_ZN9__gnu_cxx13new_allocatorISt13_Rb_tree_nodeINSt7__cxx1112basic_stringIcSt11char_traitsIcESaIcEEEEE9constructIS7_JS7_EEEvPT_DpOT0_
FNDA:0,_ZN9__gnu_cxx13new_allocatorISt13_Rb_tree_nodeINSt7__cxx1112basic_stringIcSt11char_traitsIcESaIcEEEEE9constructIS7_JS7_EEEvPT_DpOT0_
FN:160,_ZN9__gnu_cxx13new_allocatorIN7testing8internal13edit_distance8EditTypeEE9constructIS4_JRKS4_EEEvPT_DpOT0_
FNDA:0,_ZN9__gnu_cxx13new_allocatorIN7testing8internal13edit_distance8EditTypeEE9constructIS4_JRKS4_EEEvPT_DpOT0_
FN:160,_ZN9__gnu_cxx13new_allocatorINSt8__detail10_Hash_nodeISt4pairIKNSt7__cxx1112basic_stringIcSt11char_traitsIcESaIcEEEPN7testing9TestSuiteEELb1EEEE9constructISE_JRSA_RKSD_EEEvPT_DpOT0_
FNDA:2,_ZN9__gnu_cxx13new_allocatorINSt8__detail10_Hash_nodeISt4pairIKNSt7__cxx1112basic_stringIcSt11char_traitsIcESaIcEEEPN7testing9TestSuiteEELb1EEEE9constructISE_JRSA_RKSD_EEEvPT_DpOT0_
FN:160,_ZN9__gnu_cxx13new_allocatorImE9constructImJmEEEvPT_DpOT0_
FNDA:0,_ZN9__gnu_cxx13new_allocatorImE9constructImJmEEEvPT_DpOT0_
FN:160,_ZN9__gnu_cxx13new_allocatorISt10_List_nodeISt4pairIcPKcEEE9constructIS5_JS5_EEEvPT_DpOT0_
FNDA:0,_ZN9__gnu_cxx13new_allocatorISt10_List_nodeISt4pairIcPKcEEE9constructIS5_JS5_EEEvPT_DpOT0_
FN:160,_ZN9__gnu_cxx13new_allocatorIN7testing8internal9TraceInfoEE9constructIS3_JRKS3_EEEvPT_DpOT0_
FNDA:0,_ZN9__gnu_cxx13new_allocatorIN7testing8internal9TraceInfoEE9constructIS3_JRKS3_EEEvPT_DpOT0_
FN:160,_ZN9__gnu_cxx13new_allocatorIPN7testing9TestSuiteEE9constructIS3_JS3_EEEvPT_DpOT0_
FNDA:0,_ZN9__gnu_cxx13new_allocatorIPN7testing9TestSuiteEE9constructIS3_JS3_EEEvPT_DpOT0_
FN:160,_ZN9__gnu_cxx13new_allocatorIPN7testing9TestSuiteEE9constructIS3_JRKS3_EEEvPT_DpOT0_
FNDA:2,_ZN9__gnu_cxx13new_allocatorIPN7testing9TestSuiteEE9constructIS3_JRKS3_EEEvPT_DpOT0_
FN:160,_ZN9__gnu_cxx13new_allocatorISt13_Rb_tree_nodeISt4pairIKNSt7__cxx1112basic_stringIcSt11char_traitsIcESaIcEEEN7testing8internal34TypeParameterizedTestSuiteRegistry30TypeParameterizedTestSuiteInfoEEEE9constructISE_JS8_SD_EEEvPT_DpOT0_
FNDA:0,_ZN9__gnu_cxx13new_allocatorISt13_Rb_tree_nodeISt4pairIKNSt7__cxx1112basic_stringIcSt11char_traitsIcESaIcEEEN7testing8internal34TypeParameterizedTestSuiteRegistry30TypeParameterizedTestSuiteInfoEEEE9constructISE_JS8_SD_EEEvPT_DpOT0_
FN:160,_ZN9__gnu_cxx13new_allocatorINSt7__cxx1112basic_stringIcSt11char_traitsIcESaIcEEEE9constructIS6_JS6_EEEvPT_DpOT0_
FNDA:19,_ZN9__gnu_cxx13new_allocatorINSt7__cxx1112basic_stringIcSt11char_traitsIcESaIcEEEE9constructIS6_JS6_EEEvPT_DpOT0_
FN:160,_ZN9__gnu_cxx13new_allocatorIiE9constructIiJiEEEvPT_DpOT0_
FNDA:22,_ZN9__gnu_cxx13new_allocatorIiE9constructIiJiEEEvPT_DpOT0_
FN:166,_ZN9__gnu_cxx13new_allocatorIPN7testing11EnvironmentEE7destroyIS3_EEvPT_
FNDA:0,_ZN9__gnu_cxx13new_allocatorIPN7testing11EnvironmentEE7destroyIS3_EEvPT_
FN:166,_ZN9__gnu_cxx13new_allocatorISt10_List_nodeISt4pairIcPKcEEE7destroyIS5_EEvPT_
FNDA:0,_ZN9__gnu_cxx13new_allocatorISt10_List_nodeISt4pairIcPKcEEE7destroyIS5_EEvPT_
FN:166,_ZN9__gnu_cxx13new_allocatorIN7testing14TestPartResultEE7destroyIS2_EEvPT_
FNDA:0,_ZN9__gnu_cxx13new_allocatorIN7testing14TestPartResultEE7destroyIS2_EEvPT_
FN:166,_ZN9__gnu_cxx13new_allocatorIPN7testing8TestInfoEE7destroyIS3_EEvPT_
FNDA:0,_ZN9__gnu_cxx13new_allocatorIPN7testing8TestInfoEE7destroyIS3_EEvPT_
FN:166,_ZN9__gnu_cxx13new_allocatorIPN7testing17TestEventListenerEE7destroyIS3_EEvPT_
FNDA:0,_ZN9__gnu_cxx13new_allocatorIPN7testing17TestEventListenerEE7destroyIS3_EEvPT_
FN:166,_ZN9__gnu_cxx13new_allocatorIN7testing12TestPropertyEE7destroyIS2_EEvPT_
FNDA:0,_ZN9__gnu_cxx13new_allocatorIN7testing12TestPropertyEE7destroyIS2_EEvPT_
FN:166,_ZN9__gnu_cxx13new_allocatorIPN7testing9TestSuiteEE7destroyIS3_EEvPT_
FNDA:0,_ZN9__gnu_cxx13new_allocatorIPN7testing9TestSuiteEE7destroyIS3_EEvPT_
FN:166,_ZN9__gnu_cxx13new_allocatorINSt7__cxx1112basic_stringIcSt11char_traitsIcESaIcEEEE7destroyIS6_EEvPT_
FNDA:3,_ZN9__gnu_cxx13new_allocatorINSt7__cxx1112basic_stringIcSt11char_traitsIcESaIcEEEE7destroyIS6_EEvPT_
FN:166,_ZN9__gnu_cxx13new_allocatorImE7destroyImEEvPT_
FNDA:0,_ZN9__gnu_cxx13new_allocatorImE7destroyImEEvPT_
FN:166,_ZN9__gnu_cxx13new_allocatorIiE7destroyIiEEvPT_
FNDA:0,_ZN9__gnu_cxx13new_allocatorIiE7destroyIiEEvPT_
FN:166,_ZN9__gnu_cxx13new_allocatorINSt8__detail10_Hash_nodeISt4pairIKNSt7__cxx1112basic_stringIcSt11char_traitsIcESaIcEEEmELb1EEEE7destroyISB_EEvPT_
FNDA:0,_ZN9__gnu_cxx13new_allocatorINSt8__detail10_Hash_nodeISt4pairIKNSt7__cxx1112basic_stringIcSt11char_traitsIcESaIcEEEmELb1EEEE7destroyISB_EEvPT_
FN:166,_ZN9__gnu_cxx13new_allocatorINSt8__detail10_Hash_nodeISt4pairIKNSt7__cxx1112basic_stringIcSt11char_traitsIcESaIcEEEPN7testing9TestSuiteEELb1EEEE7destroyISE_EEvPT_
FNDA:2,_ZN9__gnu_cxx13new_allocatorINSt8__detail10_Hash_nodeISt4pairIKNSt7__cxx1112basic_stringIcSt11char_traitsIcESaIcEEEPN7testing9TestSuiteEELb1EEEE7destroyISE_EEvPT_
FN:166,_ZN9__gnu_cxx13new_allocatorIN7testing8internal9TraceInfoEE7destroyIS3_EEvPT_
FNDA:0,_ZN9__gnu_cxx13new_allocatorIN7testing8internal9TraceInfoEE7destroyIS3_EEvPT_
FN:166,_ZN9__gnu_cxx13new_allocatorINSt8__detail10_Hash_nodeINSt7__cxx1112basic_stringIcSt11char_traitsIcESaIcEEELb1EEEE7destroyIS8_EEvPT_
FNDA:0,_ZN9__gnu_cxx13new_allocatorINSt8__detail10_Hash_nodeINSt7__cxx1112basic_stringIcSt11char_traitsIcESaIcEEELb1EEEE7destroyIS8_EEvPT_
FN:166,_ZN9__gnu_cxx13new_allocatorISt13_Rb_tree_nodeISt4pairIKNSt7__cxx1112basic_stringIcSt11char_traitsIcESaIcEEEN7testing8internal34TypeParameterizedTestSuiteRegistry30TypeParameterizedTestSuiteInfoEEEE7destroyISE_EEvPT_
FNDA:0,_ZN9__gnu_cxx13new_allocatorISt13_Rb_tree_nodeISt4pairIKNSt7__cxx1112basic_stringIcSt11char_traitsIcESaIcEEEN7testing8internal34TypeParameterizedTestSuiteRegistry30TypeParameterizedTestSuiteInfoEEEE7destroyISE_EEvPT_
FN:166,_ZN9__gnu_cxx13new_allocatorISt13_Rb_tree_nodeISt4pairIKNSt7__cxx1112basic_stringIcSt11char_traitsIcESaIcEEEmEEE7destroyISA_EEvPT_
FNDA:0,_ZN9__gnu_cxx13new_allocatorISt13_Rb_tree_nodeISt4pairIKNSt7__cxx1112basic_stringIcSt11char_traitsIcESaIcEEEmEEE7destroyISA_EEvPT_
FN:166,_ZN9__gnu_cxx13new_allocatorISt13_Rb_tree_nodeINSt7__cxx1112basic_stringIcSt11char_traitsIcESaIcEEEEE7destroyIS7_EEvPT_
FNDA:0,_ZN9__gnu_cxx13new_allocatorISt13_Rb_tree_nodeINSt7__cxx1112basic_stringIcSt11char_traitsIcESaIcEEEEE7destroyIS7_EEvPT_
FN:166,_ZN9__gnu_cxx13new_allocatorIN7testing8internal13edit_distance8EditTypeEE7destroyIS4_EEvPT_
FNDA:0,_ZN9__gnu_cxx13new_allocatorIN7testing8internal13edit_distance8EditTypeEE7destroyIS4_EEvPT_
FN:197,_ZNK9__gnu_cxx13new_allocatorISt6vectorIdSaIdEEE11_M_max_sizeEv
FNDA:0,_ZNK9__gnu_cxx13new_allocatorISt6vectorIdSaIdEEE11_M_max_sizeEv
FN:197,_ZNK9__gnu_cxx13new_allocatorIPN7testing9TestSuiteEE11_M_max_sizeEv
FNDA:6,_ZNK9__gnu_cxx13new_allocatorIPN7testing9TestSuiteEE11_M_max_sizeEv
FN:197,_ZNK9__gnu_cxx13new_allocatorINSt8__detail10_Hash_nodeINSt7__cxx1112basic_stringIcSt11char_traitsIcESaIcEEELb1EEEE11_M_max_sizeEv
FNDA:0,_ZNK9__gnu_cxx13new_allocatorINSt8__detail10_Hash_nodeINSt7__cxx1112basic_stringIcSt11char_traitsIcESaIcEEELb1EEEE11_M_max_sizeEv
FN:197,_ZNK9__gnu_cxx13new_allocatorIN7testing8internal9TraceInfoEE11_M_max_sizeEv
FNDA:0,_ZNK9__gnu_cxx13new_allocatorIN7testing8internal9TraceInfoEE11_M_max_sizeEv
FN:197,_ZNK9__gnu_cxx13new_allocatorIPNSt8__detail15_Hash_node_baseEE11_M_max_sizeEv
FNDA:1,_ZNK9__gnu_cxx13new_allocatorIPNSt8__detail15_Hash_node_baseEE11_M_max_sizeEv
FN:197,_ZNK9__gnu_cxx13new_allocatorIPN7testing11EnvironmentEE11_M_max_sizeEv
FNDA:0,_ZNK9__gnu_cxx13new_allocatorIPN7testing11EnvironmentEE11_M_max_sizeEv
FN:197,_ZNK9__gnu_cxx13new_allocatorIPN7testing17TestEventListenerEE11_M_max_sizeEv
FNDA:3,_ZNK9__gnu_cxx13new_allocatorIPN7testing17TestEventListenerEE11_M_max_sizeEv
FN:197,_ZNK9__gnu_cxx13new_allocatorISt6vectorIN7testing8internal13edit_distance8EditTypeESaIS5_EEE11_M_max_sizeEv
FNDA:0,_ZNK9__gnu_cxx13new_allocatorISt6vectorIN7testing8internal13edit_distance8EditTypeESaIS5_EEE11_M_max_sizeEv
FN:197,_ZNK9__gnu_cxx13new_allocatorIPN7testing8TestInfoEE11_M_max_sizeEv
FNDA:27,_ZNK9__gnu_cxx13new_allocatorIPN7testing8TestInfoEE11_M_max_sizeEv
FN:197,_ZNK9__gnu_cxx13new_allocatorIN7testing12TestPropertyEE11_M_max_sizeEv
FNDA:0,_ZNK9__gnu_cxx13new_allocatorIN7testing12TestPropertyEE11_M_max_sizeEv
FN:197,_ZNK9__gnu_cxx13new_allocatorIN7testing14TestPartResultEE11_M_max_sizeEv
FNDA:0,_ZNK9__gnu_cxx13new_allocatorIN7testing14TestPartResultEE11_M_max_sizeEv
FN:197,_ZNK9__gnu_cxx13new_allocatorISt10_List_nodeISt4pairIcPKcEEE11_M_max_sizeEv
FNDA:0,_ZNK9__gnu_cxx13new_allocatorISt10_List_nodeISt4pairIcPKcEEE11_M_max_sizeEv
FN:197,_ZNK9__gnu_cxx13new_allocatorISt13_Rb_tree_nodeINSt7__cxx1112basic_stringIcSt11char_traitsIcESaIcEEEEE11_M_max_sizeEv
FNDA:0,_ZNK9__gnu_cxx13new_allocatorISt13_Rb_tree_nodeINSt7__cxx1112basic_stringIcSt11char_traitsIcESaIcEEEEE11_M_max_sizeEv
FN:197,_ZNK9__gnu_cxx13new_allocatorISt13_Rb_tree_nodeISt4pairIKNSt7__cxx1112basic_stringIcSt11char_traitsIcESaIcEEEmEEE11_M_max_sizeEv
FNDA:0,_ZNK9__gnu_cxx13new_allocatorISt13_Rb_tree_nodeISt4pairIKNSt7__cxx1112basic_stringIcSt11char_traitsIcESaIcEEEmEEE11_M_max_sizeEv
FN:197,_ZNK9__gnu_cxx13new_allocatorIN7testing8internal13edit_distance8EditTypeEE11_M_max_sizeEv
FNDA:0,_ZNK9__gnu_cxx13new_allocatorIN7testing8internal13edit_distance8EditTypeEE11_M_max_sizeEv
FN:197,_ZNK9__gnu_cxx13new_allocatorIdE11_M_max_sizeEv
FNDA:0,_ZNK9__gnu_cxx13new_allocatorIdE11_M_max_sizeEv
FN:197,_ZNK9__gnu_cxx13new_allocatorINSt8__detail10_Hash_nodeISt4pairIKNSt7__cxx1112basic_stringIcSt11char_traitsIcESaIcEEEPN7testing9TestSuiteEELb1EEEE11_M_max_sizeEv
FNDA:2,_ZNK9__gnu_cxx13new_allocatorINSt8__detail10_Hash_nodeISt4pairIKNSt7__cxx1112basic_stringIcSt11char_traitsIcESaIcEEEPN7testing9TestSuiteEELb1EEEE11_M_max_sizeEv
FN:197,_ZNK9__gnu_cxx13new_allocatorIiE11_M_max_sizeEv
FNDA:33,_ZNK9__gnu_cxx13new_allocatorIiE11_M_max_sizeEv
FN:197,_ZNK9__gnu_cxx13new_allocatorISt13_Rb_tree_nodeISt4pairIKNSt7__cxx1112basic_stringIcSt11char_traitsIcESaIcEEEN7testing8internal34TypeParameterizedTestSuiteRegistry30TypeParameterizedTestSuiteInfoEEEE11_M_max_sizeEv
FNDA:0,_ZNK9__gnu_cxx13new_allocatorISt13_Rb_tree_nodeISt4pairIKNSt7__cxx1112basic_stringIcSt11char_traitsIcESaIcEEEN7testing8internal34TypeParameterizedTestSuiteRegistry30TypeParameterizedTestSuiteInfoEEEE11_M_max_sizeEv
FN:197,_ZNK9__gnu_cxx13new_allocatorINSt7__cxx1112basic_stringIcSt11char_traitsIcESaIcEEEE11_M_max_sizeEv
FNDA:0,_ZNK9__gnu_cxx13new_allocatorINSt7__cxx1112basic_stringIcSt11char_traitsIcESaIcEEEE11_M_max_sizeEv
FN:197,_ZNK9__gnu_cxx13new_allocatorImE11_M_max_sizeEv
FNDA:0,_ZNK9__gnu_cxx13new_allocatorImE11_M_max_sizeEv
DA:79,23
DA:79,0
DA:79,0
DA:79,0
DA:79,0
DA:79,0
DA:79,0
DA:79,0
DA:79,6
DA:79,0
DA:79,0
DA:79,0
DA:79,23
DA:79,0
DA:79,2
DA:79,3
DA:79,1
DA:79,1
DA:79,1
DA:79,1
DA:79,1
DA:79,1
DA:79,1
DA:79,1
DA:79,2
DA:82,0
DA:82,0
DA:82,0
DA:82,0
DA:82,0
DA:82,0
DA:89,23
DA:89,0
DA:89,0
DA:89,0
DA:89,6
DA:89,0
DA:89,0
DA:89,0
DA:89,0
DA:89,0
DA:89,0
DA:89,0
DA:89,23
DA:89,0
DA:89,2
DA:89,3
DA:89,1
DA:89,1
DA:89,1
DA:89,1
DA:89,1
DA:89,1
DA:89,1
DA:89,1
DA:89,2
DA:103,0
DA:111,0
DA:115,0
DA:116,0
DA:117,0
DA:127,0
DA:103,0
DA:111,0
DA:115,0
DA:116,0
DA:117,0
DA:127,0
DA:103,0
DA:111,0
DA:115,0
DA:116,0
DA:117,0
DA:127,0
DA:103,0
DA:111,0
DA:115,0
DA:116,0
DA:117,0
DA:127,0
DA:103,0
DA:111,0
DA:115,0
DA:116,0
DA:117,0
DA:127,0
DA:103,9
DA:111,9
DA:115,0
DA:116,0
DA:117,0
DA:127,9
DA:103,1
DA:111,1
DA:115,0
DA:116,0
DA:117,0
DA:127,1
DA:103,0
DA:111,0
DA:115,0
DA:116,0
DA:117,0
DA:127,0
DA:103,0
DA:111,0
DA:115,0
DA:116,0
DA:117,0
DA:127,0
DA:103,2
DA:111,2
DA:115,0
DA:116,0
DA:117,0
DA:127,2
DA:103,0
DA:111,0
DA:115,0
DA:116,0
DA:117,0
DA:127,0
DA:103,0
DA:111,0
DA:115,0
DA:116,0
DA:117,0
DA:127,0
DA:103,0
DA:111,0
DA:115,0
DA:116,0
DA:117,0
DA:127,0
DA:103,0
DA:111,0
DA:115,0
DA:116,0
DA:117,0
DA:127,0
DA:103,0
DA:111,0
DA:115,0
DA:116,0
DA:117,0
DA:127,0
DA:103,0
DA:111,0
DA:115,0
DA:116,0
DA:117,0
DA:127,0
DA:103,0
DA:111,0
DA:115,0
DA:116,0
DA:117,0
DA:127,0
DA:103,11
DA:111,11
DA:115,0
DA:116,0
DA:117,0
DA:127,11
DA:103,2
DA:111,2
DA:115,0
DA:116,0
DA:117,0
DA:127,2
DA:103,0
DA:111,0
DA:115,0
DA:116,0
DA:117,0
DA:127,0
DA:103,1
DA:111,1
DA:115,0
DA:116,0
DA:117,0
DA:127,1
DA:132,0
DA:145,0
DA:150,0
DA:132,0
DA:145,0
DA:150,0
DA:132,0
DA:145,0
DA:150,0
DA:132,0
DA:145,0
DA:150,0
DA:132,0
DA:145,0
DA:150,0
DA:132,0
DA:145,0
DA:150,0
DA:132,9
DA:145,9
DA:150,9
DA:132,11
DA:145,11
DA:150,11
DA:132,1
DA:145,1
DA:150,1
DA:132,0
DA:145,0
DA:150,0
DA:132,2
DA:145,2
DA:150,2
DA:132,0
DA:145,0
DA:150,0
DA:132,2
DA:145,2
DA:150,2
DA:132,0
DA:145,0
DA:150,0
DA:132,0
DA:145,0
DA:150,0
DA:132,0
DA:145,0
DA:150,0
DA:132,0
DA:145,0
DA:150,0
DA:132,1
DA:145,1
DA:150,1
DA:132,0
DA:145,0
DA:150,0
DA:132,0
DA:145,0
DA:150,0
DA:132,0
DA:145,0
DA:150,0
DA:132,0
DA:145,0
DA:150,0
DA:132,0
DA:145,0
DA:150,0
DA:154,22
DA:155,22
DA:154,0
DA:155,0
DA:154,4
DA:155,4
DA:154,0
DA:155,0
DA:154,0
DA:155,0
DA:154,2
DA:155,2
DA:154,18
DA:155,18
DA:154,0
DA:155,0
DA:154,0
DA:155,0
DA:154,0
DA:155,0
DA:154,0
DA:155,0
DA:154,0
DA:155,0
DA:154,0
DA:155,0
DA:154,0
DA:155,0
DA:160,22
DA:162,22
DA:160,0
DA:162,0
DA:160,0
DA:162,0
DA:160,0
DA:162,0
DA:160,20
DA:162,20
DA:160,1
DA:162,1
DA:160,0
DA:162,0
DA:160,0
DA:162,0
DA:160,2
DA:162,2
DA:160,19
DA:162,19
DA:160,0
DA:162,0
DA:160,0
DA:162,0
DA:160,0
DA:162,0
DA:160,0
DA:162,0
DA:160,0
DA:162,0
DA:160,0
DA:162,0
DA:160,2
DA:162,2
DA:160,0
DA:162,0
DA:160,0
DA:162,0
DA:160,0
DA:162,0
DA:160,0
DA:162,0
DA:166,0
DA:168,0
DA:166,0
DA:168,0
DA:166,0
DA:168,0
DA:166,0
DA:168,0
DA:166,0
DA:168,0
DA:166,0
DA:168,0
DA:166,0
DA:168,0
DA:166,0
DA:168,0
DA:166,0
DA:168,0
DA:166,0
DA:168,0
DA:166,3
DA:168,3
DA:166,0
DA:168,0
DA:166,0
DA:168,0
DA:166,0
DA:168,0
DA:166,0
DA:168,0
DA:166,0
DA:168,0
DA:166,0
DA:168,0
DA:166,2
DA:168,2
DA:197,0
DA:200,0
DA:197,0
DA:200,0
DA:197,0
DA:200,0
DA:197,0
DA:200,0
DA:197,0
DA:200,0
DA:197,27
DA:200,27
DA:197,3
DA:200,3
DA:197,0
DA:200,0
DA:197,0
DA:200,0
DA:197,6
DA:200,6
DA:197,0
DA:200,0
DA:197,0
DA:200,0
DA:197,0
DA:200,0
DA:197,0
DA:200,0
DA:197,0
DA:200,0
DA:197,0
DA:200,0
DA:197,0
DA:200,0
DA:197,33
DA:200,33
DA:197,2
DA:200,2
DA:197,0
DA:200,0
DA:197,1
DA:200,1
end_of_record
SF:/usr/include/c++/11/bits/cpp_type_traits.h
FN:560,_ZSt12__miter_baseIN9__gnu_cxx17__normal_iteratorIPKN7testing8internal13edit_distance8EditTypeESt6vectorIS5_SaIS5_EEEEET_SC_
FNDA:0,_ZSt12__miter_baseIN9__gnu_cxx17__normal_iteratorIPKN7testing8internal13edit_distance8EditTypeESt6vectorIS5_SaIS5_EEEEET_SC_
FN:560,_ZSt12__miter_baseIN9__gnu_cxx17__normal_iteratorIPKdSt6vectorIdSaIdEEEEET_S8_
FNDA:0,_ZSt12__miter_baseIN9__gnu_cxx17__normal_iteratorIPKdSt6vectorIdSaIdEEEEET_S8_
FN:560,_ZSt12__miter_baseIPNSt7__cxx1112basic_stringIcSt11char_traitsIcESaIcEEEET_S7_
FNDA:0,_ZSt12__miter_baseIPNSt7__cxx1112basic_stringIcSt11char_traitsIcESaIcEEEET_S7_
FN:560,_ZSt12__miter_baseIPiET_S1_
FNDA:0,_ZSt12__miter_baseIPiET_S1_
FN:560,_ZSt12__miter_baseIPmET_S1_
FNDA:0,_ZSt12__miter_baseIPmET_S1_
FN:560,_ZSt12__miter_baseIPPN7testing11EnvironmentEET_S4_
FNDA:0,_ZSt12__miter_baseIPPN7testing11EnvironmentEET_S4_
FN:560,_ZSt12__miter_baseIPPN7testing17TestEventListenerEET_S4_
FNDA:0,_ZSt12__miter_baseIPPN7testing17TestEventListenerEET_S4_
FN:560,_ZSt12__miter_baseIPN7testing8internal13edit_distance8EditTypeEET_S5_
FNDA:0,_ZSt12__miter_baseIPN7testing8internal13edit_distance8EditTypeEET_S5_
FN:560,_ZSt12__miter_baseIPPN7testing8TestInfoEET_S4_
FNDA:0,_ZSt12__miter_baseIPPN7testing8TestInfoEET_S4_
FN:560,_ZSt12__miter_baseIN9__gnu_cxx17__normal_iteratorIPPN7testing8TestInfoESt6vectorIS4_SaIS4_EEEEET_SA_
FNDA:4,_ZSt12__miter_baseIN9__gnu_cxx17__normal_iteratorIPPN7testing8TestInfoESt6vectorIS4_SaIS4_EEEEET_SA_
FN:560,_ZSt12__miter_baseIPPN7testing9TestSuiteEET_S4_
FNDA:0,_ZSt12__miter_baseIPPN7testing9TestSuiteEET_S4_
FN:560,_ZSt12__miter_baseIN9__gnu_cxx17__normal_iteratorIPPN7testing17TestEventListenerESt6vectorIS4_SaIS4_EEEEET_SA_
FNDA:0,_ZSt12__miter_baseIN9__gnu_cxx17__normal_iteratorIPPN7testing17TestEventListenerESt6vectorIS4_SaIS4_EEEEET_SA_
FN:560,_ZSt12__miter_baseIN9__gnu_cxx17__normal_iteratorIPNSt7__cxx1112basic_stringIcSt11char_traitsIcESaIcEEESt6vectorIS7_SaIS7_EEEEET_SD_
FNDA:16,_ZSt12__miter_baseIN9__gnu_cxx17__normal_iteratorIPNSt7__cxx1112basic_stringIcSt11char_traitsIcESaIcEEESt6vectorIS7_SaIS7_EEEEET_SD_
DA:560,0
DA:561,0
DA:560,0
DA:561,0
DA:560,0
DA:561,0
DA:560,0
DA:561,0
DA:560,0
DA:561,0
DA:560,0
DA:561,0
DA:560,0
DA:561,0
DA:560,0
DA:561,0
DA:560,0
DA:561,0
DA:560,4
DA:561,4
DA:560,0
DA:561,0
DA:560,0
DA:561,0
DA:560,16
DA:561,16
end_of_record
SF:/usr/include/c++/11/ext/alloc_traits.h
FN:97,_ZN9__gnu_cxx14__alloc_traitsISaIN7testing8internal13edit_distance8EditTypeEES4_E17_S_select_on_copyERKS5_
FNDA:0,_ZN9__gnu_cxx14__alloc_traitsISaIN7testing8internal13edit_distance8EditTypeEES4_E17_S_select_on_copyERKS5_
FN:97,_ZN9__gnu_cxx14__alloc_traitsISaIdEdE17_S_select_on_copyERKS1_
FNDA:0,_ZN9__gnu_cxx14__alloc_traitsISaIdEdE17_S_select_on_copyERKS1_
FN:97,_ZN9__gnu_cxx14__alloc_traitsISaINSt7__cxx1112basic_stringIcSt11char_traitsIcESaIcEEEES6_E17_S_select_on_copyERKS7_
FNDA:0,_ZN9__gnu_cxx14__alloc_traitsISaINSt7__cxx1112basic_stringIcSt11char_traitsIcESaIcEEEES6_E17_S_select_on_copyERKS7_
FN:97,_ZN9__gnu_cxx14__alloc_traitsISaIcEcE17_S_select_on_copyERKS1_
FNDA:0,_ZN9__gnu_cxx14__alloc_traitsISaIcEcE17_S_select_on_copyERKS1_
FN:100,_ZN9__gnu_cxx14__alloc_traitsISaINSt7__cxx1112basic_stringIcSt11char_traitsIcESaIcEEEES6_E10_S_on_swapERS7_S9_
FNDA:5,_ZN9__gnu_cxx14__alloc_traitsISaINSt7__cxx1112basic_stringIcSt11char_traitsIcESaIcEEEES6_E10_S_on_swapERS7_S9_
DA:97,0
DA:98,0
DA:97,0
DA:98,0
DA:97,0
DA:98,0
DA:97,0
DA:98,0
DA:100,5
DA:101,5
end_of_record
SF:/usr/include/c++/11/bits/unique_ptr.h
FN:79,_ZNKSt14default_deleteIN7testing8internal16DeathTestFactoryEEclEPS2_
FNDA:1,_ZNKSt14default_deleteIN7testing8internal16DeathTestFactoryEEclEPS2_
FN:79,_ZNKSt14default_deleteINSt7__cxx1118basic_stringstreamIcSt11char_traitsIcESaIcEEEEclEPS5_
FNDA:0,_ZNKSt14default_deleteINSt7__cxx1118basic_stringstreamIcSt11char_traitsIcESaIcEEEEclEPS5_
FN:79,_ZNKSt14default_deleteIN7testing8internal24InternalRunDeathTestFlagEEclEPS2_
FNDA:0,_ZNKSt14default_deleteIN7testing8internal24InternalRunDeathTestFlagEEclEPS2_
FN:79,_ZNKSt14default_deleteINSt7__cxx1112basic_stringIcSt11char_traitsIcESaIcEEEEclEPS5_
FNDA:0,_ZNKSt14default_deleteINSt7__cxx1112basic_stringIcSt11char_traitsIcESaIcEEEEclEPS5_
FN:79,_ZNKSt14default_deleteIN7testing8internal11ThreadLocalISt6vectorINS1_9TraceInfoESaIS4_EEE18ValueHolderFactoryEEclEPS8_
FNDA:1,_ZNKSt14default_deleteIN7testing8internal11ThreadLocalISt6vectorINS1_9TraceInfoESaIS4_EEE18ValueHolderFactoryEEclEPS8_
FN:79,_ZNKSt14default_deleteIKNSt7__cxx1112basic_stringIcSt11char_traitsIcESaIcEEEEclEPS6_
FNDA:0,_ZNKSt14default_deleteIKNSt7__cxx1112basic_stringIcSt11char_traitsIcESaIcEEEEclEPS6_
FN:79,_ZNKSt14default_deleteIN7testing8internal14GTestFlagSaverEEclEPS2_
FNDA:20,_ZNKSt14default_deleteIN7testing8internal14GTestFlagSaverEEclEPS2_
FN:79,_ZNKSt14default_deleteIN7testing8internal11ThreadLocalIPNS0_31TestPartResultReporterInterfaceEE18ValueHolderFactoryEEclEPS6_
FNDA:1,_ZNKSt14default_deleteIN7testing8internal11ThreadLocalIPNS0_31TestPartResultReporterInterfaceEE18ValueHolderFactoryEEclEPS6_
FN:79,_ZNKSt14default_deleteIN7testing8internal17StreamingListener20AbstractSocketWriterEEclEPS3_
FNDA:0,_ZNKSt14default_deleteIN7testing8internal17StreamingListener20AbstractSocketWriterEEclEPS3_
FN:154,_ZNSt15__uniq_ptr_implIN7testing8internal24InternalRunDeathTestFlagESt14default_deleteIS2_EEC2Ev
FNDA:1,_ZNSt15__uniq_ptr_implIN7testing8internal24InternalRunDeathTestFlagESt14default_deleteIS2_EEC2Ev
FN:155,_ZNSt15__uniq_ptr_implIN7testing8internal11ThreadLocalIPNS0_31TestPartResultReporterInterfaceEE18ValueHolderFactoryESt14default_deleteIS6_EEC2EPS6_
FNDA:1,_ZNSt15__uniq_ptr_implIN7testing8internal11ThreadLocalIPNS0_31TestPartResultReporterInterfaceEE18ValueHolderFactoryESt14default_deleteIS6_EEC2EPS6_
FN:155,_ZNSt15__uniq_ptr_implIN7testing8internal16DeathTestFactoryESt14default_deleteIS2_EEC2EPS2_
FNDA:1,_ZNSt15__uniq_ptr_implIN7testing8internal16DeathTestFactoryESt14default_deleteIS2_EEC2EPS2_
FN:155,_ZNSt15__uniq_ptr_implINSt7__cxx1112basic_stringIcSt11char_traitsIcESaIcEEESt14default_deleteIS5_EEC2EPS5_
FNDA:0,_ZNSt15__uniq_ptr_implINSt7__cxx1112basic_stringIcSt11char_traitsIcESaIcEEESt14default_deleteIS5_EEC2EPS5_
FN:155,_ZNSt15__uniq_ptr_implIKNSt7__cxx1112basic_stringIcSt11char_traitsIcESaIcEEESt14default_deleteIS6_EEC2EPS6_
FNDA:42,_ZNSt15__uniq_ptr_implIKNSt7__cxx1112basic_stringIcSt11char_traitsIcESaIcEEESt14default_deleteIS6_EEC2EPS6_
FN:155,_ZNSt15__uniq_ptr_implIN7testing8internal14GTestFlagSaverESt14default_deleteIS2_EEC2EPS2_
FNDA:20,_ZNSt15__uniq_ptr_implIN7testing8internal14GTestFlagSaverESt14default_deleteIS2_EEC2EPS2_
FN:155,_ZNSt15__uniq_ptr_implIN7testing8internal17StreamingListener20AbstractSocketWriterESt14default_deleteIS3_EEC2EPS3_
FNDA:0,_ZNSt15__uniq_ptr_implIN7testing8internal17StreamingListener20AbstractSocketWriterESt14default_deleteIS3_EEC2EPS3_
FN:155,_ZNSt15__uniq_ptr_implIN7testing8internal11ThreadLocalISt6vectorINS1_9TraceInfoESaIS4_EEE18ValueHolderFactoryESt14default_deleteIS8_EEC2EPS8_
FNDA:1,_ZNSt15__uniq_ptr_implIN7testing8internal11ThreadLocalISt6vectorINS1_9TraceInfoESaIS4_EEE18ValueHolderFactoryESt14default_deleteIS8_EEC2EPS8_
FN:155,_ZNSt15__uniq_ptr_implINSt7__cxx1118basic_stringstreamIcSt11char_traitsIcESaIcEEESt14default_deleteIS5_EEC2EPS5_
FNDA:75,_ZNSt15__uniq_ptr_implINSt7__cxx1118basic_stringstreamIcSt11char_traitsIcESaIcEEESt14default_deleteIS5_EEC2EPS5_
FN:165,_ZNSt15__uniq_ptr_implINSt7__cxx1112basic_stringIcSt11char_traitsIcESaIcEEESt14default_deleteIS5_EEaSEOS8_
FNDA:0,_ZNSt15__uniq_ptr_implINSt7__cxx1112basic_stringIcSt11char_traitsIcESaIcEEESt14default_deleteIS5_EEaSEOS8_
FN:172,_ZNSt15__uniq_ptr_implIN7testing8internal11ThreadLocalIPNS0_31TestPartResultReporterInterfaceEE18ValueHolderFactoryESt14default_deleteIS6_EE6_M_ptrEv
FNDA:2,_ZNSt15__uniq_ptr_implIN7testing8internal11ThreadLocalIPNS0_31TestPartResultReporterInterfaceEE18ValueHolderFactoryESt14default_deleteIS6_EE6_M_ptrEv
FN:172,_ZNSt15__uniq_ptr_implIN7testing8internal17StreamingListener20AbstractSocketWriterESt14default_deleteIS3_EE6_M_ptrEv
FNDA:0,_ZNSt15__uniq_ptr_implIN7testing8internal17StreamingListener20AbstractSocketWriterESt14default_deleteIS3_EE6_M_ptrEv
FN:172,_ZNSt15__uniq_ptr_implIN7testing8internal14GTestFlagSaverESt14default_deleteIS2_EE6_M_ptrEv
FNDA:40,_ZNSt15__uniq_ptr_implIN7testing8internal14GTestFlagSaverESt14default_deleteIS2_EE6_M_ptrEv
FN:172,_ZNSt15__uniq_ptr_implIN7testing8internal11ThreadLocalISt6vectorINS1_9TraceInfoESaIS4_EEE18ValueHolderFactoryESt14default_deleteIS8_EE6_M_ptrEv
FNDA:2,_ZNSt15__uniq_ptr_implIN7testing8internal11ThreadLocalISt6vectorINS1_9TraceInfoESaIS4_EEE18ValueHolderFactoryESt14default_deleteIS8_EE6_M_ptrEv
FN:172,_ZNSt15__uniq_ptr_implIKNSt7__cxx1112basic_stringIcSt11char_traitsIcESaIcEEESt14default_deleteIS6_EE6_M_ptrEv
FNDA:84,_ZNSt15__uniq_ptr_implIKNSt7__cxx1112basic_stringIcSt11char_traitsIcESaIcEEESt14default_deleteIS6_EE6_M_ptrEv
FN:172,_ZNSt15__uniq_ptr_implIN7testing8internal24InternalRunDeathTestFlagESt14default_deleteIS2_EE6_M_ptrEv
FNDA:3,_ZNSt15__uniq_ptr_implIN7testing8internal24InternalRunDeathTestFlagESt14default_deleteIS2_EE6_M_ptrEv
FN:172,_ZNSt15__uniq_ptr_implINSt7__cxx1112basic_stringIcSt11char_traitsIcESaIcEEESt14default_deleteIS5_EE6_M_ptrEv
FNDA:0,_ZNSt15__uniq_ptr_implINSt7__cxx1112basic_stringIcSt11char_traitsIcESaIcEEESt14default_deleteIS5_EE6_M_ptrEv
FN:172,_ZNSt15__uniq_ptr_implINSt7__cxx1118basic_stringstreamIcSt11char_traitsIcESaIcEEESt14default_deleteIS5_EE6_M_ptrEv
FNDA:0,_ZNSt15__uniq_ptr_implINSt7__cxx1118basic_stringstreamIcSt11char_traitsIcESaIcEEESt14default_deleteIS5_EE6_M_ptrEv
FN:172,_ZNSt15__uniq_ptr_implIN7testing8internal16DeathTestFactoryESt14default_deleteIS2_EE6_M_ptrEv
FNDA:2,_ZNSt15__uniq_ptr_implIN7testing8internal16DeathTestFactoryESt14default_deleteIS2_EE6_M_ptrEv
FN:173,_ZNKSt15__uniq_ptr_implIN7testing8internal11ThreadLocalIPNS0_31TestPartResultReporterInterfaceEE18ValueHolderFactoryESt14default_deleteIS6_EE6_M_ptrEv
FNDA:0,_ZNKSt15__uniq_ptr_implIN7testing8internal11ThreadLocalIPNS0_31TestPartResultReporterInterfaceEE18ValueHolderFactoryESt14default_deleteIS6_EE6_M_ptrEv
FN:173,_ZNKSt15__uniq_ptr_implINSt7__cxx1118basic_stringstreamIcSt11char_traitsIcESaIcEEESt14default_deleteIS5_EE6_M_ptrEv
FNDA:0,_ZNKSt15__uniq_ptr_implINSt7__cxx1118basic_stringstreamIcSt11char_traitsIcESaIcEEESt14default_deleteIS5_EE6_M_ptrEv
FN:173,_ZNKSt15__uniq_ptr_implIN7testing8internal24InternalRunDeathTestFlagESt14default_deleteIS2_EE6_M_ptrEv
FNDA:2,_ZNKSt15__uniq_ptr_implIN7testing8internal24InternalRunDeathTestFlagESt14default_deleteIS2_EE6_M_ptrEv
FN:173,_ZNKSt15__uniq_ptr_implIN7testing8internal17StreamingListener20AbstractSocketWriterESt14default_deleteIS3_EE6_M_ptrEv
FNDA:0,_ZNKSt15__uniq_ptr_implIN7testing8internal17StreamingListener20AbstractSocketWriterESt14default_deleteIS3_EE6_M_ptrEv
FN:173,_ZNKSt15__uniq_ptr_implIN7testing8internal11ThreadLocalISt6vectorINS1_9TraceInfoESaIS4_EEE18ValueHolderFactoryESt14default_deleteIS8_EE6_M_ptrEv
FNDA:0,_ZNKSt15__uniq_ptr_implIN7testing8internal11ThreadLocalISt6vectorINS1_9TraceInfoESaIS4_EEE18ValueHolderFactoryESt14default_deleteIS8_EE6_M_ptrEv
FN:173,_ZNKSt15__uniq_ptr_implIKNSt7__cxx1112basic_stringIcSt11char_traitsIcESaIcEEESt14default_deleteIS6_EE6_M_ptrEv
FNDA:22,_ZNKSt15__uniq_ptr_implIKNSt7__cxx1112basic_stringIcSt11char_traitsIcESaIcEEESt14default_deleteIS6_EE6_M_ptrEv
FN:173,_ZNKSt15__uniq_ptr_implINSt7__cxx1112basic_stringIcSt11char_traitsIcESaIcEEESt14default_deleteIS5_EE6_M_ptrEv
FNDA:0,_ZNKSt15__uniq_ptr_implINSt7__cxx1112basic_stringIcSt11char_traitsIcESaIcEEESt14default_deleteIS5_EE6_M_ptrEv
FN:174,_ZNSt15__uniq_ptr_implIKNSt7__cxx1112basic_stringIcSt11char_traitsIcESaIcEEESt14default_deleteIS6_EE10_M_deleterEv
FNDA:0,_ZNSt15__uniq_ptr_implIKNSt7__cxx1112basic_stringIcSt11char_traitsIcESaIcEEESt14default_deleteIS6_EE10_M_deleterEv
FN:174,_ZNSt15__uniq_ptr_implIN7testing8internal14GTestFlagSaverESt14default_deleteIS2_EE10_M_deleterEv
FNDA:20,_ZNSt15__uniq_ptr_implIN7testing8internal14GTestFlagSaverESt14default_deleteIS2_EE10_M_deleterEv
FN:174,_ZNSt15__uniq_ptr_implIN7testing8internal17StreamingListener20AbstractSocketWriterESt14default_deleteIS3_EE10_M_deleterEv
FNDA:0,_ZNSt15__uniq_ptr_implIN7testing8internal17StreamingListener20AbstractSocketWriterESt14default_deleteIS3_EE10_M_deleterEv
FN:174,_ZNSt15__uniq_ptr_implIN7testing8internal24InternalRunDeathTestFlagESt14default_deleteIS2_EE10_M_deleterEv
FNDA:0,_ZNSt15__uniq_ptr_implIN7testing8internal24InternalRunDeathTestFlagESt14default_deleteIS2_EE10_M_deleterEv
FN:174,_ZNSt15__uniq_ptr_implINSt7__cxx1118basic_stringstreamIcSt11char_traitsIcESaIcEEESt14default_deleteIS5_EE10_M_deleterEv
FNDA:0,_ZNSt15__uniq_ptr_implINSt7__cxx1118basic_stringstreamIcSt11char_traitsIcESaIcEEESt14default_deleteIS5_EE10_M_deleterEv
FN:174,_ZNSt15__uniq_ptr_implIN7testing8internal11ThreadLocalIPNS0_31TestPartResultReporterInterfaceEE18ValueHolderFactoryESt14default_deleteIS6_EE10_M_deleterEv
FNDA:1,_ZNSt15__uniq_ptr_implIN7testing8internal11ThreadLocalIPNS0_31TestPartResultReporterInterfaceEE18ValueHolderFactoryESt14default_deleteIS6_EE10_M_deleterEv
FN:174,_ZNSt15__uniq_ptr_implIN7testing8internal11ThreadLocalISt6vectorINS1_9TraceInfoESaIS4_EEE18ValueHolderFactoryESt14default_deleteIS8_EE10_M_deleterEv
FNDA:1,_ZNSt15__uniq_ptr_implIN7testing8internal11ThreadLocalISt6vectorINS1_9TraceInfoESaIS4_EEE18ValueHolderFactoryESt14default_deleteIS8_EE10_M_deleterEv
FN:174,_ZNSt15__uniq_ptr_implIN7testing8internal16DeathTestFactoryESt14default_deleteIS2_EE10_M_deleterEv
FNDA:1,_ZNSt15__uniq_ptr_implIN7testing8internal16DeathTestFactoryESt14default_deleteIS2_EE10_M_deleterEv
FN:174,_ZNSt15__uniq_ptr_implINSt7__cxx1112basic_stringIcSt11char_traitsIcESaIcEEESt14default_deleteIS5_EE10_M_deleterEv
FNDA:0,_ZNSt15__uniq_ptr_implINSt7__cxx1112basic_stringIcSt11char_traitsIcESaIcEEESt14default_deleteIS5_EE10_M_deleterEv
FN:177,_ZNSt15__uniq_ptr_implINSt7__cxx1112basic_stringIcSt11char_traitsIcESaIcEEESt14default_deleteIS5_EE5resetEPS5_
FNDA:0,_ZNSt15__uniq_ptr_implINSt7__cxx1112basic_stringIcSt11char_traitsIcESaIcEEESt14default_deleteIS5_EE5resetEPS5_
FN:177,_ZNSt15__uniq_ptr_implIN7testing8internal24InternalRunDeathTestFlagESt14default_deleteIS2_EE5resetEPS2_
FNDA:1,_ZNSt15__uniq_ptr_implIN7testing8internal24InternalRunDeathTestFlagESt14default_deleteIS2_EE5resetEPS2_
FN:185,_ZNSt15__uniq_ptr_implINSt7__cxx1112basic_stringIcSt11char_traitsIcESaIcEEESt14default_deleteIS5_EE7releaseEv
FNDA:0,_ZNSt15__uniq_ptr_implINSt7__cxx1112basic_stringIcSt11char_traitsIcESaIcEEESt14default_deleteIS5_EE7releaseEv
FN:212,_ZNSt15__uniq_ptr_dataINSt7__cxx1112basic_stringIcSt11char_traitsIcESaIcEEESt14default_deleteIS5_ELb1ELb1EEaSEOS8_
FNDA:0,_ZNSt15__uniq_ptr_dataINSt7__cxx1112basic_stringIcSt11char_traitsIcESaIcEEESt14default_deleteIS5_ELb1ELb1EEaSEOS8_
FN:269,_ZNSt10unique_ptrIN7testing8internal24InternalRunDeathTestFlagESt14default_deleteIS2_EEC2IS4_vEEv
FNDA:1,_ZNSt10unique_ptrIN7testing8internal24InternalRunDeathTestFlagESt14default_deleteIS2_EEC2IS4_vEEv
FN:281,_ZNSt10unique_ptrINSt7__cxx1112basic_stringIcSt11char_traitsIcESaIcEEESt14default_deleteIS5_EEC2IS7_vEEPS5_
FNDA:0,_ZNSt10unique_ptrINSt7__cxx1112basic_stringIcSt11char_traitsIcESaIcEEESt14default_deleteIS5_EEC2IS7_vEEPS5_
FN:281,_ZNSt10unique_ptrIN7testing8internal14GTestFlagSaverESt14default_deleteIS2_EEC2IS4_vEEPS2_
FNDA:20,_ZNSt10unique_ptrIN7testing8internal14GTestFlagSaverESt14default_deleteIS2_EEC2IS4_vEEPS2_
FN:281,_ZNSt10unique_ptrIKNSt7__cxx1112basic_stringIcSt11char_traitsIcESaIcEEESt14default_deleteIS6_EEC2IS8_vEEPS6_
FNDA:42,_ZNSt10unique_ptrIKNSt7__cxx1112basic_stringIcSt11char_traitsIcESaIcEEESt14default_deleteIS6_EEC2IS8_vEEPS6_
FN:281,_ZNSt10unique_ptrIN7testing8internal16DeathTestFactoryESt14default_deleteIS2_EEC2IS4_vEEPS2_
FNDA:1,_ZNSt10unique_ptrIN7testing8internal16DeathTestFactoryESt14default_deleteIS2_EEC2IS4_vEEPS2_
FN:281,_ZNSt10unique_ptrIN7testing8internal11ThreadLocalISt6vectorINS1_9TraceInfoESaIS4_EEE18ValueHolderFactoryESt14default_deleteIS8_EEC2ISA_vEEPS8_
FNDA:1,_ZNSt10unique_ptrIN7testing8internal11ThreadLocalISt6vectorINS1_9TraceInfoESaIS4_EEE18ValueHolderFactoryESt14default_deleteIS8_EEC2ISA_vEEPS8_
FN:281,_ZNSt10unique_ptrIN7testing8internal17StreamingListener20AbstractSocketWriterESt14default_deleteIS3_EEC2IS5_vEEPS3_
FNDA:0,_ZNSt10unique_ptrIN7testing8internal17StreamingListener20AbstractSocketWriterESt14default_deleteIS3_EEC2IS5_vEEPS3_
FN:281,_ZNSt10unique_ptrINSt7__cxx1118basic_stringstreamIcSt11char_traitsIcESaIcEEESt14default_deleteIS5_EEC2IS7_vEEPS5_
FNDA:75,_ZNSt10unique_ptrINSt7__cxx1118basic_stringstreamIcSt11char_traitsIcESaIcEEESt14default_deleteIS5_EEC2IS7_vEEPS5_
FN:281,_ZNSt10unique_ptrIN7testing8internal11ThreadLocalIPNS0_31TestPartResultReporterInterfaceEE18ValueHolderFactoryESt14default_deleteIS6_EEC2IS8_vEEPS6_
FNDA:1,_ZNSt10unique_ptrIN7testing8internal11ThreadLocalIPNS0_31TestPartResultReporterInterfaceEE18ValueHolderFactoryESt14default_deleteIS6_EEC2IS8_vEEPS6_
FN:355,_ZNSt10unique_ptrIKNSt7__cxx1112basic_stringIcSt11char_traitsIcESaIcEEESt14default_deleteIS6_EED2Ev
FNDA:42,_ZNSt10unique_ptrIKNSt7__cxx1112basic_stringIcSt11char_traitsIcESaIcEEESt14default_deleteIS6_EED2Ev
FN:355,_ZNSt10unique_ptrIN7testing8internal24InternalRunDeathTestFlagESt14default_deleteIS2_EED2Ev
FNDA:1,_ZNSt10unique_ptrIN7testing8internal24InternalRunDeathTestFlagESt14default_deleteIS2_EED2Ev
FN:355,_ZNSt10unique_ptrIN7testing8internal11ThreadLocalISt6vectorINS1_9TraceInfoESaIS4_EEE18ValueHolderFactoryESt14default_deleteIS8_EED2Ev
FNDA:1,_ZNSt10unique_ptrIN7testing8internal11ThreadLocalISt6vectorINS1_9TraceInfoESaIS4_EEE18ValueHolderFactoryESt14default_deleteIS8_EED2Ev
FN:355,_ZNSt10unique_ptrIN7testing8internal16DeathTestFactoryESt14default_deleteIS2_EED2Ev
FNDA:1,_ZNSt10unique_ptrIN7testing8internal16DeathTestFactoryESt14default_deleteIS2_EED2Ev
FN:355,_ZNSt10unique_ptrINSt7__cxx1118basic_stringstreamIcSt11char_traitsIcESaIcEEESt14default_deleteIS5_EED2Ev
FNDA:0,_ZNSt10unique_ptrINSt7__cxx1118basic_stringstreamIcSt11char_traitsIcESaIcEEESt14default_deleteIS5_EED2Ev
FN:355,_ZNSt10unique_ptrIN7testing8internal11ThreadLocalIPNS0_31TestPartResultReporterInterfaceEE18ValueHolderFactoryESt14default_deleteIS6_EED2Ev
FNDA:1,_ZNSt10unique_ptrIN7testing8internal11ThreadLocalIPNS0_31TestPartResultReporterInterfaceEE18ValueHolderFactoryESt14default_deleteIS6_EED2Ev
FN:355,_ZNSt10unique_ptrIN7testing8internal14GTestFlagSaverESt14default_deleteIS2_EED2Ev
FNDA:20,_ZNSt10unique_ptrIN7testing8internal14GTestFlagSaverESt14default_deleteIS2_EED2Ev
FN:355,_ZNSt10unique_ptrINSt7__cxx1112basic_stringIcSt11char_traitsIcESaIcEEESt14default_deleteIS5_EED2Ev
FNDA:0,_ZNSt10unique_ptrINSt7__cxx1112basic_stringIcSt11char_traitsIcESaIcEEESt14default_deleteIS5_EED2Ev
FN:355,_ZNSt10unique_ptrIN7testing8internal17StreamingListener20AbstractSocketWriterESt14default_deleteIS3_EED2Ev
FNDA:0,_ZNSt10unique_ptrIN7testing8internal17StreamingListener20AbstractSocketWriterESt14default_deleteIS3_EED2Ev
FN:371,_ZNSt10unique_ptrINSt7__cxx1112basic_stringIcSt11char_traitsIcESaIcEEESt14default_deleteIS5_EEaSEOS8_
FNDA:0,_ZNSt10unique_ptrINSt7__cxx1112basic_stringIcSt11char_traitsIcESaIcEEESt14default_deleteIS5_EEaSEOS8_
FN:405,_ZNKSt10unique_ptrINSt7__cxx1118basic_stringstreamIcSt11char_traitsIcESaIcEEESt14default_deleteIS5_EEdeEv
FNDA:0,_ZNKSt10unique_ptrINSt7__cxx1118basic_stringstreamIcSt11char_traitsIcESaIcEEESt14default_deleteIS5_EEdeEv
FN:413,_ZNKSt10unique_ptrIN7testing8internal11ThreadLocalISt6vectorINS1_9TraceInfoESaIS4_EEE18ValueHolderFactoryESt14default_deleteIS8_EEptEv
FNDA:0,_ZNKSt10unique_ptrIN7testing8internal11ThreadLocalISt6vectorINS1_9TraceInfoESaIS4_EEE18ValueHolderFactoryESt14default_deleteIS8_EEptEv
FN:413,_ZNKSt10unique_ptrIN7testing8internal11ThreadLocalIPNS0_31TestPartResultReporterInterfaceEE18ValueHolderFactoryESt14default_deleteIS6_EEptEv
FNDA:0,_ZNKSt10unique_ptrIN7testing8internal11ThreadLocalIPNS0_31TestPartResultReporterInterfaceEE18ValueHolderFactoryESt14default_deleteIS6_EEptEv
FN:413,_ZNKSt10unique_ptrIN7testing8internal17StreamingListener20AbstractSocketWriterESt14default_deleteIS3_EEptEv
FNDA:0,_ZNKSt10unique_ptrIN7testing8internal17StreamingListener20AbstractSocketWriterESt14default_deleteIS3_EEptEv
FN:413,_ZNKSt10unique_ptrINSt7__cxx1112basic_stringIcSt11char_traitsIcESaIcEEESt14default_deleteIS5_EEptEv
FNDA:0,_ZNKSt10unique_ptrINSt7__cxx1112basic_stringIcSt11char_traitsIcESaIcEEESt14default_deleteIS5_EEptEv
FN:413,_ZNKSt10unique_ptrIKNSt7__cxx1112basic_stringIcSt11char_traitsIcESaIcEEESt14default_deleteIS6_EEptEv
FNDA:0,_ZNKSt10unique_ptrIKNSt7__cxx1112basic_stringIcSt11char_traitsIcESaIcEEESt14default_deleteIS6_EEptEv
FN:421,_ZNKSt10unique_ptrINSt7__cxx1118basic_stringstreamIcSt11char_traitsIcESaIcEEESt14default_deleteIS5_EE3getEv
FNDA:0,_ZNKSt10unique_ptrINSt7__cxx1118basic_stringstreamIcSt11char_traitsIcESaIcEEESt14default_deleteIS5_EE3getEv
FN:421,_ZNKSt10unique_ptrIN7testing8internal24InternalRunDeathTestFlagESt14default_deleteIS2_EE3getEv
FNDA:2,_ZNKSt10unique_ptrIN7testing8internal24InternalRunDeathTestFlagESt14default_deleteIS2_EE3getEv
FN:421,_ZNKSt10unique_ptrIN7testing8internal11ThreadLocalIPNS0_31TestPartResultReporterInterfaceEE18ValueHolderFactoryESt14default_deleteIS6_EE3getEv
FNDA:0,_ZNKSt10unique_ptrIN7testing8internal11ThreadLocalIPNS0_31TestPartResultReporterInterfaceEE18ValueHolderFactoryESt14default_deleteIS6_EE3getEv
FN:421,_ZNKSt10unique_ptrIN7testing8internal11ThreadLocalISt6vectorINS1_9TraceInfoESaIS4_EEE18ValueHolderFactoryESt14default_deleteIS8_EE3getEv
FNDA:0,_ZNKSt10unique_ptrIN7testing8internal11ThreadLocalISt6vectorINS1_9TraceInfoESaIS4_EEE18ValueHolderFactoryESt14default_deleteIS8_EE3getEv
FN:421,_ZNKSt10unique_ptrINSt7__cxx1112basic_stringIcSt11char_traitsIcESaIcEEESt14default_deleteIS5_EE3getEv
FNDA:0,_ZNKSt10unique_ptrINSt7__cxx1112basic_stringIcSt11char_traitsIcESaIcEEESt14default_deleteIS5_EE3getEv
FN:421,_ZNKSt10unique_ptrIKNSt7__cxx1112basic_stringIcSt11char_traitsIcESaIcEEESt14default_deleteIS6_EE3getEv
FNDA:22,_ZNKSt10unique_ptrIKNSt7__cxx1112basic_stringIcSt11char_traitsIcESaIcEEESt14default_deleteIS6_EE3getEv
FN:421,_ZNKSt10unique_ptrIN7testing8internal17StreamingListener20AbstractSocketWriterESt14default_deleteIS3_EE3getEv
FNDA:0,_ZNKSt10unique_ptrIN7testing8internal17StreamingListener20AbstractSocketWriterESt14default_deleteIS3_EE3getEv
FN:426,_ZNSt10unique_ptrIN7testing8internal14GTestFlagSaverESt14default_deleteIS2_EE11get_deleterEv
FNDA:20,_ZNSt10unique_ptrIN7testing8internal14GTestFlagSaverESt14default_deleteIS2_EE11get_deleterEv
FN:426,_ZNSt10unique_ptrIN7testing8internal11ThreadLocalISt6vectorINS1_9TraceInfoESaIS4_EEE18ValueHolderFactoryESt14default_deleteIS8_EE11get_deleterEv
FNDA:1,_ZNSt10unique_ptrIN7testing8internal11ThreadLocalISt6vectorINS1_9TraceInfoESaIS4_EEE18ValueHolderFactoryESt14default_deleteIS8_EE11get_deleterEv
FN:426,_ZNSt10unique_ptrIN7testing8internal11ThreadLocalIPNS0_31TestPartResultReporterInterfaceEE18ValueHolderFactoryESt14default_deleteIS6_EE11get_deleterEv
FNDA:1,_ZNSt10unique_ptrIN7testing8internal11ThreadLocalIPNS0_31TestPartResultReporterInterfaceEE18ValueHolderFactoryESt14default_deleteIS6_EE11get_deleterEv
FN:426,_ZNSt10unique_ptrIN7testing8internal16DeathTestFactoryESt14default_deleteIS2_EE11get_deleterEv
FNDA:1,_ZNSt10unique_ptrIN7testing8internal16DeathTestFactoryESt14default_deleteIS2_EE11get_deleterEv
FN:426,_ZNSt10unique_ptrIN7testing8internal24InternalRunDeathTestFlagESt14default_deleteIS2_EE11get_deleterEv
FNDA:0,_ZNSt10unique_ptrIN7testing8internal24InternalRunDeathTestFlagESt14default_deleteIS2_EE11get_deleterEv
FN:426,_ZNSt10unique_ptrIKNSt7__cxx1112basic_stringIcSt11char_traitsIcESaIcEEESt14default_deleteIS6_EE11get_deleterEv
FNDA:0,_ZNSt10unique_ptrIKNSt7__cxx1112basic_stringIcSt11char_traitsIcESaIcEEESt14default_deleteIS6_EE11get_deleterEv
FN:426,_ZNSt10unique_ptrIN7testing8internal17StreamingListener20AbstractSocketWriterESt14default_deleteIS3_EE11get_deleterEv
FNDA:0,_ZNSt10unique_ptrIN7testing8internal17StreamingListener20AbstractSocketWriterESt14default_deleteIS3_EE11get_deleterEv
FN:426,_ZNSt10unique_ptrINSt7__cxx1112basic_stringIcSt11char_traitsIcESaIcEEESt14default_deleteIS5_EE11get_deleterEv
FNDA:0,_ZNSt10unique_ptrINSt7__cxx1112basic_stringIcSt11char_traitsIcESaIcEEESt14default_deleteIS5_EE11get_deleterEv
FN:426,_ZNSt10unique_ptrINSt7__cxx1118basic_stringstreamIcSt11char_traitsIcESaIcEEESt14default_deleteIS5_EE11get_deleterEv
FNDA:0,_ZNSt10unique_ptrINSt7__cxx1118basic_stringstreamIcSt11char_traitsIcESaIcEEESt14default_deleteIS5_EE11get_deleterEv
FN:435,_ZNKSt10unique_ptrIKNSt7__cxx1112basic_stringIcSt11char_traitsIcESaIcEEESt14default_deleteIS6_EEcvbEv
FNDA:22,_ZNKSt10unique_ptrIKNSt7__cxx1112basic_stringIcSt11char_traitsIcESaIcEEESt14default_deleteIS6_EEcvbEv
FN:435,_ZNKSt10unique_ptrIN7testing8internal24InternalRunDeathTestFlagESt14default_deleteIS2_EEcvbEv
FNDA:2,_ZNKSt10unique_ptrIN7testing8internal24InternalRunDeathTestFlagESt14default_deleteIS2_EEcvbEv
FN:435,_ZNKSt10unique_ptrINSt7__cxx1112basic_stringIcSt11char_traitsIcESaIcEEESt14default_deleteIS5_EEcvbEv
FNDA:0,_ZNKSt10unique_ptrINSt7__cxx1112basic_stringIcSt11char_traitsIcESaIcEEESt14default_deleteIS5_EEcvbEv
FN:452,_ZNSt10unique_ptrIN7testing8internal24InternalRunDeathTestFlagESt14default_deleteIS2_EE5resetEPS2_
FNDA:1,_ZNSt10unique_ptrIN7testing8internal24InternalRunDeathTestFlagESt14default_deleteIS2_EE5resetEPS2_
FN:760,_ZSteqINSt7__cxx1112basic_stringIcSt11char_traitsIcESaIcEEESt14default_deleteIS5_EEbRKSt10unique_ptrIT_T0_EDn
FNDA:0,_ZSteqINSt7__cxx1112basic_stringIcSt11char_traitsIcESaIcEEESt14default_deleteIS5_EEbRKSt10unique_ptrIT_T0_EDn
FN:781,_ZStneIKNSt7__cxx1112basic_stringIcSt11char_traitsIcESaIcEEESt14default_deleteIS6_EEbRKSt10unique_ptrIT_T0_EDn
FNDA:22,_ZStneIKNSt7__cxx1112basic_stringIcSt11char_traitsIcESaIcEEESt14default_deleteIS6_EEbRKSt10unique_ptrIT_T0_EDn
FN:781,_ZStneIN7testing8internal24InternalRunDeathTestFlagESt14default_deleteIS2_EEbRKSt10unique_ptrIT_T0_EDn
FNDA:2,_ZStneIN7testing8internal24InternalRunDeathTestFlagESt14default_deleteIS2_EEbRKSt10unique_ptrIT_T0_EDn
FN:781,_ZStneINSt7__cxx1112basic_stringIcSt11char_traitsIcESaIcEEESt14default_deleteIS5_EEbRKSt10unique_ptrIT_T0_EDn
FNDA:0,_ZStneINSt7__cxx1112basic_stringIcSt11char_traitsIcESaIcEEESt14default_deleteIS5_EEbRKSt10unique_ptrIT_T0_EDn
FN:961,_ZSt11make_uniqueINSt7__cxx1112basic_stringIcSt11char_traitsIcESaIcEEEJEENSt9_MakeUniqIT_E15__single_objectEDpOT0_
FNDA:0,_ZSt11make_uniqueINSt7__cxx1112basic_stringIcSt11char_traitsIcESaIcEEEJEENSt9_MakeUniqIT_E15__single_objectEDpOT0_
DA:79,1
DA:85,1
DA:86,1
DA:79,1
DA:85,1
DA:86,1
DA:79,1
DA:85,1
DA:86,1
DA:79,0
DA:85,0
DA:86,0
DA:79,0
DA:85,0
DA:86,0
DA:79,20
DA:85,20
DA:86,20
DA:79,0
DA:85,0
DA:86,0
DA:79,0
DA:85,0
DA:86,0
DA:79,0
DA:85,0
DA:86,0
DA:154,1
DA:155,1
DA:155,1
DA:155,0
DA:155,1
DA:155,42
DA:155,20
DA:155,0
DA:155,75
DA:165,0
DA:167,0
DA:168,0
DA:169,0
DA:172,2
DA:172,2
DA:172,2
DA:172,3
DA:172,84
DA:172,40
DA:172,0
DA:172,0
DA:172,0
DA:173,0
DA:173,0
DA:173,0
DA:173,22
DA:173,0
DA:173,0
DA:173,2
DA:174,1
DA:174,1
DA:174,1
DA:174,0
DA:174,20
DA:174,0
DA:174,0
DA:174,0
DA:174,0
DA:177,1
DA:179,1
DA:180,1
DA:181,1
DA:182,0
DA:183,1
DA:177,0
DA:179,0
DA:180,0
DA:181,0
DA:182,0
DA:183,0
DA:185,0
DA:187,0
DA:188,0
DA:189,0
DA:212,0
DA:269,1
DA:270,1
DA:271,1
DA:281,1
DA:282,1
DA:283,1
DA:281,1
DA:282,1
DA:283,1
DA:281,0
DA:282,0
DA:283,0
DA:281,1
DA:282,1
DA:283,1
DA:281,42
DA:282,42
DA:283,42
DA:281,20
DA:282,20
DA:283,20
DA:281,0
DA:282,0
DA:283,0
DA:281,75
DA:282,75
DA:283,75
DA:355,1
DA:359,1
DA:360,1
DA:361,1
DA:362,1
DA:363,1
DA:355,1
DA:359,1
DA:360,1
DA:361,1
DA:362,1
DA:363,1
DA:355,1
DA:359,1
DA:360,1
DA:361,1
DA:362,1
DA:363,1
DA:355,1
DA:359,1
DA:360,1
DA:361,0
DA:362,1
DA:363,1
DA:355,42
DA:359,42
DA:360,42
DA:361,0
DA:362,42
DA:363,42
DA:355,20
DA:359,20
DA:360,20
DA:361,20
DA:362,20
DA:363,20
DA:355,0
DA:359,0
DA:360,0
DA:361,0
DA:362,0
DA:363,0
DA:355,0
DA:359,0
DA:360,0
DA:361,0
DA:362,0
DA:363,0
DA:355,0
DA:359,0
DA:360,0
DA:361,0
DA:362,0
DA:363,0
DA:371,0
DA:405,0
DA:407,0
DA:408,0
DA:413,0
DA:416,0
DA:413,0
DA:416,0
DA:413,0
DA:416,0
DA:413,0
DA:416,0
DA:413,0
DA:416,0
DA:421,0
DA:422,0
DA:421,0
DA:422,0
DA:421,0
DA:422,0
DA:421,22
DA:422,22
DA:421,0
DA:422,0
DA:421,0
DA:422,0
DA:421,2
DA:422,2
DA:426,1
DA:427,1
DA:426,1
DA:427,1
DA:426,1
DA:427,1
DA:426,0
DA:427,0
DA:426,0
DA:427,0
DA:426,20
DA:427,20
DA:426,0
DA:427,0
DA:426,0
DA:427,0
DA:426,0
DA:427,0
DA:435,2
DA:436,2
DA:435,22
DA:436,22
DA:435,0
DA:436,0
DA:452,1
DA:456,1
DA:457,1
DA:760,0
DA:761,0
DA:781,2
DA:782,2
DA:781,22
DA:782,22
DA:781,0
DA:782,0
DA:961,0
DA:962,0
end_of_record
SF:/usr/include/c++/11/bits/ios_base.h
FN:83,_ZStanSt13_Ios_FmtflagsS_
FNDA:0,_ZStanSt13_Ios_FmtflagsS_
FN:87,_ZStorSt13_Ios_FmtflagsS_
FNDA:0,_ZStorSt13_Ios_FmtflagsS_
FN:95,_ZStcoSt13_Ios_Fmtflags
FNDA:0,_ZStcoSt13_Ios_Fmtflags
FN:99,_ZStoRRSt13_Ios_FmtflagsS_
FNDA:0,_ZStoRRSt13_Ios_FmtflagsS_
FN:103,_ZStaNRSt13_Ios_FmtflagsS_
FNDA:0,_ZStaNRSt13_Ios_FmtflagsS_
FN:676,_ZNSt8ios_base4setfESt13_Ios_Fmtflags
FNDA:0,_ZNSt8ios_base4setfESt13_Ios_Fmtflags
FN:693,_ZNSt8ios_base4setfESt13_Ios_FmtflagsS0_
FNDA:0,_ZNSt8ios_base4setfESt13_Ios_FmtflagsS0_
FN:940,_ZSt9showpointRSt8ios_base
FNDA:0,_ZSt9showpointRSt8ios_base
FN:988,_ZSt9uppercaseRSt8ios_base
FNDA:0,_ZSt9uppercaseRSt8ios_base
FN:1054,_ZSt3hexRSt8ios_base
FNDA:0,_ZSt3hexRSt8ios_base
FN:1071,_ZSt5fixedRSt8ios_base
FNDA:0,_ZSt5fixedRSt8ios_base
DA:83,0
DA:84,0
DA:87,0
DA:88,0
DA:95,0
DA:96,0
DA:99,0
DA:100,0
DA:103,0
DA:104,0
DA:676,0
DA:678,0
DA:679,0
DA:680,0
DA:693,0
DA:695,0
DA:696,0
DA:697,0
DA:698,0
DA:940,0
DA:942,0
DA:943,0
DA:988,0
DA:990,0
DA:991,0
DA:1054,0
DA:1056,0
DA:1057,0
DA:1071,0
DA:1073,0
DA:1074,0
end_of_record
SF:/home/jlaustill/repo/sea-dash/.pio/libdeps/latest_stable/googletest/googletest/include/gtest/internal/gtest-death-test-internal.h
FN:277,_ZN7testing8internal24InternalRunDeathTestFlagD2Ev
FNDA:0,_ZN7testing8internal24InternalRunDeathTestFlagD2Ev
DA:277,0
DA:278,0
DA:279,0
end_of_record
SF:/home/jlaustill/repo/sea-dash/.pio/libdeps/latest_stable/googletest/googletest/include/gtest/gtest-printers.h
FN:696,_ZN7testing8internal7PrintToERKNSt7__cxx1112basic_stringIcSt11char_traitsIcESaIcEEEPSo
FNDA:0,_ZN7testing8internal7PrintToERKNSt7__cxx1112basic_stringIcSt11char_traitsIcESaIcEEEPSo
FN:723,_ZN7testing8internal7PrintToERKNSt7__cxx1112basic_stringIwSt11char_traitsIwESaIwEEEPSo
FNDA:0,_ZN7testing8internal7PrintToERKNSt7__cxx1112basic_stringIwSt11char_traitsIwESaIwEEEPSo
FN:835,_ZN7testing8internal16UniversalPrinterINSt7__cxx1112basic_stringIwSt11char_traitsIwESaIwEEEE5PrintERKS7_PSo
FNDA:0,_ZN7testing8internal16UniversalPrinterINSt7__cxx1112basic_stringIwSt11char_traitsIwESaIwEEEE5PrintERKS7_PSo
FN:835,_ZN7testing8internal16UniversalPrinterINSt7__cxx1112basic_stringIcSt11char_traitsIcESaIcEEEE5PrintERKS7_PSo
FNDA:0,_ZN7testing8internal16UniversalPrinterINSt7__cxx1112basic_stringIcSt11char_traitsIcESaIcEEEE5PrintERKS7_PSo
FN:1053,_ZN7testing8internal21UniversalTersePrinterIPKcE5PrintES3_PSo
FNDA:0,_ZN7testing8internal21UniversalTersePrinterIPKcE5PrintES3_PSo
FN:1116,_ZN7testing8internal21UniversalTersePrinterIPKwE5PrintES3_PSo
FNDA:0,_ZN7testing8internal21UniversalTersePrinterIPKwE5PrintES3_PSo
FN:1144,_ZN7testing8internal14UniversalPrintINSt7__cxx1112basic_stringIwSt11char_traitsIwESaIwEEEEEvRKT_PSo
FNDA:0,_ZN7testing8internal14UniversalPrintINSt7__cxx1112basic_stringIwSt11char_traitsIwESaIwEEEEEvRKT_PSo
FN:1144,_ZN7testing8internal14UniversalPrintINSt7__cxx1112basic_stringIcSt11char_traitsIcESaIcEEEEEvRKT_PSo
FNDA:0,_ZN7testing8internal14UniversalPrintINSt7__cxx1112basic_stringIcSt11char_traitsIcESaIcEEEEEvRKT_PSo
FN:1184,_ZN7testing13PrintToStringIPKwEENSt7__cxx1112basic_stringIcSt11char_traitsIcESaIcEEERKT_
FNDA:0,_ZN7testing13PrintToStringIPKwEENSt7__cxx1112basic_stringIcSt11char_traitsIcESaIcEEERKT_
FN:1184,_ZN7testing13PrintToStringIPKcEENSt7__cxx1112basic_stringIcSt11char_traitsIcESaIcEEERKT_
FNDA:0,_ZN7testing13PrintToStringIPKcEENSt7__cxx1112basic_stringIcSt11char_traitsIcESaIcEEERKT_
DA:696,0
DA:697,0
DA:698,0
DA:723,0
DA:724,0
DA:725,0
DA:835,0
DA:844,0
DA:845,0
DA:835,0
DA:844,0
DA:845,0
DA:1053,0
DA:1054,0
DA:1055,0
DA:1057,0
DA:1059,0
DA:1116,0
DA:1117,0
DA:1118,0
DA:1120,0
DA:1122,0
DA:1144,0
DA:1148,0
DA:1149,0
DA:1144,0
DA:1148,0
DA:1149,0
DA:1184,0
DA:1185,0
DA:1186,0
DA:1187,0
DA:1188,0
DA:1184,0
DA:1185,0
DA:1186,0
DA:1187,0
DA:1188,0
end_of_record
SF:/usr/include/c++/11/bits/stl_tempbuf.h
FN:70,_ZNSt8__detail25__return_temporary_bufferIPN7testing8TestInfoEEEvPT_m
FNDA:2,_ZNSt8__detail25__return_temporary_bufferIPN7testing8TestInfoEEEvPT_m
FN:100,_ZSt20get_temporary_bufferIPN7testing8TestInfoEESt4pairIPT_lEl
FNDA:2,_ZSt20get_temporary_bufferIPN7testing8TestInfoEESt4pairIPT_lEl
FN:155,_ZNKSt17_Temporary_bufferIN9__gnu_cxx17__normal_iteratorIPPN7testing8TestInfoESt6vectorIS4_SaIS4_EEEES4_E4sizeEv
FNDA:2,_ZNKSt17_Temporary_bufferIN9__gnu_cxx17__normal_iteratorIPPN7testing8TestInfoESt6vectorIS4_SaIS4_EEEES4_E4sizeEv
FN:165,_ZNSt17_Temporary_bufferIN9__gnu_cxx17__normal_iteratorIPPN7testing8TestInfoESt6vectorIS4_SaIS4_EEEES4_E5beginEv
FNDA:4,_ZNSt17_Temporary_bufferIN9__gnu_cxx17__normal_iteratorIPPN7testing8TestInfoESt6vectorIS4_SaIS4_EEEES4_E5beginEv
FN:179,_ZNSt17_Temporary_bufferIN9__gnu_cxx17__normal_iteratorIPPN7testing8TestInfoESt6vectorIS4_SaIS4_EEEES4_ED2Ev
FNDA:2,_ZNSt17_Temporary_bufferIN9__gnu_cxx17__normal_iteratorIPPN7testing8TestInfoESt6vectorIS4_SaIS4_EEEES4_ED2Ev
FN:230,_ZNSt38__uninitialized_construct_buf_dispatchILb1EE5__ucrIPPN7testing8TestInfoEN9__gnu_cxx17__normal_iteratorIS5_St6vectorIS4_SaIS4_EEEEEEvT_SC_T0_
FNDA:2,_ZNSt38__uninitialized_construct_buf_dispatchILb1EE5__ucrIPPN7testing8TestInfoEN9__gnu_cxx17__normal_iteratorIS5_St6vectorIS4_SaIS4_EEEEEEvT_SC_T0_
FN:245,_ZSt29__uninitialized_construct_bufIPPN7testing8TestInfoEN9__gnu_cxx17__normal_iteratorIS3_St6vectorIS2_SaIS2_EEEEEvT_SA_T0_
FNDA:2,_ZSt29__uninitialized_construct_bufIPPN7testing8TestInfoEN9__gnu_cxx17__normal_iteratorIS3_St6vectorIS2_SaIS2_EEEEEvT_SA_T0_
FN:257,_ZNSt17_Temporary_bufferIN9__gnu_cxx17__normal_iteratorIPPN7testing8TestInfoESt6vectorIS4_SaIS4_EEEES4_EC2ES9_l
FNDA:2,_ZNSt17_Temporary_bufferIN9__gnu_cxx17__normal_iteratorIPPN7testing8TestInfoESt6vectorIS4_SaIS4_EEEES4_EC2ES9_l
DA:70,2
DA:74,2
DA:78,2
DA:100,2
DA:102,2
DA:104,2
DA:105,0
DA:107,2
DA:109,2
DA:111,2
DA:112,2
DA:113,0
DA:115,0
DA:155,2
DA:156,2
DA:165,4
DA:166,4
DA:179,2
DA:181,2
DA:182,2
DA:183,2
DA:230,2
DA:245,2
DA:253,2
DA:254,2
DA:257,2
DA:259,2
DA:262,2
DA:264,2
DA:268,2
DA:270,2
DA:271,2
DA:273,0
DA:275,0
DA:276,0
DA:279,2
end_of_record
SF:/home/jlaustill/repo/sea-dash/.pio/libdeps/latest_stable/googletest/googletest/include/gtest/gtest-message.h
FN:112,_ZN7testing7MessageC2ERKS0_
FNDA:0,_ZN7testing7MessageC2ERKS0_
FN:132,_ZN7testing7MessagelsIA62_cEERS0_RKT_
FNDA:0,_ZN7testing7MessagelsIA62_cEERS0_RKT_
FN:132,_ZN7testing7MessagelsIA39_cEERS0_RKT_
FNDA:0,_ZN7testing7MessagelsIA39_cEERS0_RKT_
FN:132,_ZN7testing7MessagelsIA30_cEERS0_RKT_
FNDA:0,_ZN7testing7MessagelsIA30_cEERS0_RKT_
FN:132,_ZN7testing7MessagelsIA6_cEERS0_RKT_
FNDA:0,_ZN7testing7MessagelsIA6_cEERS0_RKT_
FN:132,_ZN7testing7MessagelsIA25_cEERS0_RKT_
FNDA:0,_ZN7testing7MessagelsIA25_cEERS0_RKT_
FN:132,_ZN7testing7MessagelsIA60_cEERS0_RKT_
FNDA:0,_ZN7testing7MessagelsIA60_cEERS0_RKT_
FN:132,_ZN7testing7MessagelsIA65_cEERS0_RKT_
FNDA:0,_ZN7testing7MessagelsIA65_cEERS0_RKT_
FN:132,_ZN7testing7MessagelsIA18_cEERS0_RKT_
FNDA:0,_ZN7testing7MessagelsIA18_cEERS0_RKT_
FN:132,_ZN7testing7MessagelsIA40_cEERS0_RKT_
FNDA:0,_ZN7testing7MessagelsIA40_cEERS0_RKT_
FN:132,_ZN7testing7MessagelsIA5_cEERS0_RKT_
FNDA:0,_ZN7testing7MessagelsIA5_cEERS0_RKT_
FN:132,_ZN7testing7MessagelsIA3_cEERS0_RKT_
FNDA:0,_ZN7testing7MessagelsIA3_cEERS0_RKT_
FN:132,_ZN7testing7MessagelsIA12_cEERS0_RKT_
FNDA:0,_ZN7testing7MessagelsIA12_cEERS0_RKT_
FN:132,_ZN7testing7MessagelsIA13_cEERS0_RKT_
FNDA:0,_ZN7testing7MessagelsIA13_cEERS0_RKT_
FN:132,_ZN7testing7MessagelsIA15_cEERS0_RKT_
FNDA:0,_ZN7testing7MessagelsIA15_cEERS0_RKT_
FN:132,_ZN7testing7MessagelsIA16_cEERS0_RKT_
FNDA:0,_ZN7testing7MessagelsIA16_cEERS0_RKT_
FN:132,_ZN7testing7MessagelsIA4_cEERS0_RKT_
FNDA:0,_ZN7testing7MessagelsIA4_cEERS0_RKT_
FN:132,_ZN7testing7MessagelsIA35_cEERS0_RKT_
FNDA:0,_ZN7testing7MessagelsIA35_cEERS0_RKT_
FN:132,_ZN7testing7MessagelsIcEERS0_RKT_
FNDA:0,_ZN7testing7MessagelsIcEERS0_RKT_
FN:132,_ZN7testing7MessagelsINS_14TestPartResultEEERS0_RKT_
FNDA:0,_ZN7testing7MessagelsINS_14TestPartResultEEERS0_RKT_
FN:132,_ZN7testing7MessagelsIA10_cEERS0_RKT_
FNDA:0,_ZN7testing7MessagelsIA10_cEERS0_RKT_
FN:132,_ZN7testing7MessagelsIiEERS0_RKT_
FNDA:0,_ZN7testing7MessagelsIiEERS0_RKT_
FN:132,_ZN7testing7MessagelsIA2_cEERS0_RKT_
FNDA:0,_ZN7testing7MessagelsIA2_cEERS0_RKT_
FN:132,_ZN7testing7MessagelsIA11_cEERS0_RKT_
FNDA:0,_ZN7testing7MessagelsIA11_cEERS0_RKT_
FN:132,_ZN7testing7MessagelsINSt7__cxx1112basic_stringIcSt11char_traitsIcESaIcEEEEERS0_RKT_
FNDA:0,_ZN7testing7MessagelsINSt7__cxx1112basic_stringIcSt11char_traitsIcESaIcEEEEERS0_RKT_
FN:132,_ZN7testing7MessagelsIA63_cEERS0_RKT_
FNDA:0,_ZN7testing7MessagelsIA63_cEERS0_RKT_
FN:132,_ZN7testing7MessagelsIA29_cEERS0_RKT_
FNDA:0,_ZN7testing7MessagelsIA29_cEERS0_RKT_
FN:132,_ZN7testing7MessagelsIA106_cEERS0_RKT_
FNDA:0,_ZN7testing7MessagelsIA106_cEERS0_RKT_
FN:132,_ZN7testing7MessagelsIA100_cEERS0_RKT_
FNDA:0,_ZN7testing7MessagelsIA100_cEERS0_RKT_
FN:132,_ZN7testing7MessagelsIA27_cEERS0_RKT_
FNDA:0,_ZN7testing7MessagelsIA27_cEERS0_RKT_
FN:132,_ZN7testing7MessagelsIdEERS0_RKT_
FNDA:0,_ZN7testing7MessagelsIdEERS0_RKT_
FN:132,_ZN7testing7MessagelsIA24_cEERS0_RKT_
FNDA:0,_ZN7testing7MessagelsIA24_cEERS0_RKT_
FN:132,_ZN7testing7MessagelsIA14_cEERS0_RKT_
FNDA:0,_ZN7testing7MessagelsIA14_cEERS0_RKT_
FN:132,_ZN7testing7MessagelsIS0_EERS0_RKT_
FNDA:0,_ZN7testing7MessagelsIS0_EERS0_RKT_
FN:132,_ZN7testing7MessagelsIlEERS0_RKT_
FNDA:23,_ZN7testing7MessagelsIlEERS0_RKT_
FN:132,_ZN7testing7MessagelsIA21_cEERS0_RKT_
FNDA:0,_ZN7testing7MessagelsIA21_cEERS0_RKT_
FN:132,_ZN7testing7MessagelsIA48_cEERS0_RKT_
FNDA:0,_ZN7testing7MessagelsIA48_cEERS0_RKT_
FN:132,_ZN7testing7MessagelsIA19_cEERS0_RKT_
FNDA:0,_ZN7testing7MessagelsIA19_cEERS0_RKT_
FN:132,_ZN7testing7MessagelsIA32_cEERS0_RKT_
FNDA:0,_ZN7testing7MessagelsIA32_cEERS0_RKT_
FN:132,_ZN7testing7MessagelsIA33_cEERS0_RKT_
FNDA:0,_ZN7testing7MessagelsIA33_cEERS0_RKT_
FN:132,_ZN7testing7MessagelsIA22_cEERS0_RKT_
FNDA:0,_ZN7testing7MessagelsIA22_cEERS0_RKT_
FN:132,_ZN7testing7MessagelsIA38_cEERS0_RKT_
FNDA:0,_ZN7testing7MessagelsIA38_cEERS0_RKT_
FN:132,_ZN7testing7MessagelsIA68_cEERS0_RKT_
FNDA:0,_ZN7testing7MessagelsIA68_cEERS0_RKT_
FN:132,_ZN7testing7MessagelsIA7_cEERS0_RKT_
FNDA:0,_ZN7testing7MessagelsIA7_cEERS0_RKT_
FN:132,_ZN7testing7MessagelsIA8_cEERS0_RKT_
FNDA:0,_ZN7testing7MessagelsIA8_cEERS0_RKT_
FN:132,_ZN7testing7MessagelsIA41_cEERS0_RKT_
FNDA:0,_ZN7testing7MessagelsIA41_cEERS0_RKT_
FN:132,_ZN7testing7MessagelsIA17_cEERS0_RKT_
FNDA:0,_ZN7testing7MessagelsIA17_cEERS0_RKT_
FN:132,_ZN7testing7MessagelsIA9_cEERS0_RKT_
FNDA:0,_ZN7testing7MessagelsIA9_cEERS0_RKT_
FN:181,_ZN7testing7MessagelsIcEERS0_RKPT_
FNDA:1,_ZN7testing7MessagelsIcEERS0_RKPT_
FN:181,_ZN7testing7MessagelsIKcEERS0_RKPT_
FNDA:0,_ZN7testing7MessagelsIKcEERS0_RKPT_
FN:231,_ZN7testinglsERSoRKNS_7MessageE
FNDA:0,_ZN7testinglsERSoRKNS_7MessageE
FN:242,_ZN7testing8internal18StreamableToStringIPcEENSt7__cxx1112basic_stringIcSt11char_traitsIcESaIcEEERKT_
FNDA:1,_ZN7testing8internal18StreamableToStringIPcEENSt7__cxx1112basic_stringIcSt11char_traitsIcESaIcEEERKT_
FN:242,_ZN7testing8internal18StreamableToStringIlEENSt7__cxx1112basic_stringIcSt11char_traitsIcESaIcEEERKT_
FNDA:23,_ZN7testing8internal18StreamableToStringIlEENSt7__cxx1112basic_stringIcSt11char_traitsIcESaIcEEERKT_
FN:242,_ZN7testing8internal18StreamableToStringIiEENSt7__cxx1112basic_stringIcSt11char_traitsIcESaIcEEERKT_
FNDA:0,_ZN7testing8internal18StreamableToStringIiEENSt7__cxx1112basic_stringIcSt11char_traitsIcESaIcEEERKT_
FN:242,_ZN7testing8internal18StreamableToStringIPwEENSt7__cxx1112basic_stringIcSt11char_traitsIcESaIcEEERKT_
FNDA:0,_ZN7testing8internal18StreamableToStringIPwEENSt7__cxx1112basic_stringIcSt11char_traitsIcESaIcEEERKT_
DA:112,0
DA:113,0
DA:114,0
DA:132,0
DA:148,0
DA:149,0
DA:132,0
DA:148,0
DA:149,0
DA:132,0
DA:148,0
DA:149,0
DA:132,0
DA:148,0
DA:149,0
DA:132,0
DA:148,0
DA:149,0
DA:132,0
DA:148,0
DA:149,0
DA:132,0
DA:148,0
DA:149,0
DA:132,0
DA:148,0
DA:149,0
DA:132,0
DA:148,0
DA:149,0
DA:132,0
DA:148,0
DA:149,0
DA:132,0
DA:148,0
DA:149,0
DA:132,0
DA:148,0
DA:149,0
DA:132,0
DA:148,0
DA:149,0
DA:132,0
DA:148,0
DA:149,0
DA:132,0
DA:148,0
DA:149,0
DA:132,0
DA:148,0
DA:149,0
DA:132,0
DA:148,0
DA:149,0
DA:132,0
DA:148,0
DA:149,0
DA:132,0
DA:148,0
DA:149,0
DA:132,0
DA:148,0
DA:149,0
DA:132,0
DA:148,0
DA:149,0
DA:132,0
DA:148,0
DA:149,0
DA:132,0
DA:148,0
DA:149,0
DA:132,0
DA:148,0
DA:149,0
DA:132,0
DA:148,0
DA:149,0
DA:132,0
DA:148,0
DA:149,0
DA:132,0
DA:148,0
DA:149,0
DA:132,0
DA:148,0
DA:149,0
DA:132,0
DA:148,0
DA:149,0
DA:132,0
DA:148,0
DA:149,0
DA:132,0
DA:148,0
DA:149,0
DA:132,0
DA:148,0
DA:149,0
DA:132,23
DA:148,23
DA:149,23
DA:132,0
DA:148,0
DA:149,0
DA:132,0
DA:148,0
DA:149,0
DA:132,0
DA:148,0
DA:149,0
DA:132,0
DA:148,0
DA:149,0
DA:132,0
DA:148,0
DA:149,0
DA:132,0
DA:148,0
DA:149,0
DA:132,0
DA:148,0
DA:149,0
DA:132,0
DA:148,0
DA:149,0
DA:132,0
DA:148,0
DA:149,0
DA:132,0
DA:148,0
DA:149,0
DA:132,0
DA:148,0
DA:149,0
DA:132,0
DA:148,0
DA:149,0
DA:132,0
DA:148,0
DA:149,0
DA:132,0
DA:148,0
DA:149,0
DA:181,1
DA:182,1
DA:183,0
DA:185,1
DA:187,1
DA:181,0
DA:182,0
DA:183,0
DA:185,0
DA:187,0
DA:231,0
DA:232,0
DA:242,0
DA:243,0
DA:242,1
DA:243,2
DA:242,23
DA:243,46
DA:242,0
DA:243,0
end_of_record
SF:/usr/include/c++/11/bits/basic_string.h
FN:251,_ZNSt7__cxx1112basic_stringIcSt11char_traitsIcESaIcEE16_M_construct_auxIPcEEvT_S7_St12__false_type
FNDA:0,_ZNSt7__cxx1112basic_stringIcSt11char_traitsIcESaIcEE16_M_construct_auxIPcEEvT_S7_St12__false_type
FN:251,_ZNSt7__cxx1112basic_stringIcSt11char_traitsIcESaIcEE16_M_construct_auxIPKcEEvT_S8_St12__false_type
FNDA:0,_ZNSt7__cxx1112basic_stringIcSt11char_traitsIcESaIcEE16_M_construct_auxIPKcEEvT_S8_St12__false_type
FN:271,_ZNSt7__cxx1112basic_stringIcSt11char_traitsIcESaIcEE12_M_constructIPcEEvT_S7_
FNDA:0,_ZNSt7__cxx1112basic_stringIcSt11char_traitsIcESaIcEE12_M_constructIPcEEvT_S7_
FN:271,_ZNSt7__cxx1112basic_stringIcSt11char_traitsIcESaIcEE12_M_constructIPKcEEvT_S8_
FNDA:0,_ZNSt7__cxx1112basic_stringIcSt11char_traitsIcESaIcEE12_M_constructIPKcEEvT_S8_
FN:638,_ZNSt7__cxx1112basic_stringIcSt11char_traitsIcESaIcEEC2IPKcvEET_S8_RKS3_
FNDA:0,_ZNSt7__cxx1112basic_stringIcSt11char_traitsIcESaIcEEC2IPKcvEET_S8_RKS3_
FN:6132,_ZStplIcSt11char_traitsIcESaIcEENSt7__cxx1112basic_stringIT_T0_T1_EERKS8_PKS5_
FNDA:0,_ZStplIcSt11char_traitsIcESaIcEENSt7__cxx1112basic_stringIT_T0_T1_EERKS8_PKS5_
FN:6148,_ZStplIcSt11char_traitsIcESaIcEENSt7__cxx1112basic_stringIT_T0_T1_EERKS8_S5_
FNDA:0,_ZStplIcSt11char_traitsIcESaIcEENSt7__cxx1112basic_stringIT_T0_T1_EERKS8_S5_
FN:6160,_ZStplIcSt11char_traitsIcESaIcEENSt7__cxx1112basic_stringIT_T0_T1_EEOS8_RKS8_
FNDA:20,_ZStplIcSt11char_traitsIcESaIcEENSt7__cxx1112basic_stringIT_T0_T1_EEOS8_RKS8_
FN:6172,_ZStplIcSt11char_traitsIcESaIcEENSt7__cxx1112basic_stringIT_T0_T1_EEOS8_S9_
FNDA:0,_ZStplIcSt11char_traitsIcESaIcEENSt7__cxx1112basic_stringIT_T0_T1_EEOS8_S9_
FN:6194,_ZStplIcSt11char_traitsIcESaIcEENSt7__cxx1112basic_stringIT_T0_T1_EEPKS5_OS8_
FNDA:0,_ZStplIcSt11char_traitsIcESaIcEENSt7__cxx1112basic_stringIT_T0_T1_EEPKS5_OS8_
FN:6206,_ZStplIcSt11char_traitsIcESaIcEENSt7__cxx1112basic_stringIT_T0_T1_EEOS8_PKS5_
FNDA:0,_ZStplIcSt11char_traitsIcESaIcEENSt7__cxx1112basic_stringIT_T0_T1_EEOS8_PKS5_
FN:6234,_ZSteqIcEN9__gnu_cxx11__enable_ifIXsrSt9__is_charIT_E7__valueEbE6__typeERKNSt7__cxx1112basic_stringIS3_St11char_traitsIS3_ESaIS3_EEESE_
FNDA:19,_ZSteqIcEN9__gnu_cxx11__enable_ifIXsrSt9__is_charIT_E7__valueEbE6__typeERKNSt7__cxx1112basic_stringIS3_St11char_traitsIS3_ESaIS3_EEESE_
FN:6248,_ZSteqIcSt11char_traitsIcESaIcEEbRKNSt7__cxx1112basic_stringIT_T0_T1_EEPKS5_
FNDA:2,_ZSteqIcSt11char_traitsIcESaIcEEbRKNSt7__cxx1112basic_stringIT_T0_T1_EEPKS5_
FN:6289,_ZSteqIcSt11char_traitsIcESaIcEEbPKT_RKNSt7__cxx1112basic_stringIS3_T0_T1_EE
FNDA:0,_ZSteqIcSt11char_traitsIcESaIcEEbPKT_RKNSt7__cxx1112basic_stringIS3_T0_T1_EE
FN:6327,_ZStneIcSt11char_traitsIcESaIcEEbRKNSt7__cxx1112basic_stringIT_T0_T1_EEPKS5_
FNDA:0,_ZStneIcSt11char_traitsIcESaIcEEbRKNSt7__cxx1112basic_stringIT_T0_T1_EEPKS5_
FN:6340,_ZStltIcSt11char_traitsIcESaIcEEbRKNSt7__cxx1112basic_stringIT_T0_T1_EESA_
FNDA:0,_ZStltIcSt11char_traitsIcESaIcEEbRKNSt7__cxx1112basic_stringIT_T0_T1_EESA_
FN:6493,_ZSt4swapIcSt11char_traitsIcESaIcEEvRNSt7__cxx1112basic_stringIT_T0_T1_EES9_
FNDA:0,_ZSt4swapIcSt11char_traitsIcESaIcEEvRNSt7__cxx1112basic_stringIT_T0_T1_EES9_
FN:6875,_ZNKSt4hashINSt7__cxx1112basic_stringIcSt11char_traitsIcESaIcEEEEclERKS5_
FNDA:86,_ZNKSt4hashINSt7__cxx1112basic_stringIcSt11char_traitsIcESaIcEEEEclERKS5_
DA:251,0
DA:255,0
DA:256,0
DA:251,0
DA:255,0
DA:256,0
DA:271,0
DA:274,0
DA:275,0
DA:271,0
DA:274,0
DA:275,0
DA:638,0
DA:640,0
DA:641,0
DA:6132,0
DA:6135,0
DA:6136,0
DA:6137,0
DA:6138,0
DA:6148,0
DA:6152,0
DA:6153,0
DA:6154,0
DA:6155,0
DA:6160,20
DA:6162,20
DA:6172,0
DA:6177,0
DA:6178,0
DA:6179,0
DA:6180,0
DA:6181,0
DA:6182,0
DA:6185,0
DA:6186,0
DA:6187,0
DA:6189,0
DA:6194,0
DA:6196,0
DA:6206,0
DA:6208,0
DA:6234,19
DA:6236,19
DA:6237,19
DA:6238,19
DA:6248,2
DA:6250,2
DA:6289,0
DA:6291,0
DA:6327,0
DA:6329,0
DA:6340,0
DA:6343,0
DA:6493,0
DA:6496,0
DA:6875,86
DA:6876,86
end_of_record
SF:/home/jlaustill/repo/sea-dash/.pio/libdeps/latest_stable/googletest/googletest/include/gtest/gtest.h
FN:255,_ZN7testing4Test14SetUpTestSuiteEv
FNDA:0,_ZN7testing4Test14SetUpTestSuiteEv
FN:263,_ZN7testing4Test17TearDownTestSuiteEv
FNDA:0,_ZN7testing4Test17TearDownTestSuiteEv
FN:268,_ZN7testing4Test16TearDownTestCaseEv
FNDA:0,_ZN7testing4Test16TearDownTestCaseEv
FN:269,_ZN7testing4Test13SetUpTestCaseEv
FNDA:0,_ZN7testing4Test13SetUpTestCaseEv
FN:335,_ZN7testing4Test11DeleteSelf_Ev
FNDA:20,_ZN7testing4Test11DeleteSelf_Ev
FN:356,_ZN7testing4Test5SetupEv
FNDA:0,_ZN7testing4Test5SetupEv
FN:374,_ZN7testing12TestPropertyC2ERKNSt7__cxx1112basic_stringIcSt11char_traitsIcESaIcEEES8_
FNDA:0,_ZN7testing12TestPropertyC2ERKNSt7__cxx1112basic_stringIcSt11char_traitsIcESaIcEEES8_
FN:378,_ZNK7testing12TestProperty3keyEv
FNDA:0,_ZNK7testing12TestProperty3keyEv
FN:381,_ZNK7testing12TestProperty5valueEv
FNDA:0,_ZNK7testing12TestProperty5valueEv
FN:384,_ZN7testing12TestProperty8SetValueERKNSt7__cxx1112basic_stringIcSt11char_traitsIcESaIcEEE
FNDA:0,_ZN7testing12TestProperty8SetValueERKNSt7__cxx1112basic_stringIcSt11char_traitsIcESaIcEEE
FN:415,_ZNK7testing10TestResult6PassedEv
FNDA:40,_ZNK7testing10TestResult6PassedEv
FN:430,_ZNK7testing10TestResult12elapsed_timeEv
FNDA:20,_ZNK7testing10TestResult12elapsed_timeEv
FN:434,_ZNK7testing10TestResult15start_timestampEv
FNDA:0,_ZNK7testing10TestResult15start_timestampEv
FN:467,_ZN7testing10TestResult19set_start_timestampEl
FNDA:20,_ZN7testing10TestResult19set_start_timestampEl
FN:470,_ZN7testing10TestResult16set_elapsed_timeEl
FNDA:20,_ZN7testing10TestResult16set_elapsed_timeEl
FN:540,_ZNK7testing8TestInfo15test_suite_nameEv
FNDA:40,_ZNK7testing8TestInfo15test_suite_nameEv
FN:548,_ZNK7testing8TestInfo4nameEv
FNDA:80,_ZNK7testing8TestInfo4nameEv
FN:552,_ZNK7testing8TestInfo10type_paramEv
FNDA:20,_ZNK7testing8TestInfo10type_paramEv
FN:559,_ZNK7testing8TestInfo11value_paramEv
FNDA:0,_ZNK7testing8TestInfo11value_paramEv
FN:565,_ZNK7testing8TestInfo4fileEv
FNDA:82,_ZNK7testing8TestInfo4fileEv
FN:568,_ZNK7testing8TestInfo4lineEv
FNDA:82,_ZNK7testing8TestInfo4lineEv
FN:571,_ZNK7testing8TestInfo19is_in_another_shardEv
FNDA:0,_ZNK7testing8TestInfo19is_in_another_shardEv
FN:589,_ZNK7testing8TestInfo10should_runEv
FNDA:160,_ZNK7testing8TestInfo10should_runEv
FN:592,_ZNK7testing8TestInfo13is_reportableEv
FNDA:20,_ZNK7testing8TestInfo13is_reportableEv
FN:599,_ZNK7testing8TestInfo6resultEv
FNDA:140,_ZNK7testing8TestInfo6resultEv
FN:638,_ZN7testing8TestInfo15ClearTestResultEPS0_
FNDA:20,_ZN7testing8TestInfo15ClearTestResultEPS0_
FN:694,_ZNK7testing9TestSuite4nameEv
FNDA:4,_ZNK7testing9TestSuite4nameEv
FN:698,_ZNK7testing9TestSuite10type_paramEv
FNDA:2,_ZNK7testing9TestSuite10type_paramEv
FN:704,_ZNK7testing9TestSuite10should_runEv
FNDA:28,_ZNK7testing9TestSuite10should_runEv
FN:731,_ZNK7testing9TestSuite6PassedEv
FNDA:0,_ZNK7testing9TestSuite6PassedEv
FN:734,_ZNK7testing9TestSuite6FailedEv
FNDA:4,_ZNK7testing9TestSuite6FailedEv
FN:739,_ZNK7testing9TestSuite12elapsed_timeEv
FNDA:2,_ZNK7testing9TestSuite12elapsed_timeEv
FN:743,_ZNK7testing9TestSuite15start_timestampEv
FNDA:0,_ZNK7testing9TestSuite15start_timestampEv
FN:751,_ZNK7testing9TestSuite18ad_hoc_test_resultEv
FNDA:8,_ZNK7testing9TestSuite18ad_hoc_test_resultEv
FN:758,_ZN7testing9TestSuite14test_info_listEv
FNDA:2,_ZN7testing9TestSuite14test_info_listEv
FN:761,_ZNK7testing9TestSuite14test_info_listEv
FNDA:20,_ZNK7testing9TestSuite14test_info_listEv
FN:770,_ZN7testing9TestSuite14set_should_runEb
FNDA:22,_ZN7testing9TestSuite14set_should_runEb
FN:780,_ZN7testing9TestSuite20ClearTestSuiteResultEPS0_
FNDA:2,_ZN7testing9TestSuite20ClearTestSuiteResultEPS0_
FN:792,_ZN7testing9TestSuite17RunSetUpTestSuiteEv
FNDA:2,_ZN7testing9TestSuite17RunSetUpTestSuiteEv
FN:800,_ZN7testing9TestSuite20RunTearDownTestSuiteEv
FNDA:2,_ZN7testing9TestSuite20RunTearDownTestSuiteEv
FN:807,_ZN7testing9TestSuite10TestPassedEPKNS_8TestInfoE
FNDA:20,_ZN7testing9TestSuite10TestPassedEPKNS_8TestInfoE
FN:812,_ZN7testing9TestSuite11TestSkippedEPKNS_8TestInfoE
FNDA:20,_ZN7testing9TestSuite11TestSkippedEPKNS_8TestInfoE
FN:817,_ZN7testing9TestSuite10TestFailedEPKNS_8TestInfoE
FNDA:40,_ZN7testing9TestSuite10TestFailedEPKNS_8TestInfoE
FN:823,_ZN7testing9TestSuite22TestReportableDisabledEPKNS_8TestInfoE
FNDA:20,_ZN7testing9TestSuite22TestReportableDisabledEPKNS_8TestInfoE
FN:828,_ZN7testing9TestSuite12TestDisabledEPKNS_8TestInfoE
FNDA:0,_ZN7testing9TestSuite12TestDisabledEPKNS_8TestInfoE
FN:833,_ZN7testing9TestSuite14TestReportableEPKNS_8TestInfoE
FNDA:0,_ZN7testing9TestSuite14TestReportableEPKNS_8TestInfoE
FN:838,_ZN7testing9TestSuite13ShouldRunTestEPKNS_8TestInfoE
FNDA:80,_ZN7testing9TestSuite13ShouldRunTestEPKNS_8TestInfoE
FN:927,_ZN7testing17TestEventListenerD2Ev
FNDA:2,_ZN7testing17TestEventListenerD2Ev
FN:927,_ZN7testing17TestEventListenerD0Ev
FNDA:0,_ZN7testing17TestEventListenerD0Ev
FN:945,_ZN7testing17TestEventListener16OnTestSuiteStartERKNS_9TestSuiteE
FNDA:2,_ZN7testing17TestEventListener16OnTestSuiteStartERKNS_9TestSuiteE
FN:949,_ZN7testing17TestEventListener15OnTestCaseStartERKNS_9TestSuiteE
FNDA:0,_ZN7testing17TestEventListener15OnTestCaseStartERKNS_9TestSuiteE
FN:956,_ZN7testing17TestEventListener14OnTestDisabledERKNS_8TestInfoE
FNDA:0,_ZN7testing17TestEventListener14OnTestDisabledERKNS_8TestInfoE
FN:967,_ZN7testing17TestEventListener14OnTestSuiteEndERKNS_9TestSuiteE
FNDA:2,_ZN7testing17TestEventListener14OnTestSuiteEndERKNS_9TestSuiteE
FN:971,_ZN7testing17TestEventListener13OnTestCaseEndERKNS_9TestSuiteE
FNDA:0,_ZN7testing17TestEventListener13OnTestCaseEndERKNS_9TestSuiteE
FN:994,_ZN7testing22EmptyTestEventListener18OnTestProgramStartERKNS_8UnitTestE
FNDA:0,_ZN7testing22EmptyTestEventListener18OnTestProgramStartERKNS_8UnitTestE
FN:995,_ZN7testing22EmptyTestEventListener20OnTestIterationStartERKNS_8UnitTestEi
FNDA:0,_ZN7testing22EmptyTestEventListener20OnTestIterationStartERKNS_8UnitTestEi
FN:997,_ZN7testing22EmptyTestEventListener24OnEnvironmentsSetUpStartERKNS_8UnitTestE
FNDA:0,_ZN7testing22EmptyTestEventListener24OnEnvironmentsSetUpStartERKNS_8UnitTestE
FN:998,_ZN7testing22EmptyTestEventListener22OnEnvironmentsSetUpEndERKNS_8UnitTestE
FNDA:0,_ZN7testing22EmptyTestEventListener22OnEnvironmentsSetUpEndERKNS_8UnitTestE
FN:999,_ZN7testing22EmptyTestEventListener16OnTestSuiteStartERKNS_9TestSuiteE
FNDA:0,_ZN7testing22EmptyTestEventListener16OnTestSuiteStartERKNS_9TestSuiteE
FN:1002,_ZN7testing22EmptyTestEventListener15OnTestCaseStartERKNS_9TestSuiteE
FNDA:0,_ZN7testing22EmptyTestEventListener15OnTestCaseStartERKNS_9TestSuiteE
FN:1005,_ZN7testing22EmptyTestEventListener11OnTestStartERKNS_8TestInfoE
FNDA:0,_ZN7testing22EmptyTestEventListener11OnTestStartERKNS_8TestInfoE
FN:1006,_ZN7testing22EmptyTestEventListener14OnTestDisabledERKNS_8TestInfoE
FNDA:0,_ZN7testing22EmptyTestEventListener14OnTestDisabledERKNS_8TestInfoE
FN:1007,_ZN7testing22EmptyTestEventListener16OnTestPartResultERKNS_14TestPartResultE
FNDA:0,_ZN7testing22EmptyTestEventListener16OnTestPartResultERKNS_14TestPartResultE
FN:1008,_ZN7testing22EmptyTestEventListener9OnTestEndERKNS_8TestInfoE
FNDA:0,_ZN7testing22EmptyTestEventListener9OnTestEndERKNS_8TestInfoE
FN:1009,_ZN7testing22EmptyTestEventListener14OnTestSuiteEndERKNS_9TestSuiteE
FNDA:0,_ZN7testing22EmptyTestEventListener14OnTestSuiteEndERKNS_9TestSuiteE
FN:1011,_ZN7testing22EmptyTestEventListener13OnTestCaseEndERKNS_9TestSuiteE
FNDA:0,_ZN7testing22EmptyTestEventListener13OnTestCaseEndERKNS_9TestSuiteE
FN:1014,_ZN7testing22EmptyTestEventListener27OnEnvironmentsTearDownStartERKNS_8UnitTestE
FNDA:0,_ZN7testing22EmptyTestEventListener27OnEnvironmentsTearDownStartERKNS_8UnitTestE
FN:1015,_ZN7testing22EmptyTestEventListener25OnEnvironmentsTearDownEndERKNS_8UnitTestE
FNDA:0,_ZN7testing22EmptyTestEventListener25OnEnvironmentsTearDownEndERKNS_8UnitTestE
FN:1016,_ZN7testing22EmptyTestEventListener18OnTestIterationEndERKNS_8UnitTestEi
FNDA:0,_ZN7testing22EmptyTestEventListener18OnTestIterationEndERKNS_8UnitTestEi
FN:1018,_ZN7testing22EmptyTestEventListener16OnTestProgramEndERKNS_8UnitTestE
FNDA:0,_ZN7testing22EmptyTestEventListener16OnTestProgramEndERKNS_8UnitTestE
FN:1280,_ZN7testing8UnitTest4implEv
FNDA:317,_ZN7testing8UnitTest4implEv
FN:1281,_ZNK7testing8UnitTest4implEv
FNDA:9,_ZNK7testing8UnitTest4implEv
FN:1632,_ZN7testing8internal12AssertHelper16AssertHelperDataC2ENS_14TestPartResult4TypeEPKciS6_
FNDA:0,_ZN7testing8internal12AssertHelper16AssertHelperDataC2ENS_14TestPartResult4TypeEPKciS6_
FN:2299,_ZN7testing12RegisterTestIJEZNS_8internal34TypeParameterizedTestSuiteRegistry22CheckForInstantiationsEvEUlvE_EEPNS_8TestInfoEPKcS7_S7_S7_S7_iT0_
FNDA:0,_ZN7testing12RegisterTestIJEZNS_8internal34TypeParameterizedTestSuiteRegistry22CheckForInstantiationsEvEUlvE_EEPNS_8TestInfoEPKcS7_S7_S7_S7_iT0_
FN:2299,_ZN7testing12RegisterTestIJEZNS_8internal23InsertSyntheticTestCaseERKNSt7__cxx1112basic_stringIcSt11char_traitsIcESaIcEEENS1_12CodeLocationEbEUlvE_EEPNS_8TestInfoEPKcSF_SF_SF_SF_iT0_
FNDA:0,_ZN7testing12RegisterTestIJEZNS_8internal23InsertSyntheticTestCaseERKNSt7__cxx1112basic_stringIcSt11char_traitsIcESaIcEEENS1_12CodeLocationEbEUlvE_EEPNS_8TestInfoEPKcSF_SF_SF_SF_iT0_
FN:2306,_ZZN7testing12RegisterTestIJEZNS_8internal23InsertSyntheticTestCaseERKNSt7__cxx1112basic_stringIcSt11char_traitsIcESaIcEEENS1_12CodeLocationEbEUlvE_EEPNS_8TestInfoEPKcSF_SF_SF_SF_iT0_EN11FactoryImplC2ESB_
FNDA:0,_ZZN7testing12RegisterTestIJEZNS_8internal23InsertSyntheticTestCaseERKNSt7__cxx1112basic_stringIcSt11char_traitsIcESaIcEEENS1_12CodeLocationEbEUlvE_EEPNS_8TestInfoEPKcSF_SF_SF_SF_iT0_EN11FactoryImplC2ESB_
FN:2306,_ZZN7testing12RegisterTestIJEZNS_8internal34TypeParameterizedTestSuiteRegistry22CheckForInstantiationsEvEUlvE_EEPNS_8TestInfoEPKcS7_S7_S7_S7_iT0_EN11FactoryImplC2ES3_
FNDA:0,_ZZN7testing12RegisterTestIJEZNS_8internal34TypeParameterizedTestSuiteRegistry22CheckForInstantiationsEvEUlvE_EEPNS_8TestInfoEPKcS7_S7_S7_S7_iT0_EN11FactoryImplC2ES3_
FN:2307,_ZZN7testing12RegisterTestIJEZNS_8internal23InsertSyntheticTestCaseERKNSt7__cxx1112basic_stringIcSt11char_traitsIcESaIcEEENS1_12CodeLocationEbEUlvE_EEPNS_8TestInfoEPKcSF_SF_SF_SF_iT0_EN11FactoryImpl10CreateTestEv
FNDA:0,_ZZN7testing12RegisterTestIJEZNS_8internal23InsertSyntheticTestCaseERKNSt7__cxx1112basic_stringIcSt11char_traitsIcESaIcEEENS1_12CodeLocationEbEUlvE_EEPNS_8TestInfoEPKcSF_SF_SF_SF_iT0_EN11FactoryImpl10CreateTestEv
FN:2307,_ZZN7testing12RegisterTestIJEZNS_8internal34TypeParameterizedTestSuiteRegistry22CheckForInstantiationsEvEUlvE_EEPNS_8TestInfoEPKcS7_S7_S7_S7_iT0_EN11FactoryImpl10CreateTestEv
FNDA:0,_ZZN7testing12RegisterTestIJEZNS_8internal34TypeParameterizedTestSuiteRegistry22CheckForInstantiationsEvEUlvE_EEPNS_8TestInfoEPKcS7_S7_S7_S7_iT0_EN11FactoryImpl10CreateTestEv
DA:255,0
DA:263,0
DA:268,0
DA:269,0
DA:335,20
DA:356,0
DA:374,0
DA:375,0
DA:378,0
DA:381,0
DA:384,0
DA:415,40
DA:430,20
DA:434,0
DA:467,20
DA:470,20
DA:540,40
DA:548,80
DA:552,20
DA:553,20
DA:554,20
DA:559,0
DA:560,0
DA:561,0
DA:565,82
DA:568,82
DA:571,0
DA:589,160
DA:592,20
DA:595,20
DA:599,140
DA:638,20
DA:639,20
DA:640,20
DA:694,4
DA:698,2
DA:699,2
DA:700,2
DA:704,28
DA:731,0
DA:734,4
DA:735,4
DA:739,2
DA:743,0
DA:751,8
DA:758,2
DA:761,20
DA:762,20
DA:770,22
DA:780,2
DA:781,2
DA:782,2
DA:792,2
DA:793,2
DA:794,0
DA:796,2
DA:800,2
DA:801,2
DA:802,0
DA:804,2
DA:807,20
DA:808,20
DA:812,20
DA:813,20
DA:817,40
DA:818,40
DA:823,20
DA:824,20
DA:828,0
DA:829,0
DA:833,0
DA:834,0
DA:838,80
DA:839,80
DA:927,0
DA:927,2
DA:945,2
DA:949,0
DA:956,0
DA:967,2
DA:971,0
DA:994,0
DA:995,0
DA:996,0
DA:997,0
DA:998,0
DA:999,0
DA:1002,0
DA:1005,0
DA:1006,0
DA:1007,0
DA:1008,0
DA:1009,0
DA:1011,0
DA:1014,0
DA:1015,0
DA:1016,0
DA:1017,0
DA:1018,0
DA:1280,317
DA:1281,9
DA:1632,0
DA:1634,0
DA:2299,0
DA:2313,0
DA:2315,0
DA:2318,0
DA:2299,0
DA:2313,0
DA:2315,0
DA:2318,0
DA:2306,0
DA:2306,0
DA:2307,0
DA:2307,0
end_of_record
SF:/home/jlaustill/repo/sea-dash/.pio/libdeps/latest_stable/googletest/googletest/include/gtest/internal/gtest-port.h
FN:1082,_ZN7testing8internal8GTestLog9GetStreamEv
FNDA:0,_ZN7testing8internal8GTestLog9GetStreamEv
FN:1190,_ZN7testing8internal27CheckedDowncastToActualTypeINS0_11ThreadLocalISt6vectorINS0_9TraceInfoESaIS4_EEE11ValueHolderENS0_26ThreadLocalValueHolderBaseEEEPT_PT0_
FNDA:0,_ZN7testing8internal27CheckedDowncastToActualTypeINS0_11ThreadLocalISt6vectorINS0_9TraceInfoESaIS4_EEE11ValueHolderENS0_26ThreadLocalValueHolderBaseEEEPT_PT0_
FN:1190,_ZN7testing8internal27CheckedDowncastToActualTypeINS0_11ThreadLocalIPNS_31TestPartResultReporterInterfaceEE11ValueHolderENS0_26ThreadLocalValueHolderBaseEEEPT_PT0_
FNDA:0,_ZN7testing8internal27CheckedDowncastToActualTypeINS0_11ThreadLocalIPNS_31TestPartResultReporterInterfaceEE11ValueHolderENS0_26ThreadLocalValueHolderBaseEEEPT_PT0_
FN:1689,_ZN7testing8internal9MutexBase4LockEv
FNDA:44,_ZN7testing8internal9MutexBase4LockEv
FN:1696,_ZN7testing8internal9MutexBase6UnlockEv
FNDA:44,_ZN7testing8internal9MutexBase6UnlockEv
FN:1746,_ZN7testing8internal5MutexC2Ev
FNDA:25,_ZN7testing8internal5MutexC2Ev
FN:1750,_ZN7testing8internal5MutexD2Ev
FNDA:25,_ZN7testing8internal5MutexD2Ev
FN:1764,_ZN7testing8internal14GTestMutexLockC2EPNS0_9MutexBaseE
FNDA:44,_ZN7testing8internal14GTestMutexLockC2EPNS0_9MutexBaseE
FN:1766,_ZN7testing8internal14GTestMutexLockD2Ev
FNDA:44,_ZN7testing8internal14GTestMutexLockD2Ev
FN:1785,_ZN7testing8internal26ThreadLocalValueHolderBaseD2Ev
FNDA:0,_ZN7testing8internal26ThreadLocalValueHolderBaseD2Ev
FN:1785,_ZN7testing8internal26ThreadLocalValueHolderBaseD0Ev
FNDA:0,_ZN7testing8internal26ThreadLocalValueHolderBaseD0Ev
FN:1790,DeleteThreadLocalValue
FNDA:2,DeleteThreadLocalValue
FN:1798,_ZN7testing8internal11ThreadLocalISt6vectorINS0_9TraceInfoESaIS3_EEEC2Ev
FNDA:1,_ZN7testing8internal11ThreadLocalISt6vectorINS0_9TraceInfoESaIS3_EEEC2Ev
FN:1800,_ZN7testing8internal11ThreadLocalIPNS_31TestPartResultReporterInterfaceEEC2ERKS3_
FNDA:1,_ZN7testing8internal11ThreadLocalIPNS_31TestPartResultReporterInterfaceEEC2ERKS3_
FN:1804,_ZN7testing8internal11ThreadLocalIPNS_31TestPartResultReporterInterfaceEED2Ev
FNDA:1,_ZN7testing8internal11ThreadLocalIPNS_31TestPartResultReporterInterfaceEED2Ev
FN:1804,_ZN7testing8internal11ThreadLocalISt6vectorINS0_9TraceInfoESaIS3_EEED2Ev
FNDA:1,_ZN7testing8internal11ThreadLocalISt6vectorINS0_9TraceInfoESaIS3_EEED2Ev
FN:1813,_ZN7testing8internal11ThreadLocalISt6vectorINS0_9TraceInfoESaIS3_EEE7pointerEv
FNDA:0,_ZN7testing8internal11ThreadLocalISt6vectorINS0_9TraceInfoESaIS3_EEE7pointerEv
FN:1813,_ZN7testing8internal11ThreadLocalIPNS_31TestPartResultReporterInterfaceEE7pointerEv
FNDA:0,_ZN7testing8internal11ThreadLocalIPNS_31TestPartResultReporterInterfaceEE7pointerEv
FN:1814,_ZNK7testing8internal11ThreadLocalIPNS_31TestPartResultReporterInterfaceEE7pointerEv
FNDA:0,_ZNK7testing8internal11ThreadLocalIPNS_31TestPartResultReporterInterfaceEE7pointerEv
FN:1815,_ZNK7testing8internal11ThreadLocalIPNS_31TestPartResultReporterInterfaceEE3getEv
FNDA:0,_ZNK7testing8internal11ThreadLocalIPNS_31TestPartResultReporterInterfaceEE3getEv
FN:1816,_ZN7testing8internal11ThreadLocalIPNS_31TestPartResultReporterInterfaceEE3setERKS3_
FNDA:0,_ZN7testing8internal11ThreadLocalIPNS_31TestPartResultReporterInterfaceEE3setERKS3_
FN:1822,_ZN7testing8internal11ThreadLocalISt6vectorINS0_9TraceInfoESaIS3_EEE11ValueHolderC2Ev
FNDA:0,_ZN7testing8internal11ThreadLocalISt6vectorINS0_9TraceInfoESaIS3_EEE11ValueHolderC2Ev
FN:1823,_ZN7testing8internal11ThreadLocalIPNS_31TestPartResultReporterInterfaceEE11ValueHolderC2ERKS3_
FNDA:0,_ZN7testing8internal11ThreadLocalIPNS_31TestPartResultReporterInterfaceEE11ValueHolderC2ERKS3_
FN:1825,_ZN7testing8internal11ThreadLocalIPNS_31TestPartResultReporterInterfaceEE11ValueHolder7pointerEv
FNDA:0,_ZN7testing8internal11ThreadLocalIPNS_31TestPartResultReporterInterfaceEE11ValueHolder7pointerEv
FN:1825,_ZN7testing8internal11ThreadLocalISt6vectorINS0_9TraceInfoESaIS3_EEE11ValueHolder7pointerEv
FNDA:0,_ZN7testing8internal11ThreadLocalISt6vectorINS0_9TraceInfoESaIS3_EEE11ValueHolder7pointerEv
FN:1833,_ZN7testing8internal11ThreadLocalIPNS_31TestPartResultReporterInterfaceEE9CreateKeyEv
FNDA:1,_ZN7testing8internal11ThreadLocalIPNS_31TestPartResultReporterInterfaceEE9CreateKeyEv
FN:1833,_ZN7testing8internal11ThreadLocalISt6vectorINS0_9TraceInfoESaIS3_EEE9CreateKeyEv
FNDA:1,_ZN7testing8internal11ThreadLocalISt6vectorINS0_9TraceInfoESaIS3_EEE9CreateKeyEv
FN:1842,_ZNK7testing8internal11ThreadLocalISt6vectorINS0_9TraceInfoESaIS3_EEE16GetOrCreateValueEv
FNDA:0,_ZNK7testing8internal11ThreadLocalISt6vectorINS0_9TraceInfoESaIS3_EEE16GetOrCreateValueEv
FN:1842,_ZNK7testing8internal11ThreadLocalIPNS_31TestPartResultReporterInterfaceEE16GetOrCreateValueEv
FNDA:0,_ZNK7testing8internal11ThreadLocalIPNS_31TestPartResultReporterInterfaceEE16GetOrCreateValueEv
FN:1857,_ZN7testing8internal11ThreadLocalISt6vectorINS0_9TraceInfoESaIS3_EEE18ValueHolderFactoryC2Ev
FNDA:1,_ZN7testing8internal11ThreadLocalISt6vectorINS0_9TraceInfoESaIS3_EEE18ValueHolderFactoryC2Ev
FN:1857,_ZN7testing8internal11ThreadLocalIPNS_31TestPartResultReporterInterfaceEE18ValueHolderFactoryC2Ev
FNDA:1,_ZN7testing8internal11ThreadLocalIPNS_31TestPartResultReporterInterfaceEE18ValueHolderFactoryC2Ev
FN:1858,_ZN7testing8internal11ThreadLocalISt6vectorINS0_9TraceInfoESaIS3_EEE18ValueHolderFactoryD0Ev
FNDA:0,_ZN7testing8internal11ThreadLocalISt6vectorINS0_9TraceInfoESaIS3_EEE18ValueHolderFactoryD0Ev
FN:1858,_ZN7testing8internal11ThreadLocalIPNS_31TestPartResultReporterInterfaceEE18ValueHolderFactoryD0Ev
FNDA:0,_ZN7testing8internal11ThreadLocalIPNS_31TestPartResultReporterInterfaceEE18ValueHolderFactoryD0Ev
FN:1858,_ZN7testing8internal11ThreadLocalIPNS_31TestPartResultReporterInterfaceEE18ValueHolderFactoryD2Ev
FNDA:1,_ZN7testing8internal11ThreadLocalIPNS_31TestPartResultReporterInterfaceEE18ValueHolderFactoryD2Ev
FN:1858,_ZN7testing8internal11ThreadLocalISt6vectorINS0_9TraceInfoESaIS3_EEE18ValueHolderFactoryD2Ev
FNDA:1,_ZN7testing8internal11ThreadLocalISt6vectorINS0_9TraceInfoESaIS3_EEE18ValueHolderFactoryD2Ev
FN:1868,_ZN7testing8internal11ThreadLocalISt6vectorINS0_9TraceInfoESaIS3_EEE25DefaultValueHolderFactoryC2Ev
FNDA:1,_ZN7testing8internal11ThreadLocalISt6vectorINS0_9TraceInfoESaIS3_EEE25DefaultValueHolderFactoryC2Ev
FN:1869,_ZNK7testing8internal11ThreadLocalISt6vectorINS0_9TraceInfoESaIS3_EEE25DefaultValueHolderFactory13MakeNewHolderEv
FNDA:0,_ZNK7testing8internal11ThreadLocalISt6vectorINS0_9TraceInfoESaIS3_EEE25DefaultValueHolderFactory13MakeNewHolderEv
FN:1879,_ZN7testing8internal11ThreadLocalIPNS_31TestPartResultReporterInterfaceEE26InstanceValueHolderFactoryC2ERKS3_
FNDA:1,_ZN7testing8internal11ThreadLocalIPNS_31TestPartResultReporterInterfaceEE26InstanceValueHolderFactoryC2ERKS3_
FN:1880,_ZNK7testing8internal11ThreadLocalIPNS_31TestPartResultReporterInterfaceEE26InstanceValueHolderFactory13MakeNewHolderEv
FNDA:0,_ZNK7testing8internal11ThreadLocalIPNS_31TestPartResultReporterInterfaceEE26InstanceValueHolderFactory13MakeNewHolderEv
FN:2067,_ZN7testing8internal5posix6FileNoEP8_IO_FILE
FNDA:1,_ZN7testing8internal5posix6FileNoEP8_IO_FILE
FN:2105,_ZN7testing8internal5posix8DoIsATTYEi
FNDA:1,_ZN7testing8internal5posix8DoIsATTYEi
FN:2106,_ZN7testing8internal5posix10StrCaseCmpEPKcS3_
FNDA:4,_ZN7testing8internal5posix10StrCaseCmpEPKcS3_
FN:2112,_ZN7testing8internal5posix6IsATTYEi
FNDA:1,_ZN7testing8internal5posix6IsATTYEi
FN:2137,_ZN7testing8internal5posix5FOpenEPKcS3_
FNDA:0,_ZN7testing8internal5posix5FOpenEPKcS3_
FN:2154,_ZN7testing8internal5posix6FCloseEP8_IO_FILE
FNDA:0,_ZN7testing8internal5posix6FCloseEP8_IO_FILE
FN:2162,_ZN7testing8internal5posix5CloseEi
FNDA:0,_ZN7testing8internal5posix5CloseEi
FN:2170,_ZN7testing8internal5posix6GetEnvEPKc
FNDA:0,_ZN7testing8internal5posix6GetEnvEPKc
FN:2195,_ZN7testing8internal5posix5AbortEv
FNDA:0,_ZN7testing8internal5posix5AbortEv
DA:1082,0
DA:1190,0
DA:1194,0
DA:1196,0
DA:1190,0
DA:1194,0
DA:1196,0
DA:1689,44
DA:1690,44
DA:1691,44
DA:1692,44
DA:1693,44
DA:1696,44
DA:1701,44
DA:1702,44
DA:1703,44
DA:1746,25
DA:1747,25
DA:1748,25
DA:1749,25
DA:1750,25
DA:1764,44
DA:1766,44
DA:1785,0
DA:1785,0
DA:1790,2
DA:1791,2
DA:1792,2
DA:1798,1
DA:1799,1
DA:1800,1
DA:1801,1
DA:1802,1
DA:1804,1
DA:1806,1
DA:1810,1
DA:1811,1
DA:1804,1
DA:1806,1
DA:1810,1
DA:1811,1
DA:1813,0
DA:1813,0
DA:1814,0
DA:1815,0
DA:1816,0
DA:1822,0
DA:1823,0
DA:1825,0
DA:1825,0
DA:1833,1
DA:1837,1
DA:1839,1
DA:1833,1
DA:1837,1
DA:1839,1
DA:1842,0
DA:1844,0
DA:1845,0
DA:1846,0
DA:1849,0
DA:1850,0
DA:1851,0
DA:1852,0
DA:1842,0
DA:1844,0
DA:1845,0
DA:1846,0
DA:1849,0
DA:1850,0
DA:1851,0
DA:1852,0
DA:1857,1
DA:1857,1
DA:1858,0
DA:1858,1
DA:1858,0
DA:1858,1
DA:1868,1
DA:1869,0
DA:1879,1
DA:1880,0
DA:1881,0
DA:2067,1
DA:2105,1
DA:2106,4
DA:2107,4
DA:2112,1
DA:2116,1
DA:2117,1
DA:2118,1
DA:2120,1
DA:2137,0
DA:2145,0
DA:2154,0
DA:2162,0
DA:2170,0
DA:2183,0
DA:2195,0
end_of_record
SF:/usr/include/c++/11/bits/stl_function.h
FN:369,_ZNKSt8equal_toINSt7__cxx1112basic_stringIcSt11char_traitsIcESaIcEEEEclERKS5_S8_
FNDA:0,_ZNKSt8equal_toINSt7__cxx1112basic_stringIcSt11char_traitsIcESaIcEEEEclERKS5_S8_
FN:399,_ZNKSt4lessINSt7__cxx1112basic_stringIcSt11char_traitsIcESaIcEEEEclERKS5_S8_
FNDA:0,_ZNKSt4lessINSt7__cxx1112basic_stringIcSt11char_traitsIcESaIcEEEEclERKS5_S8_
FN:1154,_ZNKSt9_IdentityINSt7__cxx1112basic_stringIcSt11char_traitsIcESaIcEEEEclERS5_
FNDA:0,_ZNKSt9_IdentityINSt7__cxx1112basic_stringIcSt11char_traitsIcESaIcEEEEclERS5_
FN:1158,_ZNKSt9_IdentityINSt7__cxx1112basic_stringIcSt11char_traitsIcESaIcEEEEclERKS5_
FNDA:0,_ZNKSt9_IdentityINSt7__cxx1112basic_stringIcSt11char_traitsIcESaIcEEEEclERKS5_
FN:1174,_ZNKSt10_Select1stISt4pairIKNSt7__cxx1112basic_stringIcSt11char_traitsIcESaIcEEEmEEclERKS8_
FNDA:0,_ZNKSt10_Select1stISt4pairIKNSt7__cxx1112basic_stringIcSt11char_traitsIcESaIcEEEmEEclERKS8_
FN:1174,_ZNKSt10_Select1stISt4pairIKNSt7__cxx1112basic_stringIcSt11char_traitsIcESaIcEEEN7testing8internal34TypeParameterizedTestSuiteRegistry30TypeParameterizedTestSuiteInfoEEEclERKSC_
FNDA:0,_ZNKSt10_Select1stISt4pairIKNSt7__cxx1112basic_stringIcSt11char_traitsIcESaIcEEEN7testing8internal34TypeParameterizedTestSuiteRegistry30TypeParameterizedTestSuiteInfoEEEclERKSC_
DA:369,0
DA:370,0
DA:399,0
DA:400,0
DA:1154,0
DA:1155,0
DA:1158,0
DA:1159,0
DA:1174,0
DA:1175,0
DA:1174,0
DA:1175,0
end_of_record
SF:/usr/include/c++/11/ext/aligned_buffer.h
FN:64,_ZN9__gnu_cxx16__aligned_membufISt4pairIcPKcEE7_M_addrEv
FNDA:0,_ZN9__gnu_cxx16__aligned_membufISt4pairIcPKcEE7_M_addrEv
FN:64,_ZN9__gnu_cxx16__aligned_membufISt4pairIKNSt7__cxx1112basic_stringIcSt11char_traitsIcESaIcEEEmEE7_M_addrEv
FNDA:0,_ZN9__gnu_cxx16__aligned_membufISt4pairIKNSt7__cxx1112basic_stringIcSt11char_traitsIcESaIcEEEmEE7_M_addrEv
FN:64,_ZN9__gnu_cxx16__aligned_membufINSt7__cxx1112basic_stringIcSt11char_traitsIcESaIcEEEE7_M_addrEv
FNDA:0,_ZN9__gnu_cxx16__aligned_membufINSt7__cxx1112basic_stringIcSt11char_traitsIcESaIcEEEE7_M_addrEv
FN:64,_ZN9__gnu_cxx16__aligned_membufISt4pairIKNSt7__cxx1112basic_stringIcSt11char_traitsIcESaIcEEEN7testing8internal34TypeParameterizedTestSuiteRegistry30TypeParameterizedTestSuiteInfoEEE7_M_addrEv
FNDA:0,_ZN9__gnu_cxx16__aligned_membufISt4pairIKNSt7__cxx1112basic_stringIcSt11char_traitsIcESaIcEEEN7testing8internal34TypeParameterizedTestSuiteRegistry30TypeParameterizedTestSuiteInfoEEE7_M_addrEv
FN:68,_ZNK9__gnu_cxx16__aligned_membufISt4pairIcPKcEE7_M_addrEv
FNDA:0,_ZNK9__gnu_cxx16__aligned_membufISt4pairIcPKcEE7_M_addrEv
FN:68,_ZNK9__gnu_cxx16__aligned_membufISt4pairIKNSt7__cxx1112basic_stringIcSt11char_traitsIcESaIcEEEN7testing8internal34TypeParameterizedTestSuiteRegistry30TypeParameterizedTestSuiteInfoEEE7_M_addrEv
FNDA:0,_ZNK9__gnu_cxx16__aligned_membufISt4pairIKNSt7__cxx1112basic_stringIcSt11char_traitsIcESaIcEEEN7testing8internal34TypeParameterizedTestSuiteRegistry30TypeParameterizedTestSuiteInfoEEE7_M_addrEv
FN:68,_ZNK9__gnu_cxx16__aligned_membufINSt7__cxx1112basic_stringIcSt11char_traitsIcESaIcEEEE7_M_addrEv
FNDA:0,_ZNK9__gnu_cxx16__aligned_membufINSt7__cxx1112basic_stringIcSt11char_traitsIcESaIcEEEE7_M_addrEv
FN:68,_ZNK9__gnu_cxx16__aligned_membufISt4pairIKNSt7__cxx1112basic_stringIcSt11char_traitsIcESaIcEEEmEE7_M_addrEv
FNDA:0,_ZNK9__gnu_cxx16__aligned_membufISt4pairIKNSt7__cxx1112basic_stringIcSt11char_traitsIcESaIcEEEmEE7_M_addrEv
FN:72,_ZN9__gnu_cxx16__aligned_membufISt4pairIcPKcEE6_M_ptrEv
FNDA:0,_ZN9__gnu_cxx16__aligned_membufISt4pairIcPKcEE6_M_ptrEv
FN:72,_ZN9__gnu_cxx16__aligned_membufINSt7__cxx1112basic_stringIcSt11char_traitsIcESaIcEEEE6_M_ptrEv
FNDA:0,_ZN9__gnu_cxx16__aligned_membufINSt7__cxx1112basic_stringIcSt11char_traitsIcESaIcEEEE6_M_ptrEv
FN:72,_ZN9__gnu_cxx16__aligned_membufISt4pairIKNSt7__cxx1112basic_stringIcSt11char_traitsIcESaIcEEEmEE6_M_ptrEv
FNDA:0,_ZN9__gnu_cxx16__aligned_membufISt4pairIKNSt7__cxx1112basic_stringIcSt11char_traitsIcESaIcEEEmEE6_M_ptrEv
FN:72,_ZN9__gnu_cxx16__aligned_membufISt4pairIKNSt7__cxx1112basic_stringIcSt11char_traitsIcESaIcEEEN7testing8internal34TypeParameterizedTestSuiteRegistry30TypeParameterizedTestSuiteInfoEEE6_M_ptrEv
FNDA:0,_ZN9__gnu_cxx16__aligned_membufISt4pairIKNSt7__cxx1112basic_stringIcSt11char_traitsIcESaIcEEEN7testing8internal34TypeParameterizedTestSuiteRegistry30TypeParameterizedTestSuiteInfoEEE6_M_ptrEv
FN:76,_ZNK9__gnu_cxx16__aligned_membufINSt7__cxx1112basic_stringIcSt11char_traitsIcESaIcEEEE6_M_ptrEv
FNDA:0,_ZNK9__gnu_cxx16__aligned_membufINSt7__cxx1112basic_stringIcSt11char_traitsIcESaIcEEEE6_M_ptrEv
FN:76,_ZNK9__gnu_cxx16__aligned_membufISt4pairIcPKcEE6_M_ptrEv
FNDA:0,_ZNK9__gnu_cxx16__aligned_membufISt4pairIcPKcEE6_M_ptrEv
FN:76,_ZNK9__gnu_cxx16__aligned_membufISt4pairIKNSt7__cxx1112basic_stringIcSt11char_traitsIcESaIcEEEmEE6_M_ptrEv
FNDA:0,_ZNK9__gnu_cxx16__aligned_membufISt4pairIKNSt7__cxx1112basic_stringIcSt11char_traitsIcESaIcEEEmEE6_M_ptrEv
FN:76,_ZNK9__gnu_cxx16__aligned_membufISt4pairIKNSt7__cxx1112basic_stringIcSt11char_traitsIcESaIcEEEN7testing8internal34TypeParameterizedTestSuiteRegistry30TypeParameterizedTestSuiteInfoEEE6_M_ptrEv
FNDA:0,_ZNK9__gnu_cxx16__aligned_membufISt4pairIKNSt7__cxx1112basic_stringIcSt11char_traitsIcESaIcEEEN7testing8internal34TypeParameterizedTestSuiteRegistry30TypeParameterizedTestSuiteInfoEEE6_M_ptrEv
FN:102,_ZN9__gnu_cxx16__aligned_bufferISt4pairIKNSt7__cxx1112basic_stringIcSt11char_traitsIcESaIcEEEmEE7_M_addrEv
FNDA:0,_ZN9__gnu_cxx16__aligned_bufferISt4pairIKNSt7__cxx1112basic_stringIcSt11char_traitsIcESaIcEEEmEE7_M_addrEv
FN:102,_ZN9__gnu_cxx16__aligned_bufferINSt7__cxx1112basic_stringIcSt11char_traitsIcESaIcEEEE7_M_addrEv
FNDA:0,_ZN9__gnu_cxx16__aligned_bufferINSt7__cxx1112basic_stringIcSt11char_traitsIcESaIcEEEE7_M_addrEv
FN:102,_ZN9__gnu_cxx16__aligned_bufferISt4pairIKNSt7__cxx1112basic_stringIcSt11char_traitsIcESaIcEEEPN7testing9TestSuiteEEE7_M_addrEv
FNDA:6,_ZN9__gnu_cxx16__aligned_bufferISt4pairIKNSt7__cxx1112basic_stringIcSt11char_traitsIcESaIcEEEPN7testing9TestSuiteEEE7_M_addrEv
FN:108,_ZNK9__gnu_cxx16__aligned_bufferINSt7__cxx1112basic_stringIcSt11char_traitsIcESaIcEEEE7_M_addrEv
FNDA:0,_ZNK9__gnu_cxx16__aligned_bufferINSt7__cxx1112basic_stringIcSt11char_traitsIcESaIcEEEE7_M_addrEv
FN:108,_ZNK9__gnu_cxx16__aligned_bufferISt4pairIKNSt7__cxx1112basic_stringIcSt11char_traitsIcESaIcEEEPN7testing9TestSuiteEEE7_M_addrEv
FNDA:0,_ZNK9__gnu_cxx16__aligned_bufferISt4pairIKNSt7__cxx1112basic_stringIcSt11char_traitsIcESaIcEEEPN7testing9TestSuiteEEE7_M_addrEv
FN:114,_ZN9__gnu_cxx16__aligned_bufferISt4pairIKNSt7__cxx1112basic_stringIcSt11char_traitsIcESaIcEEEmEE6_M_ptrEv
FNDA:0,_ZN9__gnu_cxx16__aligned_bufferISt4pairIKNSt7__cxx1112basic_stringIcSt11char_traitsIcESaIcEEEmEE6_M_ptrEv
FN:114,_ZN9__gnu_cxx16__aligned_bufferINSt7__cxx1112basic_stringIcSt11char_traitsIcESaIcEEEE6_M_ptrEv
FNDA:0,_ZN9__gnu_cxx16__aligned_bufferINSt7__cxx1112basic_stringIcSt11char_traitsIcESaIcEEEE6_M_ptrEv
FN:114,_ZN9__gnu_cxx16__aligned_bufferISt4pairIKNSt7__cxx1112basic_stringIcSt11char_traitsIcESaIcEEEPN7testing9TestSuiteEEE6_M_ptrEv
FNDA:6,_ZN9__gnu_cxx16__aligned_bufferISt4pairIKNSt7__cxx1112basic_stringIcSt11char_traitsIcESaIcEEEPN7testing9TestSuiteEEE6_M_ptrEv
FN:118,_ZNK9__gnu_cxx16__aligned_bufferINSt7__cxx1112basic_stringIcSt11char_traitsIcESaIcEEEE6_M_ptrEv
FNDA:0,_ZNK9__gnu_cxx16__aligned_bufferINSt7__cxx1112basic_stringIcSt11char_traitsIcESaIcEEEE6_M_ptrEv
FN:118,_ZNK9__gnu_cxx16__aligned_bufferISt4pairIKNSt7__cxx1112basic_stringIcSt11char_traitsIcESaIcEEEPN7testing9TestSuiteEEE6_M_ptrEv
FNDA:0,_ZNK9__gnu_cxx16__aligned_bufferISt4pairIKNSt7__cxx1112basic_stringIcSt11char_traitsIcESaIcEEEPN7testing9TestSuiteEEE6_M_ptrEv
DA:64,0
DA:65,0
DA:64,0
DA:65,0
DA:64,0
DA:65,0
DA:64,0
DA:65,0
DA:68,0
DA:69,0
DA:68,0
DA:69,0
DA:68,0
DA:69,0
DA:68,0
DA:69,0
DA:72,0
DA:73,0
DA:72,0
DA:73,0
DA:72,0
DA:73,0
DA:72,0
DA:73,0
DA:76,0
DA:77,0
DA:76,0
DA:77,0
DA:76,0
DA:77,0
DA:76,0
DA:77,0
DA:102,0
DA:104,0
DA:102,0
DA:104,0
DA:102,6
DA:104,6
DA:108,0
DA:110,0
DA:108,0
DA:110,0
DA:114,0
DA:115,0
DA:114,0
DA:115,0
DA:114,6
DA:115,6
DA:118,0
DA:119,0
DA:118,0
DA:119,0
end_of_record
SF:/usr/include/c++/11/bits/list.tcc
FN:66,_ZNSt7__cxx1110_List_baseISt4pairIcPKcESaIS4_EE8_M_clearEv
FNDA:0,_ZNSt7__cxx1110_List_baseISt4pairIcPKcESaIS4_EE8_M_clearEv
DA:66,0
DA:70,0
DA:71,0
DA:73,0
DA:74,0
DA:75,0
DA:77,0
DA:81,0
DA:83,0
end_of_record
SF:/usr/include/c++/11/bits/allocator.h
FN:156,_ZNSaIN7testing8internal9TraceInfoEEC2Ev
FNDA:0,_ZNSaIN7testing8internal9TraceInfoEEC2Ev
FN:156,_ZNSaISt6vectorIN7testing8internal13edit_distance8EditTypeESaIS3_EEEC2Ev
FNDA:0,_ZNSaISt6vectorIN7testing8internal13edit_distance8EditTypeESaIS3_EEEC2Ev
FN:156,_ZNSaIN7testing8internal13edit_distance8EditTypeEEC2Ev
FNDA:0,_ZNSaIN7testing8internal13edit_distance8EditTypeEEC2Ev
FN:156,_ZNSaISt6vectorIdSaIdEEEC2Ev
FNDA:0,_ZNSaISt6vectorIdSaIdEEEC2Ev
FN:156,_ZNSaINSt7__cxx1112basic_stringIcSt11char_traitsIcESaIcEEEEC2Ev
FNDA:0,_ZNSaINSt7__cxx1112basic_stringIcSt11char_traitsIcESaIcEEEEC2Ev
FN:156,_ZNSaINSt8__detail10_Hash_nodeINSt7__cxx1112basic_stringIcSt11char_traitsIcESaIcEEELb1EEEEC2Ev
FNDA:6,_ZNSaINSt8__detail10_Hash_nodeINSt7__cxx1112basic_stringIcSt11char_traitsIcESaIcEEELb1EEEEC2Ev
FN:156,_ZNSaImEC2Ev
FNDA:0,_ZNSaImEC2Ev
FN:156,_ZNSaISt13_Rb_tree_nodeISt4pairIKNSt7__cxx1112basic_stringIcSt11char_traitsIcESaIcEEEmEEEC2Ev
FNDA:0,_ZNSaISt13_Rb_tree_nodeISt4pairIKNSt7__cxx1112basic_stringIcSt11char_traitsIcESaIcEEEmEEEC2Ev
FN:156,_ZNSaISt10_List_nodeISt4pairIcPKcEEEC2Ev
FNDA:0,_ZNSaISt10_List_nodeISt4pairIcPKcEEEC2Ev
FN:156,_ZNSaIN7testing14TestPartResultEEC2Ev
FNDA:23,_ZNSaIN7testing14TestPartResultEEC2Ev
FN:156,_ZNSaIN7testing12TestPropertyEEC2Ev
FNDA:23,_ZNSaIN7testing12TestPropertyEEC2Ev
FN:156,_ZNSaIPN7testing8TestInfoEEC2Ev
FNDA:2,_ZNSaIPN7testing8TestInfoEEC2Ev
FN:156,_ZNSaIiEC2Ev
FNDA:3,_ZNSaIiEC2Ev
FN:156,_ZNSaIPN7testing17TestEventListenerEEC2Ev
FNDA:1,_ZNSaIPN7testing17TestEventListenerEEC2Ev
FN:156,_ZNSaIPN7testing11EnvironmentEEC2Ev
FNDA:1,_ZNSaIPN7testing11EnvironmentEEC2Ev
FN:156,_ZNSaINSt8__detail10_Hash_nodeISt4pairIKNSt7__cxx1112basic_stringIcSt11char_traitsIcESaIcEEEPN7testing9TestSuiteEELb1EEEEC2Ev
FNDA:1,_ZNSaINSt8__detail10_Hash_nodeISt4pairIKNSt7__cxx1112basic_stringIcSt11char_traitsIcESaIcEEEPN7testing9TestSuiteEELb1EEEEC2Ev
FN:156,_ZNSaIPN7testing8internal30ParameterizedTestSuiteInfoBaseEEC2Ev
FNDA:1,_ZNSaIPN7testing8internal30ParameterizedTestSuiteInfoBaseEEC2Ev
FN:156,_ZNSaINSt8__detail10_Hash_nodeISt4pairIKNSt7__cxx1112basic_stringIcSt11char_traitsIcESaIcEEEmELb1EEEEC2Ev
FNDA:1,_ZNSaINSt8__detail10_Hash_nodeISt4pairIKNSt7__cxx1112basic_stringIcSt11char_traitsIcESaIcEEEmELb1EEEEC2Ev
FN:156,_ZNSaISt13_Rb_tree_nodeISt4pairIKNSt7__cxx1112basic_stringIcSt11char_traitsIcESaIcEEEN7testing8internal34TypeParameterizedTestSuiteRegistry30TypeParameterizedTestSuiteInfoEEEEC2Ev
FNDA:1,_ZNSaISt13_Rb_tree_nodeISt4pairIKNSt7__cxx1112basic_stringIcSt11char_traitsIcESaIcEEEN7testing8internal34TypeParameterizedTestSuiteRegistry30TypeParameterizedTestSuiteInfoEEEEC2Ev
FN:156,_ZNSaISt13_Rb_tree_nodeINSt7__cxx1112basic_stringIcSt11char_traitsIcESaIcEEEEEC2Ev
FNDA:1,_ZNSaISt13_Rb_tree_nodeINSt7__cxx1112basic_stringIcSt11char_traitsIcESaIcEEEEEC2Ev
FN:156,_ZNSaIPN7testing9TestSuiteEEC2Ev
FNDA:1,_ZNSaIPN7testing9TestSuiteEEC2Ev
FN:156,_ZNSaIdEC2Ev
FNDA:0,_ZNSaIdEC2Ev
FN:159,_ZNSaINSt7__cxx1112basic_stringIcSt11char_traitsIcESaIcEEEEC2ERKS5_
FNDA:0,_ZNSaINSt7__cxx1112basic_stringIcSt11char_traitsIcESaIcEEEEC2ERKS5_
FN:159,_ZNSaIN7testing8internal13edit_distance8EditTypeEEC2ERKS3_
FNDA:0,_ZNSaIN7testing8internal13edit_distance8EditTypeEEC2ERKS3_
FN:159,_ZNSaISt6vectorIN7testing8internal13edit_distance8EditTypeESaIS3_EEEC2ERKS6_
FNDA:0,_ZNSaISt6vectorIN7testing8internal13edit_distance8EditTypeESaIS3_EEEC2ERKS6_
FN:159,_ZNSaISt6vectorIdSaIdEEEC2ERKS2_
FNDA:0,_ZNSaISt6vectorIdSaIdEEEC2ERKS2_
FN:159,_ZNSaIdEC2ERKS_
FNDA:0,_ZNSaIdEC2ERKS_
FN:169,_ZNSaIPNSt8__detail15_Hash_node_baseEEC2INS_10_Hash_nodeISt4pairIKNSt7__cxx1112basic_stringIcSt11char_traitsIcESaIcEEEmELb1EEEEERKSaIT_E
FNDA:0,_ZNSaIPNSt8__detail15_Hash_node_baseEEC2INS_10_Hash_nodeISt4pairIKNSt7__cxx1112basic_stringIcSt11char_traitsIcESaIcEEEmELb1EEEEERKSaIT_E
FN:169,_ZNSaIPNSt8__detail15_Hash_node_baseEEC2INS_10_Hash_nodeINSt7__cxx1112basic_stringIcSt11char_traitsIcESaIcEEELb1EEEEERKSaIT_E
FNDA:0,_ZNSaIPNSt8__detail15_Hash_node_baseEEC2INS_10_Hash_nodeINSt7__cxx1112basic_stringIcSt11char_traitsIcESaIcEEELb1EEEEERKSaIT_E
FN:169,_ZNSaIPNSt8__detail15_Hash_node_baseEEC2INS_10_Hash_nodeISt4pairIKNSt7__cxx1112basic_stringIcSt11char_traitsIcESaIcEEEPN7testing9TestSuiteEELb1EEEEERKSaIT_E
FNDA:2,_ZNSaIPNSt8__detail15_Hash_node_baseEEC2INS_10_Hash_nodeISt4pairIKNSt7__cxx1112basic_stringIcSt11char_traitsIcESaIcEEEPN7testing9TestSuiteEELb1EEEEERKSaIT_E
FN:174,_ZNSaINSt8__detail10_Hash_nodeINSt7__cxx1112basic_stringIcSt11char_traitsIcESaIcEEELb1EEEED2Ev
FNDA:6,_ZNSaINSt8__detail10_Hash_nodeINSt7__cxx1112basic_stringIcSt11char_traitsIcESaIcEEELb1EEEED2Ev
FN:174,_ZNSaIdED2Ev
FNDA:0,_ZNSaIdED2Ev
FN:174,_ZNSaISt6vectorIdSaIdEEED2Ev
FNDA:0,_ZNSaISt6vectorIdSaIdEEED2Ev
FN:174,_ZNSaIN7testing8internal13edit_distance8EditTypeEED2Ev
FNDA:0,_ZNSaIN7testing8internal13edit_distance8EditTypeEED2Ev
FN:174,_ZNSaINSt7__cxx1112basic_stringIcSt11char_traitsIcESaIcEEEED2Ev
FNDA:0,_ZNSaINSt7__cxx1112basic_stringIcSt11char_traitsIcESaIcEEEED2Ev
FN:174,_ZNSaISt6vectorIN7testing8internal13edit_distance8EditTypeESaIS3_EEED2Ev
FNDA:0,_ZNSaISt6vectorIN7testing8internal13edit_distance8EditTypeESaIS3_EEED2Ev
FN:174,_ZNSaImED2Ev
FNDA:0,_ZNSaImED2Ev
FN:174,_ZNSaISt13_Rb_tree_nodeISt4pairIKNSt7__cxx1112basic_stringIcSt11char_traitsIcESaIcEEEmEEED2Ev
FNDA:0,_ZNSaISt13_Rb_tree_nodeISt4pairIKNSt7__cxx1112basic_stringIcSt11char_traitsIcESaIcEEEmEEED2Ev
FN:174,_ZNSaISt10_List_nodeISt4pairIcPKcEEED2Ev
FNDA:0,_ZNSaISt10_List_nodeISt4pairIcPKcEEED2Ev
FN:174,_ZNSaIN7testing14TestPartResultEED2Ev
FNDA:23,_ZNSaIN7testing14TestPartResultEED2Ev
FN:174,_ZNSaIN7testing12TestPropertyEED2Ev
FNDA:23,_ZNSaIN7testing12TestPropertyEED2Ev
FN:174,_ZNSaIPN7testing8TestInfoEED2Ev
FNDA:2,_ZNSaIPN7testing8TestInfoEED2Ev
FN:174,_ZNSaIiED2Ev
FNDA:3,_ZNSaIiED2Ev
FN:174,_ZNSaIPN7testing17TestEventListenerEED2Ev
FNDA:1,_ZNSaIPN7testing17TestEventListenerEED2Ev
FN:174,_ZNSaIPN7testing11EnvironmentEED2Ev
FNDA:1,_ZNSaIPN7testing11EnvironmentEED2Ev
FN:174,_ZNSaIPN7testing9TestSuiteEED2Ev
FNDA:1,_ZNSaIPN7testing9TestSuiteEED2Ev
FN:174,_ZNSaINSt8__detail10_Hash_nodeISt4pairIKNSt7__cxx1112basic_stringIcSt11char_traitsIcESaIcEEEPN7testing9TestSuiteEELb1EEEED2Ev
FNDA:1,_ZNSaINSt8__detail10_Hash_nodeISt4pairIKNSt7__cxx1112basic_stringIcSt11char_traitsIcESaIcEEEPN7testing9TestSuiteEELb1EEEED2Ev
FN:174,_ZNSaIPN7testing8internal30ParameterizedTestSuiteInfoBaseEED2Ev
FNDA:1,_ZNSaIPN7testing8internal30ParameterizedTestSuiteInfoBaseEED2Ev
FN:174,_ZNSaINSt8__detail10_Hash_nodeISt4pairIKNSt7__cxx1112basic_stringIcSt11char_traitsIcESaIcEEEmELb1EEEED2Ev
FNDA:1,_ZNSaINSt8__detail10_Hash_nodeISt4pairIKNSt7__cxx1112basic_stringIcSt11char_traitsIcESaIcEEEmELb1EEEED2Ev
FN:174,_ZNSaISt13_Rb_tree_nodeISt4pairIKNSt7__cxx1112basic_stringIcSt11char_traitsIcESaIcEEEN7testing8internal34TypeParameterizedTestSuiteRegistry30TypeParameterizedTestSuiteInfoEEEED2Ev
FNDA:1,_ZNSaISt13_Rb_tree_nodeISt4pairIKNSt7__cxx1112basic_stringIcSt11char_traitsIcESaIcEEEN7testing8internal34TypeParameterizedTestSuiteRegistry30TypeParameterizedTestSuiteInfoEEEED2Ev
FN:174,_ZNSaISt13_Rb_tree_nodeINSt7__cxx1112basic_stringIcSt11char_traitsIcESaIcEEEEED2Ev
FNDA:1,_ZNSaISt13_Rb_tree_nodeINSt7__cxx1112basic_stringIcSt11char_traitsIcESaIcEEEEED2Ev
FN:174,_ZNSaIPNSt8__detail15_Hash_node_baseEED2Ev
FNDA:2,_ZNSaIPNSt8__detail15_Hash_node_baseEED2Ev
FN:174,_ZNSaIN7testing8internal9TraceInfoEED2Ev
FNDA:0,_ZNSaIN7testing8internal9TraceInfoEED2Ev
FN:204,_ZSteqRKSaIcES1_
FNDA:0,_ZSteqRKSaIcES1_
FN:290,_ZNSt11__alloc_neqISaISt10_List_nodeISt4pairIcPKcEEELb1EE8_S_do_itERKS6_S9_
FNDA:0,_ZNSt11__alloc_neqISaISt10_List_nodeISt4pairIcPKcEEELb1EE8_S_do_itERKS6_S9_
DA:156,23
DA:156,0
DA:156,0
DA:156,0
DA:156,0
DA:156,0
DA:156,6
DA:156,0
DA:156,0
DA:156,0
DA:156,23
DA:156,0
DA:156,2
DA:156,3
DA:156,1
DA:156,1
DA:156,1
DA:156,1
DA:156,1
DA:156,1
DA:156,1
DA:156,1
DA:159,0
DA:160,0
DA:159,0
DA:160,0
DA:159,0
DA:160,0
DA:159,0
DA:160,0
DA:159,0
DA:160,0
DA:169,2
DA:169,0
DA:169,0
DA:174,2
DA:174,0
DA:174,6
DA:174,0
DA:174,0
DA:174,0
DA:174,0
DA:174,0
DA:174,0
DA:174,0
DA:174,23
DA:174,23
DA:174,0
DA:174,3
DA:174,1
DA:174,1
DA:174,1
DA:174,1
DA:174,1
DA:174,1
DA:174,1
DA:174,1
DA:174,2
DA:204,0
DA:205,0
DA:290,0
DA:291,0
end_of_record
SF:/usr/include/c++/11/bits/basic_string.tcc
FN:206,_ZNSt7__cxx1112basic_stringIcSt11char_traitsIcESaIcEE12_M_constructIPcEEvT_S7_St20forward_iterator_tag
FNDA:0,_ZNSt7__cxx1112basic_stringIcSt11char_traitsIcESaIcEE12_M_constructIPcEEvT_S7_St20forward_iterator_tag
FN:206,_ZNSt7__cxx1112basic_stringIwSt11char_traitsIwESaIwEE12_M_constructIPKwEEvT_S8_St20forward_iterator_tag
FNDA:0,_ZNSt7__cxx1112basic_stringIwSt11char_traitsIwESaIwEE12_M_constructIPKwEEvT_S8_St20forward_iterator_tag
FN:206,_ZNSt7__cxx1112basic_stringIcSt11char_traitsIcESaIcEE12_M_constructIPKcEEvT_S8_St20forward_iterator_tag
FNDA:83,_ZNSt7__cxx1112basic_stringIcSt11char_traitsIcESaIcEE12_M_constructIPKcEEvT_S8_St20forward_iterator_tag
FN:1169,_ZStplIcSt11char_traitsIcESaIcEENSt7__cxx1112basic_stringIT_T0_T1_EEPKS5_RKS8_
FNDA:0,_ZStplIcSt11char_traitsIcESaIcEENSt7__cxx1112basic_stringIT_T0_T1_EEPKS5_RKS8_
DA:206,0
DA:211,0
DA:212,0
DA:215,0
DA:217,0
DA:219,0
DA:220,0
DA:225,0
DA:226,0
DA:228,0
DA:229,0
DA:232,0
DA:233,0
DA:206,0
DA:211,0
DA:212,0
DA:215,0
DA:217,0
DA:219,0
DA:220,0
DA:225,0
DA:226,0
DA:228,0
DA:229,0
DA:232,0
DA:233,0
DA:206,83
DA:211,83
DA:212,0
DA:215,83
DA:217,83
DA:219,47
DA:220,47
DA:225,83
DA:226,0
DA:228,0
DA:229,0
DA:232,83
DA:233,83
DA:1169,0
DA:1178,0
DA:1179,0
DA:1181,0
DA:1182,0
DA:1183,0
DA:1184,0
DA:1185,0
end_of_record
SF:/usr/include/c++/11/utility
FN:178,_ZNSt10__pair_getILm0EE5__getIKNSt7__cxx1112basic_stringIcSt11char_traitsIcESaIcEEEPN7testing9TestSuiteEEERT_RSt4pairISC_T0_E
FNDA:2,_ZNSt10__pair_getILm0EE5__getIKNSt7__cxx1112basic_stringIcSt11char_traitsIcESaIcEEEPN7testing9TestSuiteEEERT_RSt4pairISC_T0_E
FN:188,_ZNSt10__pair_getILm0EE11__const_getIKNSt7__cxx1112basic_stringIcSt11char_traitsIcESaIcEEEPN7testing9TestSuiteEEERKT_RKSt4pairISC_T0_E
FNDA:0,_ZNSt10__pair_getILm0EE11__const_getIKNSt7__cxx1112basic_stringIcSt11char_traitsIcESaIcEEEPN7testing9TestSuiteEEERKT_RKSt4pairISC_T0_E
FN:223,_ZSt3getILm0EKNSt7__cxx1112basic_stringIcSt11char_traitsIcESaIcEEEPN7testing9TestSuiteEERNSt13tuple_elementIXT_ESt4pairIT0_T1_EE4typeERSE_
FNDA:2,_ZSt3getILm0EKNSt7__cxx1112basic_stringIcSt11char_traitsIcESaIcEEEPN7testing9TestSuiteEERNSt13tuple_elementIXT_ESt4pairIT0_T1_EE4typeERSE_
FN:233,_ZSt3getILm0EKNSt7__cxx1112basic_stringIcSt11char_traitsIcESaIcEEEPN7testing9TestSuiteEERKNSt13tuple_elementIXT_ESt4pairIT0_T1_EE4typeERKSE_
FNDA:0,_ZSt3getILm0EKNSt7__cxx1112basic_stringIcSt11char_traitsIcESaIcEEEPN7testing9TestSuiteEERKNSt13tuple_elementIXT_ESt4pairIT0_T1_EE4typeERKSE_
DA:178,2
DA:179,2
DA:188,0
DA:189,0
DA:223,2
DA:224,2
DA:233,0
DA:234,0
end_of_record
SF:/usr/include/c++/11/iomanip
FN:165,_ZSt7setfillIcESt8_SetfillIT_ES1_
FNDA:0,_ZSt7setfillIcESt8_SetfillIT_ES1_
FN:195,_ZSt12setprecisioni
FNDA:75,_ZSt12setprecisioni
FN:225,_ZSt4setwi
FNDA:0,_ZSt4setwi
DA:165,0
DA:166,0
DA:195,75
DA:196,75
DA:225,0
DA:226,0
end_of_record
SF:/usr/include/c++/11/bits/stl_map.h
FN:185,_ZNSt3mapINSt7__cxx1112basic_stringIcSt11char_traitsIcESaIcEEEN7testing8internal34TypeParameterizedTestSuiteRegistry30TypeParameterizedTestSuiteInfoESt4lessIS5_ESaISt4pairIKS5_S9_EEEC2Ev
FNDA:1,_ZNSt3mapINSt7__cxx1112basic_stringIcSt11char_traitsIcESaIcEEEN7testing8internal34TypeParameterizedTestSuiteRegistry30TypeParameterizedTestSuiteInfoESt4lessIS5_ESaISt4pairIKS5_S9_EEEC2Ev
FN:185,_ZNSt3mapINSt7__cxx1112basic_stringIcSt11char_traitsIcESaIcEEEmSt4lessIS5_ESaISt4pairIKS5_mEEEC2Ev
FNDA:0,_ZNSt3mapINSt7__cxx1112basic_stringIcSt11char_traitsIcESaIcEEEmSt4lessIS5_ESaISt4pairIKS5_mEEEC2Ev
FN:302,_ZNSt3mapINSt7__cxx1112basic_stringIcSt11char_traitsIcESaIcEEEN7testing8internal34TypeParameterizedTestSuiteRegistry30TypeParameterizedTestSuiteInfoESt4lessIS5_ESaISt4pairIKS5_S9_EEED2Ev
FNDA:1,_ZNSt3mapINSt7__cxx1112basic_stringIcSt11char_traitsIcESaIcEEEN7testing8internal34TypeParameterizedTestSuiteRegistry30TypeParameterizedTestSuiteInfoESt4lessIS5_ESaISt4pairIKS5_S9_EEED2Ev
FN:302,_ZNSt3mapINSt7__cxx1112basic_stringIcSt11char_traitsIcESaIcEEEmSt4lessIS5_ESaISt4pairIKS5_mEEED2Ev
FNDA:0,_ZNSt3mapINSt7__cxx1112basic_stringIcSt11char_traitsIcESaIcEEEmSt4lessIS5_ESaISt4pairIKS5_mEEED2Ev
FN:356,_ZNSt3mapINSt7__cxx1112basic_stringIcSt11char_traitsIcESaIcEEEN7testing8internal34TypeParameterizedTestSuiteRegistry30TypeParameterizedTestSuiteInfoESt4lessIS5_ESaISt4pairIKS5_S9_EEE5beginEv
FNDA:1,_ZNSt3mapINSt7__cxx1112basic_stringIcSt11char_traitsIcESaIcEEEN7testing8internal34TypeParameterizedTestSuiteRegistry30TypeParameterizedTestSuiteInfoESt4lessIS5_ESaISt4pairIKS5_S9_EEE5beginEv
FN:374,_ZNSt3mapINSt7__cxx1112basic_stringIcSt11char_traitsIcESaIcEEEmSt4lessIS5_ESaISt4pairIKS5_mEEE3endEv
FNDA:0,_ZNSt3mapINSt7__cxx1112basic_stringIcSt11char_traitsIcESaIcEEEmSt4lessIS5_ESaISt4pairIKS5_mEEE3endEv
FN:374,_ZNSt3mapINSt7__cxx1112basic_stringIcSt11char_traitsIcESaIcEEEN7testing8internal34TypeParameterizedTestSuiteRegistry30TypeParameterizedTestSuiteInfoESt4lessIS5_ESaISt4pairIKS5_S9_EEE3endEv
FNDA:1,_ZNSt3mapINSt7__cxx1112basic_stringIcSt11char_traitsIcESaIcEEEN7testing8internal34TypeParameterizedTestSuiteRegistry30TypeParameterizedTestSuiteInfoESt4lessIS5_ESaISt4pairIKS5_S9_EEE3endEv
FN:470,_ZNKSt3mapINSt7__cxx1112basic_stringIcSt11char_traitsIcESaIcEEEmSt4lessIS5_ESaISt4pairIKS5_mEEE4sizeEv
FNDA:0,_ZNKSt3mapINSt7__cxx1112basic_stringIcSt11char_traitsIcESaIcEEEmSt4lessIS5_ESaISt4pairIKS5_mEEE4sizeEv
FN:492,_ZNSt3mapINSt7__cxx1112basic_stringIcSt11char_traitsIcESaIcEEEmSt4lessIS5_ESaISt4pairIKS5_mEEEixERS9_
FNDA:0,_ZNSt3mapINSt7__cxx1112basic_stringIcSt11char_traitsIcESaIcEEEmSt4lessIS5_ESaISt4pairIKS5_mEEEixERS9_
FN:576,_ZNSt3mapINSt7__cxx1112basic_stringIcSt11char_traitsIcESaIcEEEN7testing8internal34TypeParameterizedTestSuiteRegistry30TypeParameterizedTestSuiteInfoESt4lessIS5_ESaISt4pairIKS5_S9_EEE7emplaceIJS5_S9_EEESC_ISt17_Rb_tree_iteratorISE_EbEDpOT_
FNDA:0,_ZNSt3mapINSt7__cxx1112basic_stringIcSt11char_traitsIcESaIcEEEN7testing8internal34TypeParameterizedTestSuiteRegistry30TypeParameterizedTestSuiteInfoESt4lessIS5_ESaISt4pairIKS5_S9_EEE7emplaceIJS5_S9_EEESC_ISt17_Rb_tree_iteratorISE_EbEDpOT_
FN:1142,_ZNKSt3mapINSt7__cxx1112basic_stringIcSt11char_traitsIcESaIcEEEmSt4lessIS5_ESaISt4pairIKS5_mEEE8key_compEv
FNDA:0,_ZNKSt3mapINSt7__cxx1112basic_stringIcSt11char_traitsIcESaIcEEEmSt4lessIS5_ESaISt4pairIKS5_mEEE8key_compEv
FN:1169,_ZNSt3mapINSt7__cxx1112basic_stringIcSt11char_traitsIcESaIcEEEmSt4lessIS5_ESaISt4pairIKS5_mEEE4findERS9_
FNDA:0,_ZNSt3mapINSt7__cxx1112basic_stringIcSt11char_traitsIcESaIcEEEmSt4lessIS5_ESaISt4pairIKS5_mEEE4findERS9_
FN:1169,_ZNSt3mapINSt7__cxx1112basic_stringIcSt11char_traitsIcESaIcEEEN7testing8internal34TypeParameterizedTestSuiteRegistry30TypeParameterizedTestSuiteInfoESt4lessIS5_ESaISt4pairIKS5_S9_EEE4findERSD_
FNDA:0,_ZNSt3mapINSt7__cxx1112basic_stringIcSt11char_traitsIcESaIcEEEN7testing8internal34TypeParameterizedTestSuiteRegistry30TypeParameterizedTestSuiteInfoESt4lessIS5_ESaISt4pairIKS5_S9_EEE4findERSD_
FN:1258,_ZNSt3mapINSt7__cxx1112basic_stringIcSt11char_traitsIcESaIcEEEmSt4lessIS5_ESaISt4pairIKS5_mEEE11lower_boundERS9_
FNDA:0,_ZNSt3mapINSt7__cxx1112basic_stringIcSt11char_traitsIcESaIcEEEmSt4lessIS5_ESaISt4pairIKS5_mEEE11lower_boundERS9_
DA:185,1
DA:185,0
DA:302,1
DA:302,0
DA:356,1
DA:357,1
DA:374,0
DA:375,0
DA:374,1
DA:375,1
DA:470,0
DA:471,0
DA:492,0
DA:497,0
DA:499,0
DA:501,0
DA:502,0
DA:503,0
DA:507,0
DA:576,0
DA:577,0
DA:1142,0
DA:1143,0
DA:1169,0
DA:1170,0
DA:1169,0
DA:1170,0
DA:1258,0
DA:1259,0
end_of_record
SF:/usr/include/c++/11/type_traits
FN:70,_ZNKSt17integral_constantIbLb1EEcvbEv
FNDA:0,_ZNKSt17integral_constantIbLb1EEcvbEv
DA:70,0
end_of_record
SF:/usr/include/c++/11/bits/predefined_ops.h
FN:150,_ZN9__gnu_cxx5__ops15_Iter_comp_iterIZN7testing9TestSuite3RunEvEUlPKNS2_8TestInfoES6_E_EC2ES7_
FNDA:2,_ZN9__gnu_cxx5__ops15_Iter_comp_iterIZN7testing9TestSuite3RunEvEUlPKNS2_8TestInfoES6_E_EC2ES7_
FN:157,_ZN9__gnu_cxx5__ops15_Iter_comp_iterIZN7testing9TestSuite3RunEvEUlPKNS2_8TestInfoES6_E_EclINS_17__normal_iteratorIPPS4_St6vectorISB_SaISB_EEEESC_EEbT_T0_
FNDA:0,_ZN9__gnu_cxx5__ops15_Iter_comp_iterIZN7testing9TestSuite3RunEvEUlPKNS2_8TestInfoES6_E_EclINS_17__normal_iteratorIPPS4_St6vectorISB_SaISB_EEEESC_EEbT_T0_
FN:157,_ZN9__gnu_cxx5__ops15_Iter_comp_iterIZN7testing9TestSuite3RunEvEUlPKNS2_8TestInfoES6_E_EclINS_17__normal_iteratorIPPS4_St6vectorISB_SaISB_EEEESG_EEbT_T0_
FNDA:16,_ZN9__gnu_cxx5__ops15_Iter_comp_iterIZN7testing9TestSuite3RunEvEUlPKNS2_8TestInfoES6_E_EclINS_17__normal_iteratorIPPS4_St6vectorISB_SaISB_EEEESG_EEbT_T0_
FN:157,_ZN9__gnu_cxx5__ops15_Iter_comp_iterIZN7testing9TestSuite3RunEvEUlPKNS2_8TestInfoES6_E_EclIPPS4_SB_EEbT_T0_
FNDA:0,_ZN9__gnu_cxx5__ops15_Iter_comp_iterIZN7testing9TestSuite3RunEvEUlPKNS2_8TestInfoES6_E_EclIPPS4_SB_EEbT_T0_
FN:157,_ZN9__gnu_cxx5__ops15_Iter_comp_iterIZN7testing9TestSuite3RunEvEUlPKNS2_8TestInfoES6_E_EclIPPS4_NS_17__normal_iteratorISB_St6vectorISA_SaISA_EEEEEEbT_T0_
FNDA:9,_ZN9__gnu_cxx5__ops15_Iter_comp_iterIZN7testing9TestSuite3RunEvEUlPKNS2_8TestInfoES6_E_EclIPPS4_NS_17__normal_iteratorISB_St6vectorISA_SaISA_EEEEEEbT_T0_
FN:164,_ZN9__gnu_cxx5__ops16__iter_comp_iterIZN7testing9TestSuite3RunEvEUlPKNS2_8TestInfoES6_E_EENS0_15_Iter_comp_iterIT_EES9_
FNDA:2,_ZN9__gnu_cxx5__ops16__iter_comp_iterIZN7testing9TestSuite3RunEvEUlPKNS2_8TestInfoES6_E_EENS0_15_Iter_comp_iterIT_EES9_
FN:187,_ZN9__gnu_cxx5__ops14_Iter_comp_valIZN7testing9TestSuite3RunEvEUlPKNS2_8TestInfoES6_E_EC2EONS0_15_Iter_comp_iterIS7_EE
FNDA:0,_ZN9__gnu_cxx5__ops14_Iter_comp_valIZN7testing9TestSuite3RunEvEUlPKNS2_8TestInfoES6_E_EC2EONS0_15_Iter_comp_iterIS7_EE
FN:195,_ZN9__gnu_cxx5__ops14_Iter_comp_valIZN7testing9TestSuite3RunEvEUlPKNS2_8TestInfoES6_E_EclINS_17__normal_iteratorIPPS4_St6vectorISB_SaISB_EEEEKSB_EEbT_RT0_
FNDA:0,_ZN9__gnu_cxx5__ops14_Iter_comp_valIZN7testing9TestSuite3RunEvEUlPKNS2_8TestInfoES6_E_EclINS_17__normal_iteratorIPPS4_St6vectorISB_SaISB_EEEEKSB_EEbT_RT0_
FN:208,_ZN9__gnu_cxx5__ops15__iter_comp_valIZN7testing9TestSuite3RunEvEUlPKNS2_8TestInfoES6_E_EENS0_14_Iter_comp_valIT_EENS0_15_Iter_comp_iterIS9_EE
FNDA:0,_ZN9__gnu_cxx5__ops15__iter_comp_valIZN7testing9TestSuite3RunEvEUlPKNS2_8TestInfoES6_E_EENS0_14_Iter_comp_valIT_EENS0_15_Iter_comp_iterIS9_EE
FN:231,_ZN9__gnu_cxx5__ops14_Val_comp_iterIZN7testing9TestSuite3RunEvEUlPKNS2_8TestInfoES6_E_EC2EONS0_15_Iter_comp_iterIS7_EE
FNDA:16,_ZN9__gnu_cxx5__ops14_Val_comp_iterIZN7testing9TestSuite3RunEvEUlPKNS2_8TestInfoES6_E_EC2EONS0_15_Iter_comp_iterIS7_EE
FN:239,_ZN9__gnu_cxx5__ops14_Val_comp_iterIZN7testing9TestSuite3RunEvEUlPKNS2_8TestInfoES6_E_EclIPS4_NS_17__normal_iteratorIPSA_St6vectorISA_SaISA_EEEEEEbRT_T0_
FNDA:16,_ZN9__gnu_cxx5__ops14_Val_comp_iterIZN7testing9TestSuite3RunEvEUlPKNS2_8TestInfoES6_E_EclIPS4_NS_17__normal_iteratorIPSA_St6vectorISA_SaISA_EEEEEEbRT_T0_
FN:239,_ZN9__gnu_cxx5__ops14_Val_comp_iterIZN7testing9TestSuite3RunEvEUlPKNS2_8TestInfoES6_E_EclIKPS4_NS_17__normal_iteratorIPSA_St6vectorISA_SaISA_EEEEEEbRT_T0_
FNDA:0,_ZN9__gnu_cxx5__ops14_Val_comp_iterIZN7testing9TestSuite3RunEvEUlPKNS2_8TestInfoES6_E_EclIKPS4_NS_17__normal_iteratorIPSA_St6vectorISA_SaISA_EEEEEEbRT_T0_
FN:252,_ZN9__gnu_cxx5__ops15__val_comp_iterIZN7testing9TestSuite3RunEvEUlPKNS2_8TestInfoES6_E_EENS0_14_Val_comp_iterIT_EENS0_15_Iter_comp_iterIS9_EE
FNDA:16,_ZN9__gnu_cxx5__ops15__val_comp_iterIZN7testing9TestSuite3RunEvEUlPKNS2_8TestInfoES6_E_EENS0_14_Val_comp_iterIT_EENS0_15_Iter_comp_iterIS9_EE
FN:262,_ZN9__gnu_cxx5__ops16_Iter_equals_valIKNSt7__cxx1112basic_stringIcSt11char_traitsIcESaIcEEEEC2ERS8_
FNDA:0,_ZN9__gnu_cxx5__ops16_Iter_equals_valIKNSt7__cxx1112basic_stringIcSt11char_traitsIcESaIcEEEEC2ERS8_
FN:269,_ZN9__gnu_cxx5__ops16_Iter_equals_valIKNSt7__cxx1112basic_stringIcSt11char_traitsIcESaIcEEEEclINS_17__normal_iteratorIPS8_St6vectorIS7_SaIS7_EEEEEEbT_
FNDA:0,_ZN9__gnu_cxx5__ops16_Iter_equals_valIKNSt7__cxx1112basic_stringIcSt11char_traitsIcESaIcEEEEclINS_17__normal_iteratorIPS8_St6vectorIS7_SaIS7_EEEEEEbT_
FN:276,_ZN9__gnu_cxx5__ops17__iter_equals_valIKNSt7__cxx1112basic_stringIcSt11char_traitsIcESaIcEEEEENS0_16_Iter_equals_valIT_EERSA_
FNDA:0,_ZN9__gnu_cxx5__ops17__iter_equals_valIKNSt7__cxx1112basic_stringIcSt11char_traitsIcESaIcEEEEENS0_16_Iter_equals_valIT_EERSA_
FN:310,_ZN9__gnu_cxx5__ops10_Iter_predIZNK7testing8internal12_GLOBAL__N_114UnitTestFilter11MatchesNameERKNSt7__cxx1112basic_stringIcSt11char_traitsIcESaIcEEEEUlSD_E_EC2ESE_
FNDA:82,_ZN9__gnu_cxx5__ops10_Iter_predIZNK7testing8internal12_GLOBAL__N_114UnitTestFilter11MatchesNameERKNSt7__cxx1112basic_stringIcSt11char_traitsIcESaIcEEEEUlSD_E_EC2ESE_
FN:310,_ZN9__gnu_cxx5__ops10_Iter_predIN7testing8internal17TestPropertyKeyIsEEC2ES4_
FNDA:0,_ZN9__gnu_cxx5__ops10_Iter_predIN7testing8internal17TestPropertyKeyIsEEC2ES4_
FN:310,_ZN9__gnu_cxx5__ops10_Iter_predIZN7testing8internal12_GLOBAL__N_113IsGlobPatternERKNSt7__cxx1112basic_stringIcSt11char_traitsIcESaIcEEEEUlcE_EC2ESD_
FNDA:7,_ZN9__gnu_cxx5__ops10_Iter_predIZN7testing8internal12_GLOBAL__N_113IsGlobPatternERKNSt7__cxx1112basic_stringIcSt11char_traitsIcESaIcEEEEUlcE_EC2ESD_
FN:317,_ZN9__gnu_cxx5__ops10_Iter_predIN7testing8internal17TestPropertyKeyIsEEclINS_17__normal_iteratorIPNS2_12TestPropertyESt6vectorIS8_SaIS8_EEEEEEbT_
FNDA:0,_ZN9__gnu_cxx5__ops10_Iter_predIN7testing8internal17TestPropertyKeyIsEEclINS_17__normal_iteratorIPNS2_12TestPropertyESt6vectorIS8_SaIS8_EEEEEEbT_
FN:317,_ZN9__gnu_cxx5__ops10_Iter_predIZN7testing8internal12_GLOBAL__N_113IsGlobPatternERKNSt7__cxx1112basic_stringIcSt11char_traitsIcESaIcEEEEUlcE_EclINS_17__normal_iteratorIPKcSA_EEEEbT_
FNDA:16,_ZN9__gnu_cxx5__ops10_Iter_predIZN7testing8internal12_GLOBAL__N_113IsGlobPatternERKNSt7__cxx1112basic_stringIcSt11char_traitsIcESaIcEEEEUlcE_EclINS_17__normal_iteratorIPKcSA_EEEEbT_
FN:317,_ZN9__gnu_cxx5__ops10_Iter_predIZNK7testing8internal12_GLOBAL__N_114UnitTestFilter11MatchesNameERKNSt7__cxx1112basic_stringIcSt11char_traitsIcESaIcEEEEUlSD_E_EclINS_17__normal_iteratorIPSC_St6vectorISB_SaISB_EEEEEEbT_
FNDA:104,_ZN9__gnu_cxx5__ops10_Iter_predIZNK7testing8internal12_GLOBAL__N_114UnitTestFilter11MatchesNameERKNSt7__cxx1112basic_stringIcSt11char_traitsIcESaIcEEEEUlSD_E_EclINS_17__normal_iteratorIPSC_St6vectorISB_SaISB_EEEEEEbT_
FN:324,_ZN9__gnu_cxx5__ops11__pred_iterIZN7testing8internal12_GLOBAL__N_113IsGlobPatternERKNSt7__cxx1112basic_stringIcSt11char_traitsIcESaIcEEEEUlcE_EENS0_10_Iter_predIT_EESF_
FNDA:7,_ZN9__gnu_cxx5__ops11__pred_iterIZN7testing8internal12_GLOBAL__N_113IsGlobPatternERKNSt7__cxx1112basic_stringIcSt11char_traitsIcESaIcEEEEUlcE_EENS0_10_Iter_predIT_EESF_
FN:324,_ZN9__gnu_cxx5__ops11__pred_iterIZNK7testing8internal12_GLOBAL__N_114UnitTestFilter11MatchesNameERKNSt7__cxx1112basic_stringIcSt11char_traitsIcESaIcEEEEUlSD_E_EENS0_10_Iter_predIT_EESG_
FNDA:82,_ZN9__gnu_cxx5__ops11__pred_iterIZNK7testing8internal12_GLOBAL__N_114UnitTestFilter11MatchesNameERKNSt7__cxx1112basic_stringIcSt11char_traitsIcESaIcEEEEUlSD_E_EENS0_10_Iter_predIT_EESG_
FN:324,_ZN9__gnu_cxx5__ops11__pred_iterIN7testing8internal17TestPropertyKeyIsEEENS0_10_Iter_predIT_EES6_
FNDA:0,_ZN9__gnu_cxx5__ops11__pred_iterIN7testing8internal17TestPropertyKeyIsEEENS0_10_Iter_predIT_EES6_
DA:150,2
DA:151,2
DA:152,2
DA:157,0
DA:158,0
DA:157,9
DA:158,9
DA:157,0
DA:158,0
DA:157,16
DA:158,16
DA:164,2
DA:165,2
DA:187,0
DA:188,0
DA:189,0
DA:195,0
DA:196,0
DA:208,0
DA:209,0
DA:231,16
DA:232,16
DA:233,16
DA:239,0
DA:240,0
DA:239,16
DA:240,16
DA:252,16
DA:253,16
DA:262,0
DA:263,0
DA:264,0
DA:269,0
DA:270,0
DA:276,0
DA:277,0
DA:310,82
DA:311,82
DA:312,82
DA:310,7
DA:311,7
DA:312,7
DA:310,0
DA:311,0
DA:312,0
DA:317,104
DA:318,104
DA:317,16
DA:318,16
DA:317,0
DA:318,0
DA:324,82
DA:325,82
DA:324,7
DA:325,7
DA:324,0
DA:325,0
end_of_record
SF:/usr/include/c++/11/bits/stl_iterator_base_funcs.h
FN:98,_ZSt10__distanceIN9__gnu_cxx17__normal_iteratorIPPN7testing8TestInfoESt6vectorIS4_SaIS4_EEEEENSt15iterator_traitsIT_E15difference_typeESB_SB_St26random_access_iterator_tag
FNDA:0,_ZSt10__distanceIN9__gnu_cxx17__normal_iteratorIPPN7testing8TestInfoESt6vectorIS4_SaIS4_EEEEENSt15iterator_traitsIT_E15difference_typeESB_SB_St26random_access_iterator_tag
FN:98,_ZSt10__distanceIPcENSt15iterator_traitsIT_E15difference_typeES2_S2_St26random_access_iterator_tag
FNDA:0,_ZSt10__distanceIPcENSt15iterator_traitsIT_E15difference_typeES2_S2_St26random_access_iterator_tag
FN:98,_ZSt10__distanceIPKPKcENSt15iterator_traitsIT_E15difference_typeES5_S5_St26random_access_iterator_tag
FNDA:0,_ZSt10__distanceIPKPKcENSt15iterator_traitsIT_E15difference_typeES5_S5_St26random_access_iterator_tag
FN:98,_ZSt10__distanceIPKwENSt15iterator_traitsIT_E15difference_typeES3_S3_St26random_access_iterator_tag
FNDA:0,_ZSt10__distanceIPKwENSt15iterator_traitsIT_E15difference_typeES3_S3_St26random_access_iterator_tag
FN:98,_ZSt10__distanceIPKcENSt15iterator_traitsIT_E15difference_typeES3_S3_St26random_access_iterator_tag
FNDA:83,_ZSt10__distanceIPKcENSt15iterator_traitsIT_E15difference_typeES3_S3_St26random_access_iterator_tag
FN:98,_ZSt10__distanceIN9__gnu_cxx17__normal_iteratorIPNSt7__cxx1112basic_stringIcSt11char_traitsIcESaIcEEESt6vectorIS7_SaIS7_EEEEENSt15iterator_traitsIT_E15difference_typeESE_SE_St26random_access_iterator_tag
FNDA:4,_ZSt10__distanceIN9__gnu_cxx17__normal_iteratorIPNSt7__cxx1112basic_stringIcSt11char_traitsIcESaIcEEESt6vectorIS7_SaIS7_EEEEENSt15iterator_traitsIT_E15difference_typeESE_SE_St26random_access_iterator_tag
FN:138,_ZSt8distanceIN9__gnu_cxx17__normal_iteratorIPPN7testing8TestInfoESt6vectorIS4_SaIS4_EEEEENSt15iterator_traitsIT_E15difference_typeESB_SB_
FNDA:0,_ZSt8distanceIN9__gnu_cxx17__normal_iteratorIPPN7testing8TestInfoESt6vectorIS4_SaIS4_EEEEENSt15iterator_traitsIT_E15difference_typeESB_SB_
FN:138,_ZSt8distanceIPcENSt15iterator_traitsIT_E15difference_typeES2_S2_
FNDA:0,_ZSt8distanceIPcENSt15iterator_traitsIT_E15difference_typeES2_S2_
FN:138,_ZSt8distanceIPKPKcENSt15iterator_traitsIT_E15difference_typeES5_S5_
FNDA:0,_ZSt8distanceIPKPKcENSt15iterator_traitsIT_E15difference_typeES5_S5_
FN:138,_ZSt8distanceIPKwENSt15iterator_traitsIT_E15difference_typeES3_S3_
FNDA:0,_ZSt8distanceIPKwENSt15iterator_traitsIT_E15difference_typeES3_S3_
FN:138,_ZSt8distanceIPKcENSt15iterator_traitsIT_E15difference_typeES3_S3_
FNDA:83,_ZSt8distanceIPKcENSt15iterator_traitsIT_E15difference_typeES3_S3_
FN:138,_ZSt8distanceIN9__gnu_cxx17__normal_iteratorIPNSt7__cxx1112basic_stringIcSt11char_traitsIcESaIcEEESt6vectorIS7_SaIS7_EEEEENSt15iterator_traitsIT_E15difference_typeESE_SE_
FNDA:4,_ZSt8distanceIN9__gnu_cxx17__normal_iteratorIPNSt7__cxx1112basic_stringIcSt11char_traitsIcESaIcEEESt6vectorIS7_SaIS7_EEEEENSt15iterator_traitsIT_E15difference_typeESE_SE_
FN:174,_ZSt9__advanceIN9__gnu_cxx17__normal_iteratorIPPN7testing8TestInfoESt6vectorIS4_SaIS4_EEEElEvRT_T0_St26random_access_iterator_tag
FNDA:0,_ZSt9__advanceIN9__gnu_cxx17__normal_iteratorIPPN7testing8TestInfoESt6vectorIS4_SaIS4_EEEElEvRT_T0_St26random_access_iterator_tag
FN:202,_ZSt7advanceIN9__gnu_cxx17__normal_iteratorIPPN7testing8TestInfoESt6vectorIS4_SaIS4_EEEElEvRT_T0_
FNDA:0,_ZSt7advanceIN9__gnu_cxx17__normal_iteratorIPPN7testing8TestInfoESt6vectorIS4_SaIS4_EEEElEvRT_T0_
DA:98,0
DA:104,0
DA:98,0
DA:104,0
DA:98,0
DA:104,0
DA:98,0
DA:104,0
DA:98,83
DA:104,83
DA:98,4
DA:104,4
DA:138,0
DA:141,0
DA:142,0
DA:138,0
DA:141,0
DA:142,0
DA:138,0
DA:141,0
DA:142,0
DA:138,0
DA:141,0
DA:142,0
DA:138,83
DA:141,83
DA:142,166
DA:138,4
DA:141,4
DA:142,8
DA:174,0
DA:185,0
DA:186,0
DA:202,0
DA:205,0
DA:206,0
DA:207,0
end_of_record
SF:/usr/include/c++/11/bits/stl_uninitialized.h
FN:85,_ZNSt20__uninitialized_copyILb0EE13__uninit_copyISt13move_iteratorIPN7testing12TestPropertyEES5_EET0_T_S8_S7_
FNDA:0,_ZNSt20__uninitialized_copyILb0EE13__uninit_copyISt13move_iteratorIPN7testing12TestPropertyEES5_EET0_T_S8_S7_
FN:85,_ZNSt20__uninitialized_copyILb0EE13__uninit_copyIPKPKcPNSt7__cxx1112basic_stringIcSt11char_traitsIcESaIcEEEEET0_T_SE_SD_
FNDA:0,_ZNSt20__uninitialized_copyILb0EE13__uninit_copyIPKPKcPNSt7__cxx1112basic_stringIcSt11char_traitsIcESaIcEEEEET0_T_SE_SD_
FN:85,_ZNSt20__uninitialized_copyILb0EE13__uninit_copyIN9__gnu_cxx17__normal_iteratorIPKNSt7__cxx1112basic_stringIcSt11char_traitsIcESaIcEEESt6vectorIS9_SaIS9_EEEEPS9_EET0_T_SI_SH_
FNDA:0,_ZNSt20__uninitialized_copyILb0EE13__uninit_copyIN9__gnu_cxx17__normal_iteratorIPKNSt7__cxx1112basic_stringIcSt11char_traitsIcESaIcEEESt6vectorIS9_SaIS9_EEEEPS9_EET0_T_SI_SH_
FN:85,_ZNSt20__uninitialized_copyILb0EE13__uninit_copyISt13move_iteratorIPN7testing14TestPartResultEES5_EET0_T_S8_S7_
FNDA:0,_ZNSt20__uninitialized_copyILb0EE13__uninit_copyISt13move_iteratorIPN7testing14TestPartResultEES5_EET0_T_S8_S7_
FN:85,_ZNSt20__uninitialized_copyILb0EE13__uninit_copyISt13move_iteratorIPNSt7__cxx1112basic_stringIcSt11char_traitsIcESaIcEEEES9_EET0_T_SC_SB_
FNDA:0,_ZNSt20__uninitialized_copyILb0EE13__uninit_copyISt13move_iteratorIPNSt7__cxx1112basic_stringIcSt11char_traitsIcESaIcEEEES9_EET0_T_SC_SB_
FN:85,_ZNSt20__uninitialized_copyILb0EE13__uninit_copyISt13move_iteratorIPN7testing8internal9TraceInfoEES6_EET0_T_S9_S8_
FNDA:0,_ZNSt20__uninitialized_copyILb0EE13__uninit_copyISt13move_iteratorIPN7testing8internal9TraceInfoEES6_EET0_T_S9_S8_
FN:108,_ZNSt20__uninitialized_copyILb1EE13__uninit_copyISt13move_iteratorIPPN7testing9TestSuiteEES6_EET0_T_S9_S8_
FNDA:0,_ZNSt20__uninitialized_copyILb1EE13__uninit_copyISt13move_iteratorIPPN7testing9TestSuiteEES6_EET0_T_S9_S8_
FN:108,_ZNSt20__uninitialized_copyILb1EE13__uninit_copyISt13move_iteratorIPPN7testing8TestInfoEES6_EET0_T_S9_S8_
FNDA:0,_ZNSt20__uninitialized_copyILb1EE13__uninit_copyISt13move_iteratorIPPN7testing8TestInfoEES6_EET0_T_S9_S8_
FN:108,_ZNSt20__uninitialized_copyILb1EE13__uninit_copyISt13move_iteratorIPN7testing8internal13edit_distance8EditTypeEES7_EET0_T_SA_S9_
FNDA:0,_ZNSt20__uninitialized_copyILb1EE13__uninit_copyISt13move_iteratorIPN7testing8internal13edit_distance8EditTypeEES7_EET0_T_SA_S9_
FN:108,_ZNSt20__uninitialized_copyILb1EE13__uninit_copyISt13move_iteratorIPPN7testing17TestEventListenerEES6_EET0_T_S9_S8_
FNDA:0,_ZNSt20__uninitialized_copyILb1EE13__uninit_copyISt13move_iteratorIPPN7testing17TestEventListenerEES6_EET0_T_S9_S8_
FN:108,_ZNSt20__uninitialized_copyILb1EE13__uninit_copyISt13move_iteratorIPPN7testing11EnvironmentEES6_EET0_T_S9_S8_
FNDA:0,_ZNSt20__uninitialized_copyILb1EE13__uninit_copyISt13move_iteratorIPPN7testing11EnvironmentEES6_EET0_T_S9_S8_
FN:108,_ZNSt20__uninitialized_copyILb1EE13__uninit_copyISt13move_iteratorIPmES3_EET0_T_S6_S5_
FNDA:0,_ZNSt20__uninitialized_copyILb1EE13__uninit_copyISt13move_iteratorIPmES3_EET0_T_S6_S5_
FN:108,_ZNSt20__uninitialized_copyILb1EE13__uninit_copyIN9__gnu_cxx17__normal_iteratorIPKN7testing8internal13edit_distance8EditTypeESt6vectorIS7_SaIS7_EEEEPS7_EET0_T_SG_SF_
FNDA:0,_ZNSt20__uninitialized_copyILb1EE13__uninit_copyIN9__gnu_cxx17__normal_iteratorIPKN7testing8internal13edit_distance8EditTypeESt6vectorIS7_SaIS7_EEEEPS7_EET0_T_SG_SF_
FN:108,_ZNSt20__uninitialized_copyILb1EE13__uninit_copyISt13move_iteratorIPiES3_EET0_T_S6_S5_
FNDA:0,_ZNSt20__uninitialized_copyILb1EE13__uninit_copyISt13move_iteratorIPiES3_EET0_T_S6_S5_
FN:108,_ZNSt20__uninitialized_copyILb1EE13__uninit_copyIN9__gnu_cxx17__normal_iteratorIPKdSt6vectorIdSaIdEEEEPdEET0_T_SC_SB_
FNDA:0,_ZNSt20__uninitialized_copyILb1EE13__uninit_copyIN9__gnu_cxx17__normal_iteratorIPKdSt6vectorIdSaIdEEEEPdEET0_T_SC_SB_
FN:126,_ZSt18uninitialized_copyISt13move_iteratorIPPN7testing8TestInfoEES4_ET0_T_S7_S6_
FNDA:0,_ZSt18uninitialized_copyISt13move_iteratorIPPN7testing8TestInfoEES4_ET0_T_S7_S6_
FN:126,_ZSt18uninitialized_copyISt13move_iteratorIPN7testing12TestPropertyEES3_ET0_T_S6_S5_
FNDA:0,_ZSt18uninitialized_copyISt13move_iteratorIPN7testing12TestPropertyEES3_ET0_T_S6_S5_
FN:126,_ZSt18uninitialized_copyISt13move_iteratorIPPN7testing17TestEventListenerEES4_ET0_T_S7_S6_
FNDA:0,_ZSt18uninitialized_copyISt13move_iteratorIPPN7testing17TestEventListenerEES4_ET0_T_S7_S6_
FN:126,_ZSt18uninitialized_copyIPKPKcPNSt7__cxx1112basic_stringIcSt11char_traitsIcESaIcEEEET0_T_SC_SB_
FNDA:0,_ZSt18uninitialized_copyIPKPKcPNSt7__cxx1112basic_stringIcSt11char_traitsIcESaIcEEEET0_T_SC_SB_
FN:126,_ZSt18uninitialized_copyISt13move_iteratorIPPN7testing11EnvironmentEES4_ET0_T_S7_S6_
FNDA:0,_ZSt18uninitialized_copyISt13move_iteratorIPPN7testing11EnvironmentEES4_ET0_T_S7_S6_
FN:126,_ZSt18uninitialized_copyISt13move_iteratorIPN7testing8internal9TraceInfoEES4_ET0_T_S7_S6_
FNDA:0,_ZSt18uninitialized_copyISt13move_iteratorIPN7testing8internal9TraceInfoEES4_ET0_T_S7_S6_
FN:126,_ZSt18uninitialized_copyISt13move_iteratorIPN7testing14TestPartResultEES3_ET0_T_S6_S5_
FNDA:0,_ZSt18uninitialized_copyISt13move_iteratorIPN7testing14TestPartResultEES3_ET0_T_S6_S5_
FN:126,_ZSt18uninitialized_copyISt13move_iteratorIPPN7testing9TestSuiteEES4_ET0_T_S7_S6_
FNDA:0,_ZSt18uninitialized_copyISt13move_iteratorIPPN7testing9TestSuiteEES4_ET0_T_S7_S6_
FN:126,_ZSt18uninitialized_copyISt13move_iteratorIPmES1_ET0_T_S4_S3_
FNDA:0,_ZSt18uninitialized_copyISt13move_iteratorIPmES1_ET0_T_S4_S3_
FN:126,_ZSt18uninitialized_copyISt13move_iteratorIPN7testing8internal13edit_distance8EditTypeEES5_ET0_T_S8_S7_
FNDA:0,_ZSt18uninitialized_copyISt13move_iteratorIPN7testing8internal13edit_distance8EditTypeEES5_ET0_T_S8_S7_
FN:126,_ZSt18uninitialized_copyISt13move_iteratorIPNSt7__cxx1112basic_stringIcSt11char_traitsIcESaIcEEEES7_ET0_T_SA_S9_
FNDA:0,_ZSt18uninitialized_copyISt13move_iteratorIPNSt7__cxx1112basic_stringIcSt11char_traitsIcESaIcEEEES7_ET0_T_SA_S9_
FN:126,_ZSt18uninitialized_copyIN9__gnu_cxx17__normal_iteratorIPKNSt7__cxx1112basic_stringIcSt11char_traitsIcESaIcEEESt6vectorIS7_SaIS7_EEEEPS7_ET0_T_SG_SF_
FNDA:0,_ZSt18uninitialized_copyIN9__gnu_cxx17__normal_iteratorIPKNSt7__cxx1112basic_stringIcSt11char_traitsIcESaIcEEESt6vectorIS7_SaIS7_EEEEPS7_ET0_T_SG_SF_
FN:126,_ZSt18uninitialized_copyIN9__gnu_cxx17__normal_iteratorIPKN7testing8internal13edit_distance8EditTypeESt6vectorIS5_SaIS5_EEEEPS5_ET0_T_SE_SD_
FNDA:0,_ZSt18uninitialized_copyIN9__gnu_cxx17__normal_iteratorIPKN7testing8internal13edit_distance8EditTypeESt6vectorIS5_SaIS5_EEEEPS5_ET0_T_SE_SD_
FN:126,_ZSt18uninitialized_copyIN9__gnu_cxx17__normal_iteratorIPKdSt6vectorIdSaIdEEEEPdET0_T_SA_S9_
FNDA:0,_ZSt18uninitialized_copyIN9__gnu_cxx17__normal_iteratorIPKdSt6vectorIdSaIdEEEEPdET0_T_SA_S9_
FN:126,_ZSt18uninitialized_copyISt13move_iteratorIPiES1_ET0_T_S4_S3_
FNDA:0,_ZSt18uninitialized_copyISt13move_iteratorIPiES1_ET0_T_S4_S3_
FN:230,_ZNSt22__uninitialized_fill_nILb0EE15__uninit_fill_nIPSt6vectorIN7testing8internal13edit_distance8EditTypeESaIS6_EEmS8_EET_SA_T0_RKT1_
FNDA:0,_ZNSt22__uninitialized_fill_nILb0EE15__uninit_fill_nIPSt6vectorIN7testing8internal13edit_distance8EditTypeESaIS6_EEmS8_EET_SA_T0_RKT1_
FN:230,_ZNSt22__uninitialized_fill_nILb0EE15__uninit_fill_nIPSt6vectorIdSaIdEEmS4_EET_S6_T0_RKT1_
FNDA:0,_ZNSt22__uninitialized_fill_nILb0EE15__uninit_fill_nIPSt6vectorIdSaIdEEmS4_EET_S6_T0_RKT1_
FN:273,_ZSt20uninitialized_fill_nIPSt6vectorIdSaIdEEmS2_ET_S4_T0_RKT1_
FNDA:0,_ZSt20uninitialized_fill_nIPSt6vectorIdSaIdEEmS2_ET_S4_T0_RKT1_
FN:273,_ZSt20uninitialized_fill_nIPSt6vectorIN7testing8internal13edit_distance8EditTypeESaIS4_EEmS6_ET_S8_T0_RKT1_
FNDA:0,_ZSt20uninitialized_fill_nIPSt6vectorIN7testing8internal13edit_distance8EditTypeESaIS4_EEmS6_ET_S8_T0_RKT1_
FN:331,_ZSt22__uninitialized_copy_aISt13move_iteratorIPN7testing14TestPartResultEES3_S2_ET0_T_S6_S5_RSaIT1_E
FNDA:0,_ZSt22__uninitialized_copy_aISt13move_iteratorIPN7testing14TestPartResultEES3_S2_ET0_T_S6_S5_RSaIT1_E
FN:331,_ZSt22__uninitialized_copy_aISt13move_iteratorIPmES1_mET0_T_S4_S3_RSaIT1_E
FNDA:0,_ZSt22__uninitialized_copy_aISt13move_iteratorIPmES1_mET0_T_S4_S3_RSaIT1_E
FN:331,_ZSt22__uninitialized_copy_aIN9__gnu_cxx17__normal_iteratorIPKdSt6vectorIdSaIdEEEEPddET0_T_SA_S9_RSaIT1_E
FNDA:0,_ZSt22__uninitialized_copy_aIN9__gnu_cxx17__normal_iteratorIPKdSt6vectorIdSaIdEEEEPddET0_T_SA_S9_RSaIT1_E
FN:331,_ZSt22__uninitialized_copy_aISt13move_iteratorIPN7testing8internal9TraceInfoEES4_S3_ET0_T_S7_S6_RSaIT1_E
FNDA:0,_ZSt22__uninitialized_copy_aISt13move_iteratorIPN7testing8internal9TraceInfoEES4_S3_ET0_T_S7_S6_RSaIT1_E
FN:331,_ZSt22__uninitialized_copy_aISt13move_iteratorIPPN7testing11EnvironmentEES4_S3_ET0_T_S7_S6_RSaIT1_E
FNDA:0,_ZSt22__uninitialized_copy_aISt13move_iteratorIPPN7testing11EnvironmentEES4_S3_ET0_T_S7_S6_RSaIT1_E
FN:331,_ZSt22__uninitialized_copy_aISt13move_iteratorIPPN7testing17TestEventListenerEES4_S3_ET0_T_S7_S6_RSaIT1_E
FNDA:0,_ZSt22__uninitialized_copy_aISt13move_iteratorIPPN7testing17TestEventListenerEES4_S3_ET0_T_S7_S6_RSaIT1_E
FN:331,_ZSt22__uninitialized_copy_aISt13move_iteratorIPPN7testing8TestInfoEES4_S3_ET0_T_S7_S6_RSaIT1_E
FNDA:0,_ZSt22__uninitialized_copy_aISt13move_iteratorIPPN7testing8TestInfoEES4_S3_ET0_T_S7_S6_RSaIT1_E
FN:331,_ZSt22__uninitialized_copy_aIPKPKcPNSt7__cxx1112basic_stringIcSt11char_traitsIcESaIcEEES9_ET0_T_SC_SB_RSaIT1_E
FNDA:0,_ZSt22__uninitialized_copy_aIPKPKcPNSt7__cxx1112basic_stringIcSt11char_traitsIcESaIcEEES9_ET0_T_SC_SB_RSaIT1_E
FN:331,_ZSt22__uninitialized_copy_aISt13move_iteratorIPN7testing12TestPropertyEES3_S2_ET0_T_S6_S5_RSaIT1_E
FNDA:0,_ZSt22__uninitialized_copy_aISt13move_iteratorIPN7testing12TestPropertyEES3_S2_ET0_T_S6_S5_RSaIT1_E
FN:331,_ZSt22__uninitialized_copy_aISt13move_iteratorIPPN7testing9TestSuiteEES4_S3_ET0_T_S7_S6_RSaIT1_E
FNDA:0,_ZSt22__uninitialized_copy_aISt13move_iteratorIPPN7testing9TestSuiteEES4_S3_ET0_T_S7_S6_RSaIT1_E
FN:331,_ZSt22__uninitialized_copy_aISt13move_iteratorIPN7testing8internal13edit_distance8EditTypeEES5_S4_ET0_T_S8_S7_RSaIT1_E
FNDA:0,_ZSt22__uninitialized_copy_aISt13move_iteratorIPN7testing8internal13edit_distance8EditTypeEES5_S4_ET0_T_S8_S7_RSaIT1_E
FN:331,_ZSt22__uninitialized_copy_aIN9__gnu_cxx17__normal_iteratorIPKN7testing8internal13edit_distance8EditTypeESt6vectorIS5_SaIS5_EEEEPS5_S5_ET0_T_SE_SD_RSaIT1_E
FNDA:0,_ZSt22__uninitialized_copy_aIN9__gnu_cxx17__normal_iteratorIPKN7testing8internal13edit_distance8EditTypeESt6vectorIS5_SaIS5_EEEEPS5_S5_ET0_T_SE_SD_RSaIT1_E
FN:331,_ZSt22__uninitialized_copy_aISt13move_iteratorIPNSt7__cxx1112basic_stringIcSt11char_traitsIcESaIcEEEES7_S6_ET0_T_SA_S9_RSaIT1_E
FNDA:0,_ZSt22__uninitialized_copy_aISt13move_iteratorIPNSt7__cxx1112basic_stringIcSt11char_traitsIcESaIcEEEES7_S6_ET0_T_SA_S9_RSaIT1_E
FN:331,_ZSt22__uninitialized_copy_aIN9__gnu_cxx17__normal_iteratorIPKNSt7__cxx1112basic_stringIcSt11char_traitsIcESaIcEEESt6vectorIS7_SaIS7_EEEEPS7_S7_ET0_T_SG_SF_RSaIT1_E
FNDA:0,_ZSt22__uninitialized_copy_aIN9__gnu_cxx17__normal_iteratorIPKNSt7__cxx1112basic_stringIcSt11char_traitsIcESaIcEEESt6vectorIS7_SaIS7_EEEEPS7_S7_ET0_T_SG_SF_RSaIT1_E
FN:331,_ZSt22__uninitialized_copy_aISt13move_iteratorIPiES1_iET0_T_S4_S3_RSaIT1_E
FNDA:0,_ZSt22__uninitialized_copy_aISt13move_iteratorIPiES1_iET0_T_S4_S3_RSaIT1_E
FN:349,_ZSt34__uninitialized_move_if_noexcept_aIPPN7testing17TestEventListenerES3_SaIS2_EET0_T_S6_S5_RT1_
FNDA:0,_ZSt34__uninitialized_move_if_noexcept_aIPPN7testing17TestEventListenerES3_SaIS2_EET0_T_S6_S5_RT1_
FN:349,_ZSt34__uninitialized_move_if_noexcept_aIPNSt7__cxx1112basic_stringIcSt11char_traitsIcESaIcEEES6_SaIS5_EET0_T_S9_S8_RT1_
FNDA:0,_ZSt34__uninitialized_move_if_noexcept_aIPNSt7__cxx1112basic_stringIcSt11char_traitsIcESaIcEEES6_SaIS5_EET0_T_S9_S8_RT1_
FN:349,_ZSt34__uninitialized_move_if_noexcept_aIPmS0_SaImEET0_T_S3_S2_RT1_
FNDA:0,_ZSt34__uninitialized_move_if_noexcept_aIPmS0_SaImEET0_T_S3_S2_RT1_
FN:349,_ZSt34__uninitialized_move_if_noexcept_aIPPN7testing9TestSuiteES3_SaIS2_EET0_T_S6_S5_RT1_
FNDA:0,_ZSt34__uninitialized_move_if_noexcept_aIPPN7testing9TestSuiteES3_SaIS2_EET0_T_S6_S5_RT1_
FN:349,_ZSt34__uninitialized_move_if_noexcept_aIPN7testing8internal9TraceInfoES3_SaIS2_EET0_T_S6_S5_RT1_
FNDA:0,_ZSt34__uninitialized_move_if_noexcept_aIPN7testing8internal9TraceInfoES3_SaIS2_EET0_T_S6_S5_RT1_
FN:349,_ZSt34__uninitialized_move_if_noexcept_aIPiS0_SaIiEET0_T_S3_S2_RT1_
FNDA:0,_ZSt34__uninitialized_move_if_noexcept_aIPiS0_SaIiEET0_T_S3_S2_RT1_
FN:349,_ZSt34__uninitialized_move_if_noexcept_aIPPN7testing11EnvironmentES3_SaIS2_EET0_T_S6_S5_RT1_
FNDA:0,_ZSt34__uninitialized_move_if_noexcept_aIPPN7testing11EnvironmentES3_SaIS2_EET0_T_S6_S5_RT1_
FN:349,_ZSt34__uninitialized_move_if_noexcept_aIPPN7testing8TestInfoES3_SaIS2_EET0_T_S6_S5_RT1_
FNDA:0,_ZSt34__uninitialized_move_if_noexcept_aIPPN7testing8TestInfoES3_SaIS2_EET0_T_S6_S5_RT1_
FN:349,_ZSt34__uninitialized_move_if_noexcept_aIPN7testing8internal13edit_distance8EditTypeES4_SaIS3_EET0_T_S7_S6_RT1_
FNDA:0,_ZSt34__uninitialized_move_if_noexcept_aIPN7testing8internal13edit_distance8EditTypeES4_SaIS3_EET0_T_S7_S6_RT1_
FN:349,_ZSt34__uninitialized_move_if_noexcept_aIPN7testing14TestPartResultES2_SaIS1_EET0_T_S5_S4_RT1_
FNDA:0,_ZSt34__uninitialized_move_if_noexcept_aIPN7testing14TestPartResultES2_SaIS1_EET0_T_S5_S4_RT1_
FN:349,_ZSt34__uninitialized_move_if_noexcept_aIPN7testing12TestPropertyES2_SaIS1_EET0_T_S5_S4_RT1_
FNDA:0,_ZSt34__uninitialized_move_if_noexcept_aIPN7testing12TestPropertyES2_SaIS1_EET0_T_S5_S4_RT1_
FN:408,_ZSt24__uninitialized_fill_n_aIPSt6vectorIdSaIdEEmS2_S2_ET_S4_T0_RKT1_RSaIT2_E
FNDA:0,_ZSt24__uninitialized_fill_n_aIPSt6vectorIdSaIdEEmS2_S2_ET_S4_T0_RKT1_RSaIT2_E
FN:408,_ZSt24__uninitialized_fill_n_aIPSt6vectorIN7testing8internal13edit_distance8EditTypeESaIS4_EEmS6_S6_ET_S8_T0_RKT1_RSaIT2_E
FNDA:0,_ZSt24__uninitialized_fill_n_aIPSt6vectorIN7testing8internal13edit_distance8EditTypeESaIS4_EEmS6_S6_ET_S8_T0_RKT1_RSaIT2_E
FN:595,_ZNSt27__uninitialized_default_n_1ILb1EE18__uninit_default_nIPdmEET_S3_T0_
FNDA:0,_ZNSt27__uninitialized_default_n_1ILb1EE18__uninit_default_nIPdmEET_S3_T0_
FN:595,_ZNSt27__uninitialized_default_n_1ILb1EE18__uninit_default_nIPN7testing8internal13edit_distance8EditTypeEmEET_S7_T0_
FNDA:0,_ZNSt27__uninitialized_default_n_1ILb1EE18__uninit_default_nIPN7testing8internal13edit_distance8EditTypeEmEET_S7_T0_
FN:630,_ZSt25__uninitialized_default_nIPdmET_S1_T0_
FNDA:0,_ZSt25__uninitialized_default_nIPdmET_S1_T0_
FN:630,_ZSt25__uninitialized_default_nIPN7testing8internal13edit_distance8EditTypeEmET_S5_T0_
FNDA:0,_ZSt25__uninitialized_default_nIPN7testing8internal13edit_distance8EditTypeEmET_S5_T0_
FN:702,_ZSt27__uninitialized_default_n_aIPN7testing8internal13edit_distance8EditTypeEmS3_ET_S5_T0_RSaIT1_E
FNDA:0,_ZSt27__uninitialized_default_n_aIPN7testing8internal13edit_distance8EditTypeEmS3_ET_S5_T0_RSaIT1_E
FN:702,_ZSt27__uninitialized_default_n_aIPdmdET_S1_T0_RSaIT1_E
FNDA:0,_ZSt27__uninitialized_default_n_aIPdmdET_S1_T0_RSaIT1_E
FN:986,_ZSt19__relocate_object_aIN7testing14TestPartResultES1_SaIS1_EEvPT_PT0_RT1_
FNDA:0,_ZSt19__relocate_object_aIN7testing14TestPartResultES1_SaIS1_EEvPT_PT0_RT1_
FN:986,_ZSt19__relocate_object_aIN7testing8internal9TraceInfoES2_SaIS2_EEvPT_PT0_RT1_
FNDA:0,_ZSt19__relocate_object_aIN7testing8internal9TraceInfoES2_SaIS2_EEvPT_PT0_RT1_
FN:986,_ZSt19__relocate_object_aIN7testing12TestPropertyES1_SaIS1_EEvPT_PT0_RT1_
FNDA:0,_ZSt19__relocate_object_aIN7testing12TestPropertyES1_SaIS1_EEvPT_PT0_RT1_
FN:986,_ZSt19__relocate_object_aINSt7__cxx1112basic_stringIcSt11char_traitsIcESaIcEEES5_SaIS5_EEvPT_PT0_RT1_
FNDA:3,_ZSt19__relocate_object_aINSt7__cxx1112basic_stringIcSt11char_traitsIcESaIcEEES5_SaIS5_EEvPT_PT0_RT1_
FN:1006,_ZSt14__relocate_a_1IN7testing8internal13edit_distance8EditTypeES3_ENSt9enable_ifIXsrSt24__is_bitwise_relocatableIT_vE5valueEPS6_E4typeES8_S8_S8_RSaIT0_E
FNDA:0,_ZSt14__relocate_a_1IN7testing8internal13edit_distance8EditTypeES3_ENSt9enable_ifIXsrSt24__is_bitwise_relocatableIT_vE5valueEPS6_E4typeES8_S8_S8_RSaIT0_E
FN:1006,_ZSt14__relocate_a_1IPN7testing8TestInfoES2_ENSt9enable_ifIXsrSt24__is_bitwise_relocatableIT_vE5valueEPS5_E4typeES7_S7_S7_RSaIT0_E
FNDA:18,_ZSt14__relocate_a_1IPN7testing8TestInfoES2_ENSt9enable_ifIXsrSt24__is_bitwise_relocatableIT_vE5valueEPS5_E4typeES7_S7_S7_RSaIT0_E
FN:1006,_ZSt14__relocate_a_1IPN7testing17TestEventListenerES2_ENSt9enable_ifIXsrSt24__is_bitwise_relocatableIT_vE5valueEPS5_E4typeES7_S7_S7_RSaIT0_E
FNDA:2,_ZSt14__relocate_a_1IPN7testing17TestEventListenerES2_ENSt9enable_ifIXsrSt24__is_bitwise_relocatableIT_vE5valueEPS5_E4typeES7_S7_S7_RSaIT0_E
FN:1006,_ZSt14__relocate_a_1IiiENSt9enable_ifIXsrSt24__is_bitwise_relocatableIT_vE5valueEPS2_E4typeES4_S4_S4_RSaIT0_E
FNDA:22,_ZSt14__relocate_a_1IiiENSt9enable_ifIXsrSt24__is_bitwise_relocatableIT_vE5valueEPS2_E4typeES4_S4_S4_RSaIT0_E
FN:1006,_ZSt14__relocate_a_1IPN7testing11EnvironmentES2_ENSt9enable_ifIXsrSt24__is_bitwise_relocatableIT_vE5valueEPS5_E4typeES7_S7_S7_RSaIT0_E
FNDA:0,_ZSt14__relocate_a_1IPN7testing11EnvironmentES2_ENSt9enable_ifIXsrSt24__is_bitwise_relocatableIT_vE5valueEPS5_E4typeES7_S7_S7_RSaIT0_E
FN:1006,_ZSt14__relocate_a_1IPN7testing9TestSuiteES2_ENSt9enable_ifIXsrSt24__is_bitwise_relocatableIT_vE5valueEPS5_E4typeES7_S7_S7_RSaIT0_E
FNDA:4,_ZSt14__relocate_a_1IPN7testing9TestSuiteES2_ENSt9enable_ifIXsrSt24__is_bitwise_relocatableIT_vE5valueEPS5_E4typeES7_S7_S7_RSaIT0_E
FN:1006,_ZSt14__relocate_a_1ImmENSt9enable_ifIXsrSt24__is_bitwise_relocatableIT_vE5valueEPS2_E4typeES4_S4_S4_RSaIT0_E
FNDA:0,_ZSt14__relocate_a_1ImmENSt9enable_ifIXsrSt24__is_bitwise_relocatableIT_vE5valueEPS2_E4typeES4_S4_S4_RSaIT0_E
FN:1018,_ZSt14__relocate_a_1IPN7testing14TestPartResultES2_SaIS1_EET0_T_S5_S4_RT1_
FNDA:0,_ZSt14__relocate_a_1IPN7testing14TestPartResultES2_SaIS1_EET0_T_S5_S4_RT1_
FN:1018,_ZSt14__relocate_a_1IPN7testing8internal9TraceInfoES3_SaIS2_EET0_T_S6_S5_RT1_
FNDA:0,_ZSt14__relocate_a_1IPN7testing8internal9TraceInfoES3_SaIS2_EET0_T_S6_S5_RT1_
FN:1018,_ZSt14__relocate_a_1IPN7testing12TestPropertyES2_SaIS1_EET0_T_S5_S4_RT1_
FNDA:0,_ZSt14__relocate_a_1IPN7testing12TestPropertyES2_SaIS1_EET0_T_S5_S4_RT1_
FN:1018,_ZSt14__relocate_a_1IPNSt7__cxx1112basic_stringIcSt11char_traitsIcESaIcEEES6_SaIS5_EET0_T_S9_S8_RT1_
FNDA:22,_ZSt14__relocate_a_1IPNSt7__cxx1112basic_stringIcSt11char_traitsIcESaIcEEES6_SaIS5_EET0_T_S9_S8_RT1_
FN:1040,_ZSt12__relocate_aIPPN7testing17TestEventListenerES3_SaIS2_EET0_T_S6_S5_RT1_
FNDA:2,_ZSt12__relocate_aIPPN7testing17TestEventListenerES3_SaIS2_EET0_T_S6_S5_RT1_
FN:1040,_ZSt12__relocate_aIPiS0_SaIiEET0_T_S3_S2_RT1_
FNDA:22,_ZSt12__relocate_aIPiS0_SaIiEET0_T_S3_S2_RT1_
FN:1040,_ZSt12__relocate_aIPN7testing14TestPartResultES2_SaIS1_EET0_T_S5_S4_RT1_
FNDA:0,_ZSt12__relocate_aIPN7testing14TestPartResultES2_SaIS1_EET0_T_S5_S4_RT1_
FN:1040,_ZSt12__relocate_aIPN7testing8internal13edit_distance8EditTypeES4_SaIS3_EET0_T_S7_S6_RT1_
FNDA:0,_ZSt12__relocate_aIPN7testing8internal13edit_distance8EditTypeES4_SaIS3_EET0_T_S7_S6_RT1_
FN:1040,_ZSt12__relocate_aIPPN7testing8TestInfoES3_SaIS2_EET0_T_S6_S5_RT1_
FNDA:18,_ZSt12__relocate_aIPPN7testing8TestInfoES3_SaIS2_EET0_T_S6_S5_RT1_
FN:1040,_ZSt12__relocate_aIPN7testing12TestPropertyES2_SaIS1_EET0_T_S5_S4_RT1_
FNDA:0,_ZSt12__relocate_aIPN7testing12TestPropertyES2_SaIS1_EET0_T_S5_S4_RT1_
FN:1040,_ZSt12__relocate_aIPPN7testing11EnvironmentES3_SaIS2_EET0_T_S6_S5_RT1_
FNDA:0,_ZSt12__relocate_aIPPN7testing11EnvironmentES3_SaIS2_EET0_T_S6_S5_RT1_
FN:1040,_ZSt12__relocate_aIPN7testing8internal9TraceInfoES3_SaIS2_EET0_T_S6_S5_RT1_
FNDA:0,_ZSt12__relocate_aIPN7testing8internal9TraceInfoES3_SaIS2_EET0_T_S6_S5_RT1_
FN:1040,_ZSt12__relocate_aIPmS0_SaImEET0_T_S3_S2_RT1_
FNDA:0,_ZSt12__relocate_aIPmS0_SaImEET0_T_S3_S2_RT1_
FN:1040,_ZSt12__relocate_aIPNSt7__cxx1112basic_stringIcSt11char_traitsIcESaIcEEES6_SaIS5_EET0_T_S9_S8_RT1_
FNDA:22,_ZSt12__relocate_aIPNSt7__cxx1112basic_stringIcSt11char_traitsIcESaIcEEES6_SaIS5_EET0_T_S9_S8_RT1_
FN:1040,_ZSt12__relocate_aIPPN7testing9TestSuiteES3_SaIS2_EET0_T_S6_S5_RT1_
FNDA:4,_ZSt12__relocate_aIPPN7testing9TestSuiteES3_SaIS2_EET0_T_S6_S5_RT1_
DA:85,0
DA:88,0
DA:91,0
DA:92,0
DA:93,0
DA:95,0
DA:97,0
DA:98,0
DA:85,0
DA:88,0
DA:91,0
DA:92,0
DA:93,0
DA:95,0
DA:97,0
DA:98,0
DA:85,0
DA:88,0
DA:91,0
DA:92,0
DA:93,0
DA:95,0
DA:97,0
DA:98,0
DA:85,0
DA:88,0
DA:91,0
DA:92,0
DA:93,0
DA:95,0
DA:97,0
DA:98,0
DA:85,0
DA:88,0
DA:91,0
DA:92,0
DA:93,0
DA:95,0
DA:97,0
DA:98,0
DA:85,0
DA:88,0
DA:91,0
DA:92,0
DA:93,0
DA:95,0
DA:97,0
DA:98,0
DA:108,0
DA:110,0
DA:108,0
DA:110,0
DA:108,0
DA:110,0
DA:108,0
DA:110,0
DA:108,0
DA:110,0
DA:108,0
DA:110,0
DA:108,0
DA:110,0
DA:108,0
DA:110,0
DA:108,0
DA:110,0
DA:126,0
DA:145,0
DA:151,0
DA:126,0
DA:145,0
DA:151,0
DA:126,0
DA:145,0
DA:151,0
DA:126,0
DA:145,0
DA:151,0
DA:126,0
DA:145,0
DA:151,0
DA:126,0
DA:145,0
DA:151,0
DA:126,0
DA:145,0
DA:151,0
DA:126,0
DA:145,0
DA:151,0
DA:126,0
DA:145,0
DA:151,0
DA:126,0
DA:145,0
DA:151,0
DA:126,0
DA:145,0
DA:151,0
DA:126,0
DA:145,0
DA:151,0
DA:126,0
DA:145,0
DA:151,0
DA:126,0
DA:145,0
DA:151,0
DA:126,0
DA:145,0
DA:151,0
DA:230,0
DA:233,0
DA:236,0
DA:237,0
DA:238,0
DA:240,0
DA:242,0
DA:243,0
DA:230,0
DA:233,0
DA:236,0
DA:237,0
DA:238,0
DA:240,0
DA:242,0
DA:243,0
DA:273,0
DA:293,0
DA:297,0
DA:273,0
DA:293,0
DA:297,0
DA:331,0
DA:333,0
DA:331,0
DA:333,0
DA:331,0
DA:333,0
DA:331,0
DA:333,0
DA:331,0
DA:333,0
DA:331,0
DA:333,0
DA:331,0
DA:333,0
DA:331,0
DA:333,0
DA:331,0
DA:333,0
DA:331,0
DA:333,0
DA:331,0
DA:333,0
DA:331,0
DA:333,0
DA:331,0
DA:333,0
DA:331,0
DA:333,0
DA:331,0
DA:333,0
DA:349,0
DA:355,0
DA:356,0
DA:349,0
DA:355,0
DA:356,0
DA:349,0
DA:355,0
DA:356,0
DA:349,0
DA:355,0
DA:356,0
DA:349,0
DA:355,0
DA:356,0
DA:349,0
DA:355,0
DA:356,0
DA:349,0
DA:355,0
DA:356,0
DA:349,0
DA:355,0
DA:356,0
DA:349,0
DA:355,0
DA:356,0
DA:349,0
DA:355,0
DA:356,0
DA:349,0
DA:355,0
DA:356,0
DA:408,0
DA:410,0
DA:408,0
DA:410,0
DA:595,0
DA:597,0
DA:600,0
DA:601,0
DA:602,0
DA:603,0
DA:605,0
DA:595,0
DA:597,0
DA:600,0
DA:601,0
DA:602,0
DA:603,0
DA:605,0
DA:630,0
DA:635,0
DA:640,0
DA:630,0
DA:635,0
DA:640,0
DA:702,0
DA:704,0
DA:702,0
DA:704,0
DA:986,0
DA:994,0
DA:995,0
DA:996,0
DA:986,0
DA:994,0
DA:995,0
DA:996,0
DA:986,0
DA:994,0
DA:995,0
DA:996,0
DA:986,3
DA:994,3
DA:995,3
DA:996,3
DA:1006,22
DA:1009,22
DA:1010,22
DA:1011,8
DA:1012,22
DA:1006,0
DA:1009,0
DA:1010,0
DA:1011,0
DA:1012,0
DA:1006,4
DA:1009,4
DA:1010,4
DA:1011,1
DA:1012,4
DA:1006,0
DA:1009,0
DA:1010,0
DA:1011,0
DA:1012,0
DA:1006,2
DA:1009,2
DA:1010,2
DA:1011,0
DA:1012,2
DA:1006,18
DA:1009,18
DA:1010,18
DA:1011,7
DA:1012,18
DA:1006,0
DA:1009,0
DA:1010,0
DA:1011,0
DA:1012,0
DA:1018,0
DA:1030,0
DA:1031,0
DA:1032,0
DA:1034,0
DA:1018,0
DA:1030,0
DA:1031,0
DA:1032,0
DA:1034,0
DA:1018,0
DA:1030,0
DA:1031,0
DA:1032,0
DA:1034,0
DA:1018,22
DA:1030,22
DA:1031,25
DA:1032,3
DA:1034,22
DA:1040,22
DA:1046,22
DA:1048,22
DA:1040,0
DA:1046,0
DA:1048,0
DA:1040,4
DA:1046,4
DA:1048,4
DA:1040,0
DA:1046,0
DA:1048,0
DA:1040,0
DA:1046,0
DA:1048,0
DA:1040,2
DA:1046,2
DA:1048,2
DA:1040,18
DA:1046,18
DA:1048,18
DA:1040,0
DA:1046,0
DA:1048,0
DA:1040,0
DA:1046,0
DA:1048,0
DA:1040,0
DA:1046,0
DA:1048,0
DA:1040,22
DA:1046,22
DA:1048,22
end_of_record
SF:/usr/include/c++/11/bits/stl_iterator.h
FN:184,_ZNSt16reverse_iteratorIN9__gnu_cxx17__normal_iteratorIPPN7testing11EnvironmentESt6vectorIS4_SaIS4_EEEEEC2ES9_
FNDA:2,_ZNSt16reverse_iteratorIN9__gnu_cxx17__normal_iteratorIPPN7testing11EnvironmentESt6vectorIS4_SaIS4_EEEEEC2ES9_
FN:184,_ZNSt16reverse_iteratorIN9__gnu_cxx17__normal_iteratorIPPN7testing9TestSuiteESt6vectorIS4_SaIS4_EEEEEC2ES9_
FNDA:37,_ZNSt16reverse_iteratorIN9__gnu_cxx17__normal_iteratorIPPN7testing9TestSuiteESt6vectorIS4_SaIS4_EEEEEC2ES9_
FN:228,_ZNKSt16reverse_iteratorIN9__gnu_cxx17__normal_iteratorIPPN7testing11EnvironmentESt6vectorIS4_SaIS4_EEEEE4baseEv
FNDA:2,_ZNKSt16reverse_iteratorIN9__gnu_cxx17__normal_iteratorIPPN7testing11EnvironmentESt6vectorIS4_SaIS4_EEEEE4baseEv
FN:242,_ZNKSt16reverse_iteratorIN9__gnu_cxx17__normal_iteratorIPPN7testing9TestSuiteESt6vectorIS4_SaIS4_EEEEEdeEv
FNDA:37,_ZNKSt16reverse_iteratorIN9__gnu_cxx17__normal_iteratorIPPN7testing9TestSuiteESt6vectorIS4_SaIS4_EEEEEdeEv
FN:242,_ZNKSt16reverse_iteratorIN9__gnu_cxx17__normal_iteratorIPPN7testing11EnvironmentESt6vectorIS4_SaIS4_EEEEEdeEv
FNDA:0,_ZNKSt16reverse_iteratorIN9__gnu_cxx17__normal_iteratorIPPN7testing11EnvironmentESt6vectorIS4_SaIS4_EEEEEdeEv
FN:273,_ZNSt16reverse_iteratorIN9__gnu_cxx17__normal_iteratorIPPN7testing11EnvironmentESt6vectorIS4_SaIS4_EEEEEppEv
FNDA:0,_ZNSt16reverse_iteratorIN9__gnu_cxx17__normal_iteratorIPPN7testing11EnvironmentESt6vectorIS4_SaIS4_EEEEEppEv
FN:420,_ZSteqIN9__gnu_cxx17__normal_iteratorIPPN7testing11EnvironmentESt6vectorIS4_SaIS4_EEEEEbRKSt16reverse_iteratorIT_ESE_
FNDA:1,_ZSteqIN9__gnu_cxx17__normal_iteratorIPPN7testing11EnvironmentESt6vectorIS4_SaIS4_EEEEEbRKSt16reverse_iteratorIT_ESE_
FN:432,_ZStneIN9__gnu_cxx17__normal_iteratorIPPN7testing11EnvironmentESt6vectorIS4_SaIS4_EEEEEbRKSt16reverse_iteratorIT_ESE_
FNDA:1,_ZStneIN9__gnu_cxx17__normal_iteratorIPPN7testing11EnvironmentESt6vectorIS4_SaIS4_EEEEEbRKSt16reverse_iteratorIT_ESE_
FN:890,_ZNSt15insert_iteratorISt13unordered_setINSt7__cxx1112basic_stringIcSt11char_traitsIcESaIcEEESt4hashIS6_ESt8equal_toIS6_ESaIS6_EEEC2ERSC_NSt8__detail14_Node_iteratorIS6_Lb1ELb1EEE
FNDA:4,_ZNSt15insert_iteratorISt13unordered_setINSt7__cxx1112basic_stringIcSt11char_traitsIcESaIcEEESt4hashIS6_ESt8equal_toIS6_ESaIS6_EEEC2ERSC_NSt8__detail14_Node_iteratorIS6_Lb1ELb1EEE
FN:890,_ZNSt15insert_iteratorISt6vectorINSt7__cxx1112basic_stringIcSt11char_traitsIcESaIcEEESaIS6_EEEC2ERS8_N9__gnu_cxx17__normal_iteratorIPS6_S8_EE
FNDA:4,_ZNSt15insert_iteratorISt6vectorINSt7__cxx1112basic_stringIcSt11char_traitsIcESaIcEEESaIS6_EEEC2ERS8_N9__gnu_cxx17__normal_iteratorIPS6_S8_EE
FN:936,_ZNSt15insert_iteratorISt13unordered_setINSt7__cxx1112basic_stringIcSt11char_traitsIcESaIcEEESt4hashIS6_ESt8equal_toIS6_ESaIS6_EEEaSEOS6_
FNDA:0,_ZNSt15insert_iteratorISt13unordered_setINSt7__cxx1112basic_stringIcSt11char_traitsIcESaIcEEESt4hashIS6_ESt8equal_toIS6_ESaIS6_EEEaSEOS6_
FN:936,_ZNSt15insert_iteratorISt6vectorINSt7__cxx1112basic_stringIcSt11char_traitsIcESaIcEEESaIS6_EEEaSEOS6_
FNDA:7,_ZNSt15insert_iteratorISt6vectorINSt7__cxx1112basic_stringIcSt11char_traitsIcESaIcEEESaIS6_EEEaSEOS6_
FN:947,_ZNSt15insert_iteratorISt13unordered_setINSt7__cxx1112basic_stringIcSt11char_traitsIcESaIcEEESt4hashIS6_ESt8equal_toIS6_ESaIS6_EEEdeEv
FNDA:0,_ZNSt15insert_iteratorISt13unordered_setINSt7__cxx1112basic_stringIcSt11char_traitsIcESaIcEEESt4hashIS6_ESt8equal_toIS6_ESaIS6_EEEdeEv
FN:947,_ZNSt15insert_iteratorISt6vectorINSt7__cxx1112basic_stringIcSt11char_traitsIcESaIcEEESaIS6_EEEdeEv
FNDA:7,_ZNSt15insert_iteratorISt6vectorINSt7__cxx1112basic_stringIcSt11char_traitsIcESaIcEEESaIS6_EEEdeEv
FN:953,_ZNSt15insert_iteratorISt13unordered_setINSt7__cxx1112basic_stringIcSt11char_traitsIcESaIcEEESt4hashIS6_ESt8equal_toIS6_ESaIS6_EEEppEv
FNDA:0,_ZNSt15insert_iteratorISt13unordered_setINSt7__cxx1112basic_stringIcSt11char_traitsIcESaIcEEESt4hashIS6_ESt8equal_toIS6_ESaIS6_EEEppEv
FN:953,_ZNSt15insert_iteratorISt6vectorINSt7__cxx1112basic_stringIcSt11char_traitsIcESaIcEEESaIS6_EEEppEv
FNDA:7,_ZNSt15insert_iteratorISt6vectorINSt7__cxx1112basic_stringIcSt11char_traitsIcESaIcEEESaIS6_EEEppEv
FN:983,_ZSt8inserterISt6vectorINSt7__cxx1112basic_stringIcSt11char_traitsIcESaIcEEESaIS6_EEESt15insert_iteratorIT_ERSA_NSA_8iteratorE
FNDA:4,_ZSt8inserterISt6vectorINSt7__cxx1112basic_stringIcSt11char_traitsIcESaIcEEESaIS6_EEESt15insert_iteratorIT_ERSA_NSA_8iteratorE
FN:983,_ZSt8inserterISt13unordered_setINSt7__cxx1112basic_stringIcSt11char_traitsIcESaIcEEESt4hashIS6_ESt8equal_toIS6_ESaIS6_EEESt15insert_iteratorIT_ERSE_NSE_8iteratorE
FNDA:4,_ZSt8inserterISt13unordered_setINSt7__cxx1112basic_stringIcSt11char_traitsIcESaIcEEESt4hashIS6_ESt8equal_toIS6_ESaIS6_EEESt15insert_iteratorIT_ERSE_NSE_8iteratorE
FN:1027,_ZN9__gnu_cxx17__normal_iteratorIPPN7testing8TestInfoESt6vectorIS3_SaIS3_EEEC2ERKS4_
FNDA:33,_ZN9__gnu_cxx17__normal_iteratorIPPN7testing8TestInfoESt6vectorIS3_SaIS3_EEEC2ERKS4_
FN:1027,_ZN9__gnu_cxx17__normal_iteratorIPN7testing12TestPropertyESt6vectorIS2_SaIS2_EEEC2ERKS3_
FNDA:0,_ZN9__gnu_cxx17__normal_iteratorIPN7testing12TestPropertyESt6vectorIS2_SaIS2_EEEC2ERKS3_
FN:1027,_ZN9__gnu_cxx17__normal_iteratorIPPN7testing8internal30ParameterizedTestSuiteInfoBaseESt6vectorIS4_SaIS4_EEEC2ERKS5_
FNDA:4,_ZN9__gnu_cxx17__normal_iteratorIPPN7testing8internal30ParameterizedTestSuiteInfoBaseESt6vectorIS4_SaIS4_EEEC2ERKS5_
FN:1027,_ZN9__gnu_cxx17__normal_iteratorIPKPN7testing8TestInfoESt6vectorIS3_SaIS3_EEEC2ERKS5_
FNDA:224,_ZN9__gnu_cxx17__normal_iteratorIPKPN7testing8TestInfoESt6vectorIS3_SaIS3_EEEC2ERKS5_
FN:1027,_ZN9__gnu_cxx17__normal_iteratorIPKPN7testing17TestEventListenerESt6vectorIS3_SaIS3_EEEC2ERKS5_
FNDA:2,_ZN9__gnu_cxx17__normal_iteratorIPKPN7testing17TestEventListenerESt6vectorIS3_SaIS3_EEEC2ERKS5_
FN:1027,_ZN9__gnu_cxx17__normal_iteratorIPNSt7__cxx1112basic_stringIcSt11char_traitsIcESaIcEEESt6vectorIS6_SaIS6_EEEC2ERKS7_
FNDA:50,_ZN9__gnu_cxx17__normal_iteratorIPNSt7__cxx1112basic_stringIcSt11char_traitsIcESaIcEEESt6vectorIS6_SaIS6_EEEC2ERKS7_
FN:1027,_ZN9__gnu_cxx17__normal_iteratorIPKN7testing8internal13edit_distance8EditTypeESt6vectorIS4_SaIS4_EEEC2ERKS6_
FNDA:0,_ZN9__gnu_cxx17__normal_iteratorIPKN7testing8internal13edit_distance8EditTypeESt6vectorIS4_SaIS4_EEEC2ERKS6_
FN:1027,_ZN9__gnu_cxx17__normal_iteratorIPN7testing8internal13edit_distance8EditTypeESt6vectorIS4_SaIS4_EEEC2ERKS5_
FNDA:0,_ZN9__gnu_cxx17__normal_iteratorIPN7testing8internal13edit_distance8EditTypeESt6vectorIS4_SaIS4_EEEC2ERKS5_
FN:1027,_ZN9__gnu_cxx17__normal_iteratorIPKNSt7__cxx1112basic_stringIcSt11char_traitsIcESaIcEEESt6vectorIS6_SaIS6_EEEC2ERKS8_
FNDA:0,_ZN9__gnu_cxx17__normal_iteratorIPKNSt7__cxx1112basic_stringIcSt11char_traitsIcESaIcEEESt6vectorIS6_SaIS6_EEEC2ERKS8_
FN:1027,_ZN9__gnu_cxx17__normal_iteratorIPKN7testing14TestPartResultESt6vectorIS2_SaIS2_EEEC2ERKS4_
FNDA:288,_ZN9__gnu_cxx17__normal_iteratorIPKN7testing14TestPartResultESt6vectorIS2_SaIS2_EEEC2ERKS4_
FN:1027,_ZN9__gnu_cxx17__normal_iteratorIPKPN7testing11EnvironmentESt6vectorIS3_SaIS3_EEEC2ERKS5_
FNDA:6,_ZN9__gnu_cxx17__normal_iteratorIPKPN7testing11EnvironmentESt6vectorIS3_SaIS3_EEEC2ERKS5_
FN:1027,_ZN9__gnu_cxx17__normal_iteratorIPmSt6vectorImSaImEEEC2ERKS1_
FNDA:0,_ZN9__gnu_cxx17__normal_iteratorIPmSt6vectorImSaImEEEC2ERKS1_
FN:1027,_ZN9__gnu_cxx17__normal_iteratorIPPN7testing9TestSuiteESt6vectorIS3_SaIS3_EEEC2ERKS4_
FNDA:43,_ZN9__gnu_cxx17__normal_iteratorIPPN7testing9TestSuiteESt6vectorIS3_SaIS3_EEEC2ERKS4_
FN:1027,_ZN9__gnu_cxx17__normal_iteratorIPN7testing14TestPartResultESt6vectorIS2_SaIS2_EEEC2ERKS3_
FNDA:0,_ZN9__gnu_cxx17__normal_iteratorIPN7testing14TestPartResultESt6vectorIS2_SaIS2_EEEC2ERKS3_
FN:1027,_ZN9__gnu_cxx17__normal_iteratorIPN7testing8internal9TraceInfoESt6vectorIS3_SaIS3_EEEC2ERKS4_
FNDA:0,_ZN9__gnu_cxx17__normal_iteratorIPN7testing8internal9TraceInfoESt6vectorIS3_SaIS3_EEEC2ERKS4_
FN:1027,_ZN9__gnu_cxx17__normal_iteratorIPPN7testing17TestEventListenerESt6vectorIS3_SaIS3_EEEC2ERKS4_
FNDA:2,_ZN9__gnu_cxx17__normal_iteratorIPPN7testing17TestEventListenerESt6vectorIS3_SaIS3_EEEC2ERKS4_
FN:1027,_ZN9__gnu_cxx17__normal_iteratorIPPN7testing11EnvironmentESt6vectorIS3_SaIS3_EEEC2ERKS4_
FNDA:2,_ZN9__gnu_cxx17__normal_iteratorIPPN7testing11EnvironmentESt6vectorIS3_SaIS3_EEEC2ERKS4_
FN:1027,_ZN9__gnu_cxx17__normal_iteratorIPKPN7testing9TestSuiteESt6vectorIS3_SaIS3_EEEC2ERKS5_
FNDA:60,_ZN9__gnu_cxx17__normal_iteratorIPKPN7testing9TestSuiteESt6vectorIS3_SaIS3_EEEC2ERKS5_
FN:1027,_ZN9__gnu_cxx17__normal_iteratorIPiSt6vectorIiSaIiEEEC2ERKS1_
FNDA:22,_ZN9__gnu_cxx17__normal_iteratorIPiSt6vectorIiSaIiEEEC2ERKS1_
FN:1027,_ZN9__gnu_cxx17__normal_iteratorIPKdSt6vectorIdSaIdEEEC2ERKS2_
FNDA:0,_ZN9__gnu_cxx17__normal_iteratorIPKdSt6vectorIdSaIdEEEC2ERKS2_
FN:1027,_ZN9__gnu_cxx17__normal_iteratorIPKN7testing8internal9TraceInfoESt6vectorIS3_SaIS3_EEEC2ERKS5_
FNDA:0,_ZN9__gnu_cxx17__normal_iteratorIPKN7testing8internal9TraceInfoESt6vectorIS3_SaIS3_EEEC2ERKS5_
FN:1033,_ZN9__gnu_cxx17__normal_iteratorIPKPN7testing9TestSuiteESt6vectorIS3_SaIS3_EEEC2IPS3_EERKNS0_IT_NS_11__enable_ifIXsrSt10__are_sameISC_SB_E7__valueES8_E6__typeEEE
FNDA:0,_ZN9__gnu_cxx17__normal_iteratorIPKPN7testing9TestSuiteESt6vectorIS3_SaIS3_EEEC2IPS3_EERKNS0_IT_NS_11__enable_ifIXsrSt10__are_sameISC_SB_E7__valueES8_E6__typeEEE
FN:1033,_ZN9__gnu_cxx17__normal_iteratorIPKPN7testing17TestEventListenerESt6vectorIS3_SaIS3_EEEC2IPS3_EERKNS0_IT_NS_11__enable_ifIXsrSt10__are_sameISC_SB_E7__valueES8_E6__typeEEE
FNDA:0,_ZN9__gnu_cxx17__normal_iteratorIPKPN7testing17TestEventListenerESt6vectorIS3_SaIS3_EEEC2IPS3_EERKNS0_IT_NS_11__enable_ifIXsrSt10__are_sameISC_SB_E7__valueES8_E6__typeEEE
FN:1033,_ZN9__gnu_cxx17__normal_iteratorIPKNSt7__cxx1112basic_stringIcSt11char_traitsIcESaIcEEESt6vectorIS6_SaIS6_EEEC2IPS6_EERKNS0_IT_NS_11__enable_ifIXsrSt10__are_sameISF_SE_E7__valueESB_E6__typeEEE
FNDA:7,_ZN9__gnu_cxx17__normal_iteratorIPKNSt7__cxx1112basic_stringIcSt11char_traitsIcESaIcEEESt6vectorIS6_SaIS6_EEEC2IPS6_EERKNS0_IT_NS_11__enable_ifIXsrSt10__are_sameISF_SE_E7__valueESB_E6__typeEEE
FN:1042,_ZNK9__gnu_cxx17__normal_iteratorIPKNSt7__cxx1112basic_stringIcSt11char_traitsIcESaIcEEESt6vectorIS6_SaIS6_EEEdeEv
FNDA:0,_ZNK9__gnu_cxx17__normal_iteratorIPKNSt7__cxx1112basic_stringIcSt11char_traitsIcESaIcEEESt6vectorIS6_SaIS6_EEEdeEv
FN:1042,_ZNK9__gnu_cxx17__normal_iteratorIPKPN7testing17TestEventListenerESt6vectorIS3_SaIS3_EEEdeEv
FNDA:1,_ZNK9__gnu_cxx17__normal_iteratorIPKPN7testing17TestEventListenerESt6vectorIS3_SaIS3_EEEdeEv
FN:1042,_ZNK9__gnu_cxx17__normal_iteratorIPKN7testing14TestPartResultESt6vectorIS2_SaIS2_EEEdeEv
FNDA:0,_ZNK9__gnu_cxx17__normal_iteratorIPKN7testing14TestPartResultESt6vectorIS2_SaIS2_EEEdeEv
FN:1042,_ZNK9__gnu_cxx17__normal_iteratorIPN7testing12TestPropertyESt6vectorIS2_SaIS2_EEEdeEv
FNDA:0,_ZNK9__gnu_cxx17__normal_iteratorIPN7testing12TestPropertyESt6vectorIS2_SaIS2_EEEdeEv
FN:1042,_ZNK9__gnu_cxx17__normal_iteratorIPN7testing8internal13edit_distance8EditTypeESt6vectorIS4_SaIS4_EEEdeEv
FNDA:0,_ZNK9__gnu_cxx17__normal_iteratorIPN7testing8internal13edit_distance8EditTypeESt6vectorIS4_SaIS4_EEEdeEv
FN:1042,_ZNK9__gnu_cxx17__normal_iteratorIPKPN7testing8TestInfoESt6vectorIS3_SaIS3_EEEdeEv
FNDA:220,_ZNK9__gnu_cxx17__normal_iteratorIPKPN7testing8TestInfoESt6vectorIS3_SaIS3_EEEdeEv
FN:1042,_ZNK9__gnu_cxx17__normal_iteratorIPPN7testing11EnvironmentESt6vectorIS3_SaIS3_EEEdeEv
FNDA:0,_ZNK9__gnu_cxx17__normal_iteratorIPPN7testing11EnvironmentESt6vectorIS3_SaIS3_EEEdeEv
FN:1042,_ZNK9__gnu_cxx17__normal_iteratorIPKPN7testing11EnvironmentESt6vectorIS3_SaIS3_EEEdeEv
FNDA:0,_ZNK9__gnu_cxx17__normal_iteratorIPKPN7testing11EnvironmentESt6vectorIS3_SaIS3_EEEdeEv
FN:1042,_ZNK9__gnu_cxx17__normal_iteratorIPKN7testing8internal13edit_distance8EditTypeESt6vectorIS4_SaIS4_EEEdeEv
FNDA:0,_ZNK9__gnu_cxx17__normal_iteratorIPKN7testing8internal13edit_distance8EditTypeESt6vectorIS4_SaIS4_EEEdeEv
FN:1042,_ZNK9__gnu_cxx17__normal_iteratorIPNSt7__cxx1112basic_stringIcSt11char_traitsIcESaIcEEESt6vectorIS6_SaIS6_EEEdeEv
FNDA:8,_ZNK9__gnu_cxx17__normal_iteratorIPNSt7__cxx1112basic_stringIcSt11char_traitsIcESaIcEEESt6vectorIS6_SaIS6_EEEdeEv
FN:1042,_ZNK9__gnu_cxx17__normal_iteratorIPPN7testing8TestInfoESt6vectorIS3_SaIS3_EEEdeEv
FNDA:118,_ZNK9__gnu_cxx17__normal_iteratorIPPN7testing8TestInfoESt6vectorIS3_SaIS3_EEEdeEv
FN:1042,_ZNK9__gnu_cxx17__normal_iteratorIPPN7testing8internal30ParameterizedTestSuiteInfoBaseESt6vectorIS4_SaIS4_EEEdeEv
FNDA:0,_ZNK9__gnu_cxx17__normal_iteratorIPPN7testing8internal30ParameterizedTestSuiteInfoBaseESt6vectorIS4_SaIS4_EEEdeEv
FN:1042,_ZNK9__gnu_cxx17__normal_iteratorIPPN7testing9TestSuiteESt6vectorIS3_SaIS3_EEEdeEv
FNDA:39,_ZNK9__gnu_cxx17__normal_iteratorIPPN7testing9TestSuiteESt6vectorIS3_SaIS3_EEEdeEv
FN:1042,_ZNK9__gnu_cxx17__normal_iteratorIPKcNSt7__cxx1112basic_stringIcSt11char_traitsIcESaIcEEEEdeEv
FNDA:45,_ZNK9__gnu_cxx17__normal_iteratorIPKcNSt7__cxx1112basic_stringIcSt11char_traitsIcESaIcEEEEdeEv
FN:1042,_ZNK9__gnu_cxx17__normal_iteratorIPKPN7testing9TestSuiteESt6vectorIS3_SaIS3_EEEdeEv
FNDA:12,_ZNK9__gnu_cxx17__normal_iteratorIPKPN7testing9TestSuiteESt6vectorIS3_SaIS3_EEEdeEv
FN:1047,_ZNK9__gnu_cxx17__normal_iteratorIPN7testing12TestPropertyESt6vectorIS2_SaIS2_EEEptEv
FNDA:0,_ZNK9__gnu_cxx17__normal_iteratorIPN7testing12TestPropertyESt6vectorIS2_SaIS2_EEEptEv
FN:1052,_ZN9__gnu_cxx17__normal_iteratorIPNSt7__cxx1112basic_stringIcSt11char_traitsIcESaIcEEESt6vectorIS6_SaIS6_EEEppEv
FNDA:14,_ZN9__gnu_cxx17__normal_iteratorIPNSt7__cxx1112basic_stringIcSt11char_traitsIcESaIcEEESt6vectorIS6_SaIS6_EEEppEv
FN:1052,_ZN9__gnu_cxx17__normal_iteratorIPKN7testing8internal13edit_distance8EditTypeESt6vectorIS4_SaIS4_EEEppEv
FNDA:0,_ZN9__gnu_cxx17__normal_iteratorIPKN7testing8internal13edit_distance8EditTypeESt6vectorIS4_SaIS4_EEEppEv
FN:1052,_ZN9__gnu_cxx17__normal_iteratorIPN7testing12TestPropertyESt6vectorIS2_SaIS2_EEEppEv
FNDA:0,_ZN9__gnu_cxx17__normal_iteratorIPN7testing12TestPropertyESt6vectorIS2_SaIS2_EEEppEv
FN:1052,_ZN9__gnu_cxx17__normal_iteratorIPN7testing8internal13edit_distance8EditTypeESt6vectorIS4_SaIS4_EEEppEv
FNDA:0,_ZN9__gnu_cxx17__normal_iteratorIPN7testing8internal13edit_distance8EditTypeESt6vectorIS4_SaIS4_EEEppEv
FN:1052,_ZN9__gnu_cxx17__normal_iteratorIPKNSt7__cxx1112basic_stringIcSt11char_traitsIcESaIcEEESt6vectorIS6_SaIS6_EEEppEv
FNDA:0,_ZN9__gnu_cxx17__normal_iteratorIPKNSt7__cxx1112basic_stringIcSt11char_traitsIcESaIcEEESt6vectorIS6_SaIS6_EEEppEv
FN:1052,_ZN9__gnu_cxx17__normal_iteratorIPPN7testing8internal30ParameterizedTestSuiteInfoBaseESt6vectorIS4_SaIS4_EEEppEv
FNDA:0,_ZN9__gnu_cxx17__normal_iteratorIPPN7testing8internal30ParameterizedTestSuiteInfoBaseESt6vectorIS4_SaIS4_EEEppEv
FN:1052,_ZN9__gnu_cxx17__normal_iteratorIPKcNSt7__cxx1112basic_stringIcSt11char_traitsIcESaIcEEEEppEv
FNDA:38,_ZN9__gnu_cxx17__normal_iteratorIPKcNSt7__cxx1112basic_stringIcSt11char_traitsIcESaIcEEEEppEv
FN:1052,_ZN9__gnu_cxx17__normal_iteratorIPKPN7testing9TestSuiteESt6vectorIS3_SaIS3_EEEppEv
FNDA:12,_ZN9__gnu_cxx17__normal_iteratorIPKPN7testing9TestSuiteESt6vectorIS3_SaIS3_EEEppEv
FN:1052,_ZN9__gnu_cxx17__normal_iteratorIPPN7testing9TestSuiteESt6vectorIS3_SaIS3_EEEppEv
FNDA:2,_ZN9__gnu_cxx17__normal_iteratorIPPN7testing9TestSuiteESt6vectorIS3_SaIS3_EEEppEv
FN:1052,_ZN9__gnu_cxx17__normal_iteratorIPKPN7testing17TestEventListenerESt6vectorIS3_SaIS3_EEEppEv
FNDA:1,_ZN9__gnu_cxx17__normal_iteratorIPKPN7testing17TestEventListenerESt6vectorIS3_SaIS3_EEEppEv
FN:1052,_ZN9__gnu_cxx17__normal_iteratorIPKPN7testing8TestInfoESt6vectorIS3_SaIS3_EEEppEv
FNDA:220,_ZN9__gnu_cxx17__normal_iteratorIPKPN7testing8TestInfoESt6vectorIS3_SaIS3_EEEppEv
FN:1052,_ZN9__gnu_cxx17__normal_iteratorIPPN7testing8TestInfoESt6vectorIS3_SaIS3_EEEppEv
FNDA:36,_ZN9__gnu_cxx17__normal_iteratorIPPN7testing8TestInfoESt6vectorIS3_SaIS3_EEEppEv
FN:1052,_ZN9__gnu_cxx17__normal_iteratorIPKPN7testing11EnvironmentESt6vectorIS3_SaIS3_EEEppEv
FNDA:0,_ZN9__gnu_cxx17__normal_iteratorIPKPN7testing11EnvironmentESt6vectorIS3_SaIS3_EEEppEv
FN:1052,_ZN9__gnu_cxx17__normal_iteratorIPKN7testing14TestPartResultESt6vectorIS2_SaIS2_EEEppEv
FNDA:0,_ZN9__gnu_cxx17__normal_iteratorIPKN7testing14TestPartResultESt6vectorIS2_SaIS2_EEEppEv
FN:1066,_ZN9__gnu_cxx17__normal_iteratorIPPN7testing8TestInfoESt6vectorIS3_SaIS3_EEEmmEv
FNDA:27,_ZN9__gnu_cxx17__normal_iteratorIPPN7testing8TestInfoESt6vectorIS3_SaIS3_EEEmmEv
FN:1066,_ZN9__gnu_cxx17__normal_iteratorIPPN7testing9TestSuiteESt6vectorIS3_SaIS3_EEEmmEv
FNDA:37,_ZN9__gnu_cxx17__normal_iteratorIPPN7testing9TestSuiteESt6vectorIS3_SaIS3_EEEmmEv
FN:1066,_ZN9__gnu_cxx17__normal_iteratorIPNSt7__cxx1112basic_stringIcSt11char_traitsIcESaIcEEESt6vectorIS6_SaIS6_EEEmmEv
FNDA:0,_ZN9__gnu_cxx17__normal_iteratorIPNSt7__cxx1112basic_stringIcSt11char_traitsIcESaIcEEESt6vectorIS6_SaIS6_EEEmmEv
FN:1066,_ZN9__gnu_cxx17__normal_iteratorIPN7testing8internal13edit_distance8EditTypeESt6vectorIS4_SaIS4_EEEmmEv
FNDA:0,_ZN9__gnu_cxx17__normal_iteratorIPN7testing8internal13edit_distance8EditTypeESt6vectorIS4_SaIS4_EEEmmEv
FN:1066,_ZN9__gnu_cxx17__normal_iteratorIPPN7testing11EnvironmentESt6vectorIS3_SaIS3_EEEmmEv
FNDA:0,_ZN9__gnu_cxx17__normal_iteratorIPPN7testing11EnvironmentESt6vectorIS3_SaIS3_EEEmmEv
FN:1085,_ZN9__gnu_cxx17__normal_iteratorIPPN7testing8TestInfoESt6vectorIS3_SaIS3_EEEpLEl
FNDA:1,_ZN9__gnu_cxx17__normal_iteratorIPPN7testing8TestInfoESt6vectorIS3_SaIS3_EEEpLEl
FN:1090,_ZNK9__gnu_cxx17__normal_iteratorIPKN7testing8internal13edit_distance8EditTypeESt6vectorIS4_SaIS4_EEEplEl
FNDA:0,_ZNK9__gnu_cxx17__normal_iteratorIPKN7testing8internal13edit_distance8EditTypeESt6vectorIS4_SaIS4_EEEplEl
FN:1090,_ZNK9__gnu_cxx17__normal_iteratorIPPN7testing17TestEventListenerESt6vectorIS3_SaIS3_EEEplEl
FNDA:0,_ZNK9__gnu_cxx17__normal_iteratorIPPN7testing17TestEventListenerESt6vectorIS3_SaIS3_EEEplEl
FN:1090,_ZNK9__gnu_cxx17__normal_iteratorIPNSt7__cxx1112basic_stringIcSt11char_traitsIcESaIcEEESt6vectorIS6_SaIS6_EEEplEl
FNDA:0,_ZNK9__gnu_cxx17__normal_iteratorIPNSt7__cxx1112basic_stringIcSt11char_traitsIcESaIcEEESt6vectorIS6_SaIS6_EEEplEl
FN:1090,_ZNK9__gnu_cxx17__normal_iteratorIPPN7testing8TestInfoESt6vectorIS3_SaIS3_EEEplEl
FNDA:7,_ZNK9__gnu_cxx17__normal_iteratorIPPN7testing8TestInfoESt6vectorIS3_SaIS3_EEEplEl
FN:1090,_ZNK9__gnu_cxx17__normal_iteratorIPPN7testing9TestSuiteESt6vectorIS3_SaIS3_EEEplEl
FNDA:0,_ZNK9__gnu_cxx17__normal_iteratorIPPN7testing9TestSuiteESt6vectorIS3_SaIS3_EEEplEl
FN:1100,_ZNK9__gnu_cxx17__normal_iteratorIPPN7testing8TestInfoESt6vectorIS3_SaIS3_EEEmiEl
FNDA:0,_ZNK9__gnu_cxx17__normal_iteratorIPPN7testing8TestInfoESt6vectorIS3_SaIS3_EEEmiEl
FN:1105,_ZNK9__gnu_cxx17__normal_iteratorIPKdSt6vectorIdSaIdEEE4baseEv
FNDA:0,_ZNK9__gnu_cxx17__normal_iteratorIPKdSt6vectorIdSaIdEEE4baseEv
FN:1105,_ZNK9__gnu_cxx17__normal_iteratorIPN7testing8internal13edit_distance8EditTypeESt6vectorIS4_SaIS4_EEE4baseEv
FNDA:0,_ZNK9__gnu_cxx17__normal_iteratorIPN7testing8internal13edit_distance8EditTypeESt6vectorIS4_SaIS4_EEE4baseEv
FN:1105,_ZNK9__gnu_cxx17__normal_iteratorIPN7testing8internal9TraceInfoESt6vectorIS3_SaIS3_EEE4baseEv
FNDA:0,_ZNK9__gnu_cxx17__normal_iteratorIPN7testing8internal9TraceInfoESt6vectorIS3_SaIS3_EEE4baseEv
FN:1105,_ZNK9__gnu_cxx17__normal_iteratorIPKN7testing8internal9TraceInfoESt6vectorIS3_SaIS3_EEE4baseEv
FNDA:0,_ZNK9__gnu_cxx17__normal_iteratorIPKN7testing8internal9TraceInfoESt6vectorIS3_SaIS3_EEE4baseEv
FN:1105,_ZNK9__gnu_cxx17__normal_iteratorIPN7testing14TestPartResultESt6vectorIS2_SaIS2_EEE4baseEv
FNDA:0,_ZNK9__gnu_cxx17__normal_iteratorIPN7testing14TestPartResultESt6vectorIS2_SaIS2_EEE4baseEv
FN:1105,_ZNK9__gnu_cxx17__normal_iteratorIPPN7testing11EnvironmentESt6vectorIS3_SaIS3_EEE4baseEv
FNDA:2,_ZNK9__gnu_cxx17__normal_iteratorIPPN7testing11EnvironmentESt6vectorIS3_SaIS3_EEE4baseEv
FN:1105,_ZNK9__gnu_cxx17__normal_iteratorIPKPN7testing17TestEventListenerESt6vectorIS3_SaIS3_EEE4baseEv
FNDA:4,_ZNK9__gnu_cxx17__normal_iteratorIPKPN7testing17TestEventListenerESt6vectorIS3_SaIS3_EEE4baseEv
FN:1105,_ZNK9__gnu_cxx17__normal_iteratorIPKN7testing14TestPartResultESt6vectorIS2_SaIS2_EEE4baseEv
FNDA:288,_ZNK9__gnu_cxx17__normal_iteratorIPKN7testing14TestPartResultESt6vectorIS2_SaIS2_EEE4baseEv
FN:1105,_ZNK9__gnu_cxx17__normal_iteratorIPPN7testing8TestInfoESt6vectorIS3_SaIS3_EEE4baseEv
FNDA:176,_ZNK9__gnu_cxx17__normal_iteratorIPPN7testing8TestInfoESt6vectorIS3_SaIS3_EEE4baseEv
FN:1105,_ZNK9__gnu_cxx17__normal_iteratorIPKPN7testing8TestInfoESt6vectorIS3_SaIS3_EEE4baseEv
FNDA:484,_ZNK9__gnu_cxx17__normal_iteratorIPKPN7testing8TestInfoESt6vectorIS3_SaIS3_EEE4baseEv
FN:1105,_ZNK9__gnu_cxx17__normal_iteratorIPPN7testing17TestEventListenerESt6vectorIS3_SaIS3_EEE4baseEv
FNDA:4,_ZNK9__gnu_cxx17__normal_iteratorIPPN7testing17TestEventListenerESt6vectorIS3_SaIS3_EEE4baseEv
FN:1105,_ZNK9__gnu_cxx17__normal_iteratorIPKN7testing8internal13edit_distance8EditTypeESt6vectorIS4_SaIS4_EEE4baseEv
FNDA:0,_ZNK9__gnu_cxx17__normal_iteratorIPKN7testing8internal13edit_distance8EditTypeESt6vectorIS4_SaIS4_EEE4baseEv
FN:1105,_ZNK9__gnu_cxx17__normal_iteratorIPN7testing12TestPropertyESt6vectorIS2_SaIS2_EEE4baseEv
FNDA:0,_ZNK9__gnu_cxx17__normal_iteratorIPN7testing12TestPropertyESt6vectorIS2_SaIS2_EEE4baseEv
FN:1105,_ZNK9__gnu_cxx17__normal_iteratorIPKNSt7__cxx1112basic_stringIcSt11char_traitsIcESaIcEEESt6vectorIS6_SaIS6_EEE4baseEv
FNDA:0,_ZNK9__gnu_cxx17__normal_iteratorIPKNSt7__cxx1112basic_stringIcSt11char_traitsIcESaIcEEESt6vectorIS6_SaIS6_EEE4baseEv
FN:1105,_ZNK9__gnu_cxx17__normal_iteratorIPPN7testing8internal30ParameterizedTestSuiteInfoBaseESt6vectorIS4_SaIS4_EEE4baseEv
FNDA:4,_ZNK9__gnu_cxx17__normal_iteratorIPPN7testing8internal30ParameterizedTestSuiteInfoBaseESt6vectorIS4_SaIS4_EEE4baseEv
FN:1105,_ZNK9__gnu_cxx17__normal_iteratorIPKPN7testing11EnvironmentESt6vectorIS3_SaIS3_EEE4baseEv
FNDA:6,_ZNK9__gnu_cxx17__normal_iteratorIPKPN7testing11EnvironmentESt6vectorIS3_SaIS3_EEE4baseEv
FN:1105,_ZNK9__gnu_cxx17__normal_iteratorIPKcNSt7__cxx1112basic_stringIcSt11char_traitsIcESaIcEEEE4baseEv
FNDA:62,_ZNK9__gnu_cxx17__normal_iteratorIPKcNSt7__cxx1112basic_stringIcSt11char_traitsIcESaIcEEEE4baseEv
FN:1105,_ZNK9__gnu_cxx17__normal_iteratorIPiSt6vectorIiSaIiEEE4baseEv
FNDA:44,_ZNK9__gnu_cxx17__normal_iteratorIPiSt6vectorIiSaIiEEE4baseEv
FN:1105,_ZNK9__gnu_cxx17__normal_iteratorIPKPN7testing9TestSuiteESt6vectorIS3_SaIS3_EEE4baseEv
FNDA:76,_ZNK9__gnu_cxx17__normal_iteratorIPKPN7testing9TestSuiteESt6vectorIS3_SaIS3_EEE4baseEv
FN:1105,_ZNK9__gnu_cxx17__normal_iteratorIPmSt6vectorImSaImEEE4baseEv
FNDA:0,_ZNK9__gnu_cxx17__normal_iteratorIPmSt6vectorImSaImEEE4baseEv
FN:1105,_ZNK9__gnu_cxx17__normal_iteratorIPPN7testing9TestSuiteESt6vectorIS3_SaIS3_EEE4baseEv
FNDA:14,_ZNK9__gnu_cxx17__normal_iteratorIPPN7testing9TestSuiteESt6vectorIS3_SaIS3_EEE4baseEv
FN:1105,_ZNK9__gnu_cxx17__normal_iteratorIPNSt7__cxx1112basic_stringIcSt11char_traitsIcESaIcEEESt6vectorIS6_SaIS6_EEE4baseEv
FNDA:89,_ZNK9__gnu_cxx17__normal_iteratorIPNSt7__cxx1112basic_stringIcSt11char_traitsIcESaIcEEESt6vectorIS6_SaIS6_EEE4baseEv
FN:1155,_ZN9__gnu_cxxeqIPKPN7testing9TestSuiteEPS3_St6vectorIS3_SaIS3_EEEEbRKNS_17__normal_iteratorIT_T1_EERKNSA_IT0_SC_EE
FNDA:0,_ZN9__gnu_cxxeqIPKPN7testing9TestSuiteEPS3_St6vectorIS3_SaIS3_EEEEbRKNS_17__normal_iteratorIT_T1_EERKNSA_IT0_SC_EE
FN:1163,_ZN9__gnu_cxxeqIPN7testing8internal13edit_distance8EditTypeESt6vectorIS4_SaIS4_EEEEbRKNS_17__normal_iteratorIT_T0_EESE_
FNDA:0,_ZN9__gnu_cxxeqIPN7testing8internal13edit_distance8EditTypeESt6vectorIS4_SaIS4_EEEEbRKNS_17__normal_iteratorIT_T0_EESE_
FN:1163,_ZN9__gnu_cxxeqIPKN7testing8internal13edit_distance8EditTypeESt6vectorIS4_SaIS4_EEEEbRKNS_17__normal_iteratorIT_T0_EESF_
FNDA:0,_ZN9__gnu_cxxeqIPKN7testing8internal13edit_distance8EditTypeESt6vectorIS4_SaIS4_EEEEbRKNS_17__normal_iteratorIT_T0_EESF_
FN:1163,_ZN9__gnu_cxxeqIPN7testing12TestPropertyESt6vectorIS2_SaIS2_EEEEbRKNS_17__normal_iteratorIT_T0_EESC_
FNDA:0,_ZN9__gnu_cxxeqIPN7testing12TestPropertyESt6vectorIS2_SaIS2_EEEEbRKNS_17__normal_iteratorIT_T0_EESC_
FN:1163,_ZN9__gnu_cxxeqIPKNSt7__cxx1112basic_stringIcSt11char_traitsIcESaIcEEESt6vectorIS6_SaIS6_EEEEbRKNS_17__normal_iteratorIT_T0_EESH_
FNDA:91,_ZN9__gnu_cxxeqIPKNSt7__cxx1112basic_stringIcSt11char_traitsIcESaIcEEESt6vectorIS6_SaIS6_EEEEbRKNS_17__normal_iteratorIT_T0_EESH_
FN:1163,_ZN9__gnu_cxxeqIPNSt7__cxx1112basic_stringIcSt11char_traitsIcESaIcEEESt6vectorIS6_SaIS6_EEEEbRKNS_17__normal_iteratorIT_T0_EESG_
FNDA:11,_ZN9__gnu_cxxeqIPNSt7__cxx1112basic_stringIcSt11char_traitsIcESaIcEEESt6vectorIS6_SaIS6_EEEEbRKNS_17__normal_iteratorIT_T0_EESG_
FN:1163,_ZN9__gnu_cxxeqIPPN7testing8TestInfoESt6vectorIS3_SaIS3_EEEEbRKNS_17__normal_iteratorIT_T0_EESD_
FNDA:9,_ZN9__gnu_cxxeqIPPN7testing8TestInfoESt6vectorIS3_SaIS3_EEEEbRKNS_17__normal_iteratorIT_T0_EESD_
FN:1163,_ZN9__gnu_cxxeqIPKcNSt7__cxx1112basic_stringIcSt11char_traitsIcESaIcEEEEEbRKNS_17__normal_iteratorIT_T0_EESE_
FNDA:7,_ZN9__gnu_cxxeqIPKcNSt7__cxx1112basic_stringIcSt11char_traitsIcESaIcEEEEEbRKNS_17__normal_iteratorIT_T0_EESE_
FN:1163,_ZN9__gnu_cxxeqIPPN7testing11EnvironmentESt6vectorIS3_SaIS3_EEEEbRKNS_17__normal_iteratorIT_T0_EESD_
FNDA:1,_ZN9__gnu_cxxeqIPPN7testing11EnvironmentESt6vectorIS3_SaIS3_EEEEbRKNS_17__normal_iteratorIT_T0_EESD_
FN:1163,_ZN9__gnu_cxxeqIPKN7testing8internal9TraceInfoESt6vectorIS3_SaIS3_EEEEbRKNS_17__normal_iteratorIT_T0_EESE_
FNDA:0,_ZN9__gnu_cxxeqIPKN7testing8internal9TraceInfoESt6vectorIS3_SaIS3_EEEEbRKNS_17__normal_iteratorIT_T0_EESE_
FN:1163,_ZN9__gnu_cxxeqIPKPN7testing9TestSuiteESt6vectorIS3_SaIS3_EEEEbRKNS_17__normal_iteratorIT_T0_EESE_
FNDA:20,_ZN9__gnu_cxxeqIPKPN7testing9TestSuiteESt6vectorIS3_SaIS3_EEEEbRKNS_17__normal_iteratorIT_T0_EESE_
FN:1179,_ZN9__gnu_cxxneIPKN7testing14TestPartResultESt6vectorIS2_SaIS2_EEEEbRKNS_17__normal_iteratorIT_T0_EESD_
FNDA:144,_ZN9__gnu_cxxneIPKN7testing14TestPartResultESt6vectorIS2_SaIS2_EEEEbRKNS_17__normal_iteratorIT_T0_EESD_
FN:1179,_ZN9__gnu_cxxneIPKPN7testing8TestInfoESt6vectorIS3_SaIS3_EEEEbRKNS_17__normal_iteratorIT_T0_EESE_
FNDA:242,_ZN9__gnu_cxxneIPKPN7testing8TestInfoESt6vectorIS3_SaIS3_EEEEbRKNS_17__normal_iteratorIT_T0_EESE_
FN:1179,_ZN9__gnu_cxxneIPPN7testing8TestInfoESt6vectorIS3_SaIS3_EEEEbRKNS_17__normal_iteratorIT_T0_EESD_
FNDA:42,_ZN9__gnu_cxxneIPPN7testing8TestInfoESt6vectorIS3_SaIS3_EEEEbRKNS_17__normal_iteratorIT_T0_EESD_
FN:1179,_ZN9__gnu_cxxneIPPN7testing9TestSuiteESt6vectorIS3_SaIS3_EEEEbRKNS_17__normal_iteratorIT_T0_EESD_
FNDA:3,_ZN9__gnu_cxxneIPPN7testing9TestSuiteESt6vectorIS3_SaIS3_EEEEbRKNS_17__normal_iteratorIT_T0_EESD_
FN:1179,_ZN9__gnu_cxxneIPKPN7testing9TestSuiteESt6vectorIS3_SaIS3_EEEEbRKNS_17__normal_iteratorIT_T0_EESE_
FNDA:18,_ZN9__gnu_cxxneIPKPN7testing9TestSuiteESt6vectorIS3_SaIS3_EEEEbRKNS_17__normal_iteratorIT_T0_EESE_
FN:1179,_ZN9__gnu_cxxneIPKcNSt7__cxx1112basic_stringIcSt11char_traitsIcESaIcEEEEEbRKNS_17__normal_iteratorIT_T0_EESE_
FNDA:0,_ZN9__gnu_cxxneIPKcNSt7__cxx1112basic_stringIcSt11char_traitsIcESaIcEEEEEbRKNS_17__normal_iteratorIT_T0_EESE_
FN:1179,_ZN9__gnu_cxxneIPKNSt7__cxx1112basic_stringIcSt11char_traitsIcESaIcEEESt6vectorIS6_SaIS6_EEEEbRKNS_17__normal_iteratorIT_T0_EESH_
FNDA:0,_ZN9__gnu_cxxneIPKNSt7__cxx1112basic_stringIcSt11char_traitsIcESaIcEEESt6vectorIS6_SaIS6_EEEEbRKNS_17__normal_iteratorIT_T0_EESH_
FN:1179,_ZN9__gnu_cxxneIPKN7testing8internal13edit_distance8EditTypeESt6vectorIS4_SaIS4_EEEEbRKNS_17__normal_iteratorIT_T0_EESF_
FNDA:0,_ZN9__gnu_cxxneIPKN7testing8internal13edit_distance8EditTypeESt6vectorIS4_SaIS4_EEEEbRKNS_17__normal_iteratorIT_T0_EESF_
FN:1179,_ZN9__gnu_cxxneIPPN7testing8internal30ParameterizedTestSuiteInfoBaseESt6vectorIS4_SaIS4_EEEEbRKNS_17__normal_iteratorIT_T0_EESE_
FNDA:2,_ZN9__gnu_cxxneIPPN7testing8internal30ParameterizedTestSuiteInfoBaseESt6vectorIS4_SaIS4_EEEEbRKNS_17__normal_iteratorIT_T0_EESE_
FN:1179,_ZN9__gnu_cxxneIPKPN7testing17TestEventListenerESt6vectorIS3_SaIS3_EEEEbRKNS_17__normal_iteratorIT_T0_EESE_
FNDA:2,_ZN9__gnu_cxxneIPKPN7testing17TestEventListenerESt6vectorIS3_SaIS3_EEEEbRKNS_17__normal_iteratorIT_T0_EESE_
FN:1179,_ZN9__gnu_cxxneIPPN7testing17TestEventListenerESt6vectorIS3_SaIS3_EEEEbRKNS_17__normal_iteratorIT_T0_EESD_
FNDA:0,_ZN9__gnu_cxxneIPPN7testing17TestEventListenerESt6vectorIS3_SaIS3_EEEEbRKNS_17__normal_iteratorIT_T0_EESD_
FN:1179,_ZN9__gnu_cxxneIPKPN7testing11EnvironmentESt6vectorIS3_SaIS3_EEEEbRKNS_17__normal_iteratorIT_T0_EESE_
FNDA:3,_ZN9__gnu_cxxneIPKPN7testing11EnvironmentESt6vectorIS3_SaIS3_EEEEbRKNS_17__normal_iteratorIT_T0_EESE_
FN:1195,_ZN9__gnu_cxxltIPN7testing8internal13edit_distance8EditTypeESt6vectorIS4_SaIS4_EEEEbRKNS_17__normal_iteratorIT_T0_EESE_
FNDA:0,_ZN9__gnu_cxxltIPN7testing8internal13edit_distance8EditTypeESt6vectorIS4_SaIS4_EEEEbRKNS_17__normal_iteratorIT_T0_EESE_
FN:1255,_ZN9__gnu_cxxmiIPKPN7testing9TestSuiteEPS3_St6vectorIS3_SaIS3_EEEEDTmicldtfp_4baseEcldtfp0_4baseEERKNS_17__normal_iteratorIT_T1_EERKNSB_IT0_SD_EE
FNDA:0,_ZN9__gnu_cxxmiIPKPN7testing9TestSuiteEPS3_St6vectorIS3_SaIS3_EEEEDTmicldtfp_4baseEcldtfp0_4baseEERKNS_17__normal_iteratorIT_T1_EERKNSB_IT0_SD_EE
FN:1268,_ZN9__gnu_cxxmiIPN7testing8internal9TraceInfoESt6vectorIS3_SaIS3_EEEENS_17__normal_iteratorIT_T0_E15difference_typeERKSB_SE_
FNDA:0,_ZN9__gnu_cxxmiIPN7testing8internal9TraceInfoESt6vectorIS3_SaIS3_EEEENS_17__normal_iteratorIT_T0_E15difference_typeERKSB_SE_
FN:1268,_ZN9__gnu_cxxmiIPKPN7testing17TestEventListenerESt6vectorIS3_SaIS3_EEEENS_17__normal_iteratorIT_T0_E15difference_typeERKSC_SF_
FNDA:0,_ZN9__gnu_cxxmiIPKPN7testing17TestEventListenerESt6vectorIS3_SaIS3_EEEENS_17__normal_iteratorIT_T0_E15difference_typeERKSC_SF_
FN:1268,_ZN9__gnu_cxxmiIPiSt6vectorIiSaIiEEEENS_17__normal_iteratorIT_T0_E15difference_typeERKS8_SB_
FNDA:11,_ZN9__gnu_cxxmiIPiSt6vectorIiSaIiEEEENS_17__normal_iteratorIT_T0_E15difference_typeERKS8_SB_
FN:1268,_ZN9__gnu_cxxmiIPKcNSt7__cxx1112basic_stringIcSt11char_traitsIcESaIcEEEEENS_17__normal_iteratorIT_T0_E15difference_typeERKSC_SF_
FNDA:9,_ZN9__gnu_cxxmiIPKcNSt7__cxx1112basic_stringIcSt11char_traitsIcESaIcEEEEENS_17__normal_iteratorIT_T0_E15difference_typeERKSC_SF_
FN:1268,_ZN9__gnu_cxxmiIPKNSt7__cxx1112basic_stringIcSt11char_traitsIcESaIcEEESt6vectorIS6_SaIS6_EEEENS_17__normal_iteratorIT_T0_E15difference_typeERKSF_SI_
FNDA:0,_ZN9__gnu_cxxmiIPKNSt7__cxx1112basic_stringIcSt11char_traitsIcESaIcEEESt6vectorIS6_SaIS6_EEEENS_17__normal_iteratorIT_T0_E15difference_typeERKSF_SI_
FN:1268,_ZN9__gnu_cxxmiIPmSt6vectorImSaImEEEENS_17__normal_iteratorIT_T0_E15difference_typeERKS8_SB_
FNDA:0,_ZN9__gnu_cxxmiIPmSt6vectorImSaImEEEENS_17__normal_iteratorIT_T0_E15difference_typeERKS8_SB_
FN:1268,_ZN9__gnu_cxxmiIPKN7testing8internal13edit_distance8EditTypeESt6vectorIS4_SaIS4_EEEENS_17__normal_iteratorIT_T0_E15difference_typeERKSD_SG_
FNDA:0,_ZN9__gnu_cxxmiIPKN7testing8internal13edit_distance8EditTypeESt6vectorIS4_SaIS4_EEEENS_17__normal_iteratorIT_T0_E15difference_typeERKSD_SG_
FN:1268,_ZN9__gnu_cxxmiIPPN7testing9TestSuiteESt6vectorIS3_SaIS3_EEEENS_17__normal_iteratorIT_T0_E15difference_typeERKSB_SE_
FNDA:2,_ZN9__gnu_cxxmiIPPN7testing9TestSuiteESt6vectorIS3_SaIS3_EEEENS_17__normal_iteratorIT_T0_E15difference_typeERKSB_SE_
FN:1268,_ZN9__gnu_cxxmiIPKPN7testing9TestSuiteESt6vectorIS3_SaIS3_EEEENS_17__normal_iteratorIT_T0_E15difference_typeERKSC_SF_
FNDA:0,_ZN9__gnu_cxxmiIPKPN7testing9TestSuiteESt6vectorIS3_SaIS3_EEEENS_17__normal_iteratorIT_T0_E15difference_typeERKSC_SF_
FN:1268,_ZN9__gnu_cxxmiIPPN7testing11EnvironmentESt6vectorIS3_SaIS3_EEEENS_17__normal_iteratorIT_T0_E15difference_typeERKSB_SE_
FNDA:0,_ZN9__gnu_cxxmiIPPN7testing11EnvironmentESt6vectorIS3_SaIS3_EEEENS_17__normal_iteratorIT_T0_E15difference_typeERKSB_SE_
FN:1268,_ZN9__gnu_cxxmiIPPN7testing17TestEventListenerESt6vectorIS3_SaIS3_EEEENS_17__normal_iteratorIT_T0_E15difference_typeERKSB_SE_
FNDA:1,_ZN9__gnu_cxxmiIPPN7testing17TestEventListenerESt6vectorIS3_SaIS3_EEEENS_17__normal_iteratorIT_T0_E15difference_typeERKSB_SE_
FN:1268,_ZN9__gnu_cxxmiIPPN7testing8TestInfoESt6vectorIS3_SaIS3_EEEENS_17__normal_iteratorIT_T0_E15difference_typeERKSB_SE_
FNDA:26,_ZN9__gnu_cxxmiIPPN7testing8TestInfoESt6vectorIS3_SaIS3_EEEENS_17__normal_iteratorIT_T0_E15difference_typeERKSB_SE_
FN:1268,_ZN9__gnu_cxxmiIPN7testing12TestPropertyESt6vectorIS2_SaIS2_EEEENS_17__normal_iteratorIT_T0_E15difference_typeERKSA_SD_
FNDA:0,_ZN9__gnu_cxxmiIPN7testing12TestPropertyESt6vectorIS2_SaIS2_EEEENS_17__normal_iteratorIT_T0_E15difference_typeERKSA_SD_
FN:1268,_ZN9__gnu_cxxmiIPN7testing14TestPartResultESt6vectorIS2_SaIS2_EEEENS_17__normal_iteratorIT_T0_E15difference_typeERKSA_SD_
FNDA:0,_ZN9__gnu_cxxmiIPN7testing14TestPartResultESt6vectorIS2_SaIS2_EEEENS_17__normal_iteratorIT_T0_E15difference_typeERKSA_SD_
FN:1268,_ZN9__gnu_cxxmiIPNSt7__cxx1112basic_stringIcSt11char_traitsIcESaIcEEESt6vectorIS6_SaIS6_EEEENS_17__normal_iteratorIT_T0_E15difference_typeERKSE_SH_
FNDA:13,_ZN9__gnu_cxxmiIPNSt7__cxx1112basic_stringIcSt11char_traitsIcESaIcEEESt6vectorIS6_SaIS6_EEEENS_17__normal_iteratorIT_T0_E15difference_typeERKSE_SH_
FN:1268,_ZN9__gnu_cxxmiIPN7testing8internal13edit_distance8EditTypeESt6vectorIS4_SaIS4_EEEENS_17__normal_iteratorIT_T0_E15difference_typeERKSC_SF_
FNDA:0,_ZN9__gnu_cxxmiIPN7testing8internal13edit_distance8EditTypeESt6vectorIS4_SaIS4_EEEENS_17__normal_iteratorIT_T0_E15difference_typeERKSC_SF_
FN:1291,_ZSt12__niter_baseIPKN7testing8internal13edit_distance8EditTypeESt6vectorIS3_SaIS3_EEET_N9__gnu_cxx17__normal_iteratorIS9_T0_EE
FNDA:0,_ZSt12__niter_baseIPKN7testing8internal13edit_distance8EditTypeESt6vectorIS3_SaIS3_EEET_N9__gnu_cxx17__normal_iteratorIS9_T0_EE
FN:1291,_ZSt12__niter_baseIPPN7testing8TestInfoESt6vectorIS2_SaIS2_EEET_N9__gnu_cxx17__normal_iteratorIS7_T0_EE
FNDA:4,_ZSt12__niter_baseIPPN7testing8TestInfoESt6vectorIS2_SaIS2_EEET_N9__gnu_cxx17__normal_iteratorIS7_T0_EE
FN:1291,_ZSt12__niter_baseIPPN7testing17TestEventListenerESt6vectorIS2_SaIS2_EEET_N9__gnu_cxx17__normal_iteratorIS7_T0_EE
FNDA:0,_ZSt12__niter_baseIPPN7testing17TestEventListenerESt6vectorIS2_SaIS2_EEET_N9__gnu_cxx17__normal_iteratorIS7_T0_EE
FN:1291,_ZSt12__niter_baseIPKdSt6vectorIdSaIdEEET_N9__gnu_cxx17__normal_iteratorIS5_T0_EE
FNDA:0,_ZSt12__niter_baseIPKdSt6vectorIdSaIdEEET_N9__gnu_cxx17__normal_iteratorIS5_T0_EE
FN:1291,_ZSt12__niter_baseIPNSt7__cxx1112basic_stringIcSt11char_traitsIcESaIcEEESt6vectorIS5_SaIS5_EEET_N9__gnu_cxx17__normal_iteratorISA_T0_EE
FNDA:16,_ZSt12__niter_baseIPNSt7__cxx1112basic_stringIcSt11char_traitsIcESaIcEEESt6vectorIS5_SaIS5_EEET_N9__gnu_cxx17__normal_iteratorISA_T0_EE
FN:1439,_ZNSt13move_iteratorIPN7testing12TestPropertyEEC2ES2_
FNDA:0,_ZNSt13move_iteratorIPN7testing12TestPropertyEEC2ES2_
FN:1439,_ZNSt13move_iteratorIPPN7testing9TestSuiteEEC2ES3_
FNDA:0,_ZNSt13move_iteratorIPPN7testing9TestSuiteEEC2ES3_
FN:1439,_ZNSt13move_iteratorIPN7testing8internal9TraceInfoEEC2ES3_
FNDA:0,_ZNSt13move_iteratorIPN7testing8internal9TraceInfoEEC2ES3_
FN:1439,_ZNSt13move_iteratorIPPN7testing11EnvironmentEEC2ES3_
FNDA:0,_ZNSt13move_iteratorIPPN7testing11EnvironmentEEC2ES3_
FN:1439,_ZNSt13move_iteratorIPmEC2ES0_
FNDA:0,_ZNSt13move_iteratorIPmEC2ES0_
FN:1439,_ZNSt13move_iteratorIPPN7testing17TestEventListenerEEC2ES3_
FNDA:0,_ZNSt13move_iteratorIPPN7testing17TestEventListenerEEC2ES3_
FN:1439,_ZNSt13move_iteratorIPiEC2ES0_
FNDA:0,_ZNSt13move_iteratorIPiEC2ES0_
FN:1439,_ZNSt13move_iteratorIPPN7testing8TestInfoEEC2ES3_
FNDA:0,_ZNSt13move_iteratorIPPN7testing8TestInfoEEC2ES3_
FN:1439,_ZNSt13move_iteratorIPN7testing14TestPartResultEEC2ES2_
FNDA:0,_ZNSt13move_iteratorIPN7testing14TestPartResultEEC2ES2_
FN:1439,_ZNSt13move_iteratorIPN7testing8internal13edit_distance8EditTypeEEC2ES4_
FNDA:0,_ZNSt13move_iteratorIPN7testing8internal13edit_distance8EditTypeEEC2ES4_
FN:1439,_ZNSt13move_iteratorIPNSt7__cxx1112basic_stringIcSt11char_traitsIcESaIcEEEEC2ES6_
FNDA:0,_ZNSt13move_iteratorIPNSt7__cxx1112basic_stringIcSt11char_traitsIcESaIcEEEEC2ES6_
FN:1464,_ZNKSt13move_iteratorIPPN7testing11EnvironmentEE4baseEv
FNDA:0,_ZNKSt13move_iteratorIPPN7testing11EnvironmentEE4baseEv
FN:1464,_ZNKSt13move_iteratorIPN7testing14TestPartResultEE4baseEv
FNDA:0,_ZNKSt13move_iteratorIPN7testing14TestPartResultEE4baseEv
FN:1464,_ZNKSt13move_iteratorIPN7testing8internal13edit_distance8EditTypeEE4baseEv
FNDA:0,_ZNKSt13move_iteratorIPN7testing8internal13edit_distance8EditTypeEE4baseEv
FN:1464,_ZNKSt13move_iteratorIPNSt7__cxx1112basic_stringIcSt11char_traitsIcESaIcEEEE4baseEv
FNDA:0,_ZNKSt13move_iteratorIPNSt7__cxx1112basic_stringIcSt11char_traitsIcESaIcEEEE4baseEv
FN:1464,_ZNKSt13move_iteratorIPN7testing12TestPropertyEE4baseEv
FNDA:0,_ZNKSt13move_iteratorIPN7testing12TestPropertyEE4baseEv
FN:1464,_ZNKSt13move_iteratorIPPN7testing8TestInfoEE4baseEv
FNDA:0,_ZNKSt13move_iteratorIPPN7testing8TestInfoEE4baseEv
FN:1464,_ZNKSt13move_iteratorIPPN7testing17TestEventListenerEE4baseEv
FNDA:0,_ZNKSt13move_iteratorIPPN7testing17TestEventListenerEE4baseEv
FN:1464,_ZNKSt13move_iteratorIPN7testing8internal9TraceInfoEE4baseEv
FNDA:0,_ZNKSt13move_iteratorIPN7testing8internal9TraceInfoEE4baseEv
FN:1464,_ZNKSt13move_iteratorIPPN7testing9TestSuiteEE4baseEv
FNDA:0,_ZNKSt13move_iteratorIPPN7testing9TestSuiteEE4baseEv
FN:1464,_ZNKSt13move_iteratorIPmE4baseEv
FNDA:0,_ZNKSt13move_iteratorIPmE4baseEv
FN:1464,_ZNKSt13move_iteratorIPiE4baseEv
FNDA:0,_ZNKSt13move_iteratorIPiE4baseEv
FN:1477,_ZNKSt13move_iteratorIPN7testing12TestPropertyEEdeEv
FNDA:0,_ZNKSt13move_iteratorIPN7testing12TestPropertyEEdeEv
FN:1477,_ZNKSt13move_iteratorIPN7testing8internal9TraceInfoEEdeEv
FNDA:0,_ZNKSt13move_iteratorIPN7testing8internal9TraceInfoEEdeEv
FN:1477,_ZNKSt13move_iteratorIPNSt7__cxx1112basic_stringIcSt11char_traitsIcESaIcEEEEdeEv
FNDA:0,_ZNKSt13move_iteratorIPNSt7__cxx1112basic_stringIcSt11char_traitsIcESaIcEEEEdeEv
FN:1477,_ZNKSt13move_iteratorIPN7testing14TestPartResultEEdeEv
FNDA:0,_ZNKSt13move_iteratorIPN7testing14TestPartResultEEdeEv
FN:1489,_ZNSt13move_iteratorIPN7testing12TestPropertyEEppEv
FNDA:0,_ZNSt13move_iteratorIPN7testing12TestPropertyEEppEv
FN:1489,_ZNSt13move_iteratorIPNSt7__cxx1112basic_stringIcSt11char_traitsIcESaIcEEEEppEv
FNDA:0,_ZNSt13move_iteratorIPNSt7__cxx1112basic_stringIcSt11char_traitsIcESaIcEEEEppEv
FN:1489,_ZNSt13move_iteratorIPN7testing8internal9TraceInfoEEppEv
FNDA:0,_ZNSt13move_iteratorIPN7testing8internal9TraceInfoEEppEv
FN:1489,_ZNSt13move_iteratorIPN7testing14TestPartResultEEppEv
FNDA:0,_ZNSt13move_iteratorIPN7testing14TestPartResultEEppEv
FN:1648,_ZSteqIPN7testing14TestPartResultEEbRKSt13move_iteratorIT_ES7_
FNDA:0,_ZSteqIPN7testing14TestPartResultEEbRKSt13move_iteratorIT_ES7_
FN:1648,_ZSteqIPNSt7__cxx1112basic_stringIcSt11char_traitsIcESaIcEEEEbRKSt13move_iteratorIT_ESB_
FNDA:0,_ZSteqIPNSt7__cxx1112basic_stringIcSt11char_traitsIcESaIcEEEEbRKSt13move_iteratorIT_ESB_
FN:1648,_ZSteqIPN7testing8internal9TraceInfoEEbRKSt13move_iteratorIT_ES8_
FNDA:0,_ZSteqIPN7testing8internal9TraceInfoEEbRKSt13move_iteratorIT_ES8_
FN:1648,_ZSteqIPN7testing12TestPropertyEEbRKSt13move_iteratorIT_ES7_
FNDA:0,_ZSteqIPN7testing12TestPropertyEEbRKSt13move_iteratorIT_ES7_
FN:1661,_ZStneIPN7testing14TestPartResultEEbRKSt13move_iteratorIT_ES7_
FNDA:0,_ZStneIPN7testing14TestPartResultEEbRKSt13move_iteratorIT_ES7_
FN:1661,_ZStneIPN7testing8internal9TraceInfoEEbRKSt13move_iteratorIT_ES8_
FNDA:0,_ZStneIPN7testing8internal9TraceInfoEEbRKSt13move_iteratorIT_ES8_
FN:1661,_ZStneIPNSt7__cxx1112basic_stringIcSt11char_traitsIcESaIcEEEEbRKSt13move_iteratorIT_ESB_
FNDA:0,_ZStneIPNSt7__cxx1112basic_stringIcSt11char_traitsIcESaIcEEEEbRKSt13move_iteratorIT_ESB_
FN:1661,_ZStneIPN7testing12TestPropertyEEbRKSt13move_iteratorIT_ES7_
FNDA:0,_ZStneIPN7testing12TestPropertyEEbRKSt13move_iteratorIT_ES7_
FN:1723,_ZSt32__make_move_if_noexcept_iteratorIPN7testing17TestEventListenerESt13move_iteratorIPS2_EET0_PT_
FNDA:0,_ZSt32__make_move_if_noexcept_iteratorIPN7testing17TestEventListenerESt13move_iteratorIPS2_EET0_PT_
FN:1723,_ZSt32__make_move_if_noexcept_iteratorIPN7testing9TestSuiteESt13move_iteratorIPS2_EET0_PT_
FNDA:0,_ZSt32__make_move_if_noexcept_iteratorIPN7testing9TestSuiteESt13move_iteratorIPS2_EET0_PT_
FN:1723,_ZSt32__make_move_if_noexcept_iteratorImSt13move_iteratorIPmEET0_PT_
FNDA:0,_ZSt32__make_move_if_noexcept_iteratorImSt13move_iteratorIPmEET0_PT_
FN:1723,_ZSt32__make_move_if_noexcept_iteratorIPN7testing8TestInfoESt13move_iteratorIPS2_EET0_PT_
FNDA:0,_ZSt32__make_move_if_noexcept_iteratorIPN7testing8TestInfoESt13move_iteratorIPS2_EET0_PT_
FN:1723,_ZSt32__make_move_if_noexcept_iteratorIiSt13move_iteratorIPiEET0_PT_
FNDA:0,_ZSt32__make_move_if_noexcept_iteratorIiSt13move_iteratorIPiEET0_PT_
FN:1723,_ZSt32__make_move_if_noexcept_iteratorIN7testing12TestPropertyESt13move_iteratorIPS1_EET0_PT_
FNDA:0,_ZSt32__make_move_if_noexcept_iteratorIN7testing12TestPropertyESt13move_iteratorIPS1_EET0_PT_
FN:1723,_ZSt32__make_move_if_noexcept_iteratorIN7testing8internal9TraceInfoESt13move_iteratorIPS2_EET0_PT_
FNDA:0,_ZSt32__make_move_if_noexcept_iteratorIN7testing8internal9TraceInfoESt13move_iteratorIPS2_EET0_PT_
FN:1723,_ZSt32__make_move_if_noexcept_iteratorIN7testing8internal13edit_distance8EditTypeESt13move_iteratorIPS3_EET0_PT_
FNDA:0,_ZSt32__make_move_if_noexcept_iteratorIN7testing8internal13edit_distance8EditTypeESt13move_iteratorIPS3_EET0_PT_
FN:1723,_ZSt32__make_move_if_noexcept_iteratorINSt7__cxx1112basic_stringIcSt11char_traitsIcESaIcEEESt13move_iteratorIPS5_EET0_PT_
FNDA:0,_ZSt32__make_move_if_noexcept_iteratorINSt7__cxx1112basic_stringIcSt11char_traitsIcESaIcEEESt13move_iteratorIPS5_EET0_PT_
FN:1723,_ZSt32__make_move_if_noexcept_iteratorIN7testing14TestPartResultESt13move_iteratorIPS1_EET0_PT_
FNDA:0,_ZSt32__make_move_if_noexcept_iteratorIN7testing14TestPartResultESt13move_iteratorIPS1_EET0_PT_
FN:1723,_ZSt32__make_move_if_noexcept_iteratorIPN7testing11EnvironmentESt13move_iteratorIPS2_EET0_PT_
FNDA:0,_ZSt32__make_move_if_noexcept_iteratorIPN7testing11EnvironmentESt13move_iteratorIPS2_EET0_PT_
FN:2464,_ZSt12__miter_baseIPiEDTcl12__miter_basecldtfp_4baseEEESt13move_iteratorIT_E
FNDA:0,_ZSt12__miter_baseIPiEDTcl12__miter_basecldtfp_4baseEEESt13move_iteratorIT_E
FN:2464,_ZSt12__miter_baseIPmEDTcl12__miter_basecldtfp_4baseEEESt13move_iteratorIT_E
FNDA:0,_ZSt12__miter_baseIPmEDTcl12__miter_basecldtfp_4baseEEESt13move_iteratorIT_E
FN:2464,_ZSt12__miter_baseIPPN7testing9TestSuiteEEDTcl12__miter_basecldtfp_4baseEEESt13move_iteratorIT_E
FNDA:0,_ZSt12__miter_baseIPPN7testing9TestSuiteEEDTcl12__miter_basecldtfp_4baseEEESt13move_iteratorIT_E
FN:2464,_ZSt12__miter_baseIPPN7testing11EnvironmentEEDTcl12__miter_basecldtfp_4baseEEESt13move_iteratorIT_E
FNDA:0,_ZSt12__miter_baseIPPN7testing11EnvironmentEEDTcl12__miter_basecldtfp_4baseEEESt13move_iteratorIT_E
FN:2464,_ZSt12__miter_baseIPPN7testing17TestEventListenerEEDTcl12__miter_basecldtfp_4baseEEESt13move_iteratorIT_E
FNDA:0,_ZSt12__miter_baseIPPN7testing17TestEventListenerEEDTcl12__miter_basecldtfp_4baseEEESt13move_iteratorIT_E
FN:2464,_ZSt12__miter_baseIPPN7testing8TestInfoEEDTcl12__miter_basecldtfp_4baseEEESt13move_iteratorIT_E
FNDA:0,_ZSt12__miter_baseIPPN7testing8TestInfoEEDTcl12__miter_basecldtfp_4baseEEESt13move_iteratorIT_E
FN:2464,_ZSt12__miter_baseIPN7testing8internal13edit_distance8EditTypeEEDTcl12__miter_basecldtfp_4baseEEESt13move_iteratorIT_E
FNDA:0,_ZSt12__miter_baseIPN7testing8internal13edit_distance8EditTypeEEDTcl12__miter_basecldtfp_4baseEEESt13move_iteratorIT_E
DA:184,2
DA:184,37
DA:228,2
DA:229,2
DA:242,0
DA:244,0
DA:245,0
DA:242,37
DA:244,37
DA:245,37
DA:273,0
DA:275,0
DA:276,0
DA:420,1
DA:422,1
DA:432,1
DA:434,1
DA:890,4
DA:891,4
DA:890,4
DA:891,4
DA:936,0
DA:938,0
DA:939,0
DA:940,0
DA:936,7
DA:938,7
DA:939,7
DA:940,7
DA:947,0
DA:948,0
DA:947,7
DA:948,7
DA:953,0
DA:954,0
DA:953,7
DA:954,7
DA:983,4
DA:984,4
DA:983,4
DA:984,4
DA:1027,0
DA:1028,0
DA:1027,4
DA:1028,4
DA:1027,50
DA:1028,50
DA:1027,0
DA:1028,0
DA:1027,0
DA:1028,0
DA:1027,0
DA:1028,0
DA:1027,0
DA:1028,0
DA:1027,33
DA:1028,33
DA:1027,2
DA:1028,2
DA:1027,60
DA:1028,60
DA:1027,43
DA:1028,43
DA:1027,0
DA:1028,0
DA:1027,288
DA:1028,288
DA:1027,224
DA:1028,224
DA:1027,2
DA:1028,2
DA:1027,2
DA:1028,2
DA:1027,0
DA:1028,0
DA:1027,0
DA:1028,0
DA:1027,6
DA:1028,6
DA:1027,0
DA:1028,0
DA:1027,22
DA:1028,22
DA:1033,7
DA:1037,7
DA:1033,0
DA:1037,0
DA:1033,0
DA:1037,0
DA:1042,0
DA:1043,0
DA:1042,0
DA:1043,0
DA:1042,0
DA:1043,0
DA:1042,0
DA:1043,0
DA:1042,0
DA:1043,0
DA:1042,1
DA:1043,1
DA:1042,220
DA:1043,220
DA:1042,0
DA:1043,0
DA:1042,8
DA:1043,8
DA:1042,118
DA:1043,118
DA:1042,39
DA:1043,39
DA:1042,12
DA:1043,12
DA:1042,45
DA:1043,45
DA:1042,0
DA:1043,0
DA:1042,0
DA:1043,0
DA:1047,0
DA:1048,0
DA:1052,0
DA:1054,0
DA:1055,0
DA:1052,0
DA:1054,0
DA:1055,0
DA:1052,0
DA:1054,0
DA:1055,0
DA:1052,1
DA:1054,1
DA:1055,1
DA:1052,0
DA:1054,0
DA:1055,0
DA:1052,14
DA:1054,14
DA:1055,14
DA:1052,220
DA:1054,220
DA:1055,220
DA:1052,0
DA:1054,0
DA:1055,0
DA:1052,36
DA:1054,36
DA:1055,36
DA:1052,2
DA:1054,2
DA:1055,2
DA:1052,12
DA:1054,12
DA:1055,12
DA:1052,38
DA:1054,38
DA:1055,38
DA:1052,0
DA:1054,0
DA:1055,0
DA:1052,0
DA:1054,0
DA:1055,0
DA:1066,27
DA:1068,27
DA:1069,27
DA:1066,0
DA:1068,0
DA:1069,0
DA:1066,0
DA:1068,0
DA:1069,0
DA:1066,0
DA:1068,0
DA:1069,0
DA:1066,37
DA:1068,37
DA:1069,37
DA:1085,1
DA:1086,1
DA:1090,0
DA:1091,0
DA:1090,7
DA:1091,7
DA:1090,0
DA:1091,0
DA:1090,0
DA:1091,0
DA:1090,0
DA:1091,0
DA:1100,0
DA:1101,0
DA:1105,0
DA:1106,0
DA:1105,4
DA:1106,4
DA:1105,0
DA:1106,0
DA:1105,0
DA:1106,0
DA:1105,0
DA:1106,0
DA:1105,4
DA:1106,4
DA:1105,62
DA:1106,62
DA:1105,76
DA:1106,76
DA:1105,14
DA:1106,14
DA:1105,176
DA:1106,176
DA:1105,0
DA:1106,0
DA:1105,0
DA:1106,0
DA:1105,288
DA:1106,288
DA:1105,484
DA:1106,484
DA:1105,4
DA:1106,4
DA:1105,2
DA:1106,2
DA:1105,0
DA:1106,0
DA:1105,0
DA:1106,0
DA:1105,89
DA:1106,89
DA:1105,0
DA:1106,0
DA:1105,44
DA:1106,44
DA:1105,6
DA:1106,6
DA:1155,0
DA:1158,0
DA:1163,1
DA:1166,1
DA:1163,9
DA:1166,9
DA:1163,0
DA:1166,0
DA:1163,11
DA:1166,11
DA:1163,7
DA:1166,7
DA:1163,20
DA:1166,20
DA:1163,0
DA:1166,0
DA:1163,91
DA:1166,91
DA:1163,0
DA:1166,0
DA:1163,0
DA:1166,0
DA:1179,3
DA:1182,3
DA:1179,0
DA:1182,0
DA:1179,2
DA:1182,2
DA:1179,242
DA:1182,242
DA:1179,144
DA:1182,144
DA:1179,42
DA:1182,42
DA:1179,3
DA:1182,3
DA:1179,18
DA:1182,18
DA:1179,0
DA:1182,0
DA:1179,0
DA:1182,0
DA:1179,0
DA:1182,0
DA:1179,2
DA:1182,2
DA:1195,0
DA:1198,0
DA:1255,0
DA:1263,0
DA:1268,9
DA:1271,9
DA:1268,11
DA:1271,11
DA:1268,0
DA:1271,0
DA:1268,0
DA:1271,0
DA:1268,2
DA:1271,2
DA:1268,0
DA:1271,0
DA:1268,0
DA:1271,0
DA:1268,1
DA:1271,1
DA:1268,26
DA:1271,26
DA:1268,0
DA:1271,0
DA:1268,0
DA:1271,0
DA:1268,0
DA:1271,0
DA:1268,13
DA:1271,13
DA:1268,0
DA:1271,0
DA:1268,0
DA:1271,0
DA:1268,0
DA:1271,0
DA:1291,0
DA:1293,0
DA:1291,0
DA:1293,0
DA:1291,4
DA:1293,4
DA:1291,0
DA:1293,0
DA:1291,16
DA:1293,16
DA:1439,0
DA:1440,0
DA:1439,0
DA:1440,0
DA:1439,0
DA:1440,0
DA:1439,0
DA:1440,0
DA:1439,0
DA:1440,0
DA:1439,0
DA:1440,0
DA:1439,0
DA:1440,0
DA:1439,0
DA:1440,0
DA:1439,0
DA:1440,0
DA:1439,0
DA:1440,0
DA:1439,0
DA:1440,0
DA:1464,0
DA:1465,0
DA:1464,0
DA:1465,0
DA:1464,0
DA:1465,0
DA:1464,0
DA:1465,0
DA:1464,0
DA:1465,0
DA:1464,0
DA:1465,0
DA:1464,0
DA:1465,0
DA:1464,0
DA:1465,0
DA:1464,0
DA:1465,0
DA:1464,0
DA:1465,0
DA:1464,0
DA:1465,0
DA:1477,0
DA:1481,0
DA:1477,0
DA:1481,0
DA:1477,0
DA:1481,0
DA:1477,0
DA:1481,0
DA:1489,0
DA:1491,0
DA:1492,0
DA:1489,0
DA:1491,0
DA:1492,0
DA:1489,0
DA:1491,0
DA:1492,0
DA:1489,0
DA:1491,0
DA:1492,0
DA:1648,0
DA:1650,0
DA:1648,0
DA:1650,0
DA:1648,0
DA:1650,0
DA:1648,0
DA:1650,0
DA:1661,0
DA:1663,0
DA:1661,0
DA:1663,0
DA:1661,0
DA:1663,0
DA:1661,0
DA:1663,0
DA:1723,0
DA:1724,0
DA:1723,0
DA:1724,0
DA:1723,0
DA:1724,0
DA:1723,0
DA:1724,0
DA:1723,0
DA:1724,0
DA:1723,0
DA:1724,0
DA:1723,0
DA:1724,0
DA:1723,0
DA:1724,0
DA:1723,0
DA:1724,0
DA:1723,0
DA:1724,0
DA:1723,0
DA:1724,0
DA:2464,0
DA:2466,0
DA:2464,0
DA:2466,0
DA:2464,0
DA:2466,0
DA:2464,0
DA:2466,0
DA:2464,0
DA:2466,0
DA:2464,0
DA:2466,0
DA:2464,0
DA:2466,0
end_of_record
SF:/usr/include/c++/11/bits/stl_list.h
FN:110,_ZNSt8__detail17_List_node_headerC2Ev
FNDA:0,_ZNSt8__detail17_List_node_headerC2Ev
FN:150,_ZNSt8__detail17_List_node_header7_M_initEv
FNDA:0,_ZNSt8__detail17_List_node_header7_M_initEv
FN:171,_ZNSt10_List_nodeISt4pairIcPKcEE9_M_valptrEv
FNDA:0,_ZNSt10_List_nodeISt4pairIcPKcEE9_M_valptrEv
FN:172,_ZNKSt10_List_nodeISt4pairIcPKcEE9_M_valptrEv
FNDA:0,_ZNKSt10_List_nodeISt4pairIcPKcEE9_M_valptrEv
FN:201,_ZNSt14_List_iteratorISt4pairIcPKcEEC2EPNSt8__detail15_List_node_baseE
FNDA:0,_ZNSt14_List_iteratorISt4pairIcPKcEEC2EPNSt8__detail15_List_node_baseE
FN:287,_ZNSt20_List_const_iteratorISt4pairIcPKcEEC2ERKSt14_List_iteratorIS3_E
FNDA:0,_ZNSt20_List_const_iteratorISt4pairIcPKcEEC2ERKSt14_List_iteratorIS3_E
FN:291,_ZNKSt20_List_const_iteratorISt4pairIcPKcEE13_M_const_castEv
FNDA:0,_ZNKSt20_List_const_iteratorISt4pairIcPKcEE13_M_const_castEv
FN:300,_ZNKSt20_List_const_iteratorISt4pairIcPKcEEptEv
FNDA:0,_ZNKSt20_List_const_iteratorISt4pairIcPKcEEptEv
FN:304,_ZNSt20_List_const_iteratorISt4pairIcPKcEEppEv
FNDA:0,_ZNSt20_List_const_iteratorISt4pairIcPKcEEppEv
FN:339,_ZStneRKSt20_List_const_iteratorISt4pairIcPKcEES6_
FNDA:0,_ZStneRKSt20_List_const_iteratorISt4pairIcPKcEES6_
FN:380,_ZNSt7__cxx1110_List_baseISt4pairIcPKcESaIS4_EE10_List_implC2Ev
FNDA:0,_ZNSt7__cxx1110_List_baseISt4pairIcPKcESaIS4_EE10_List_implC2Ev
FN:405,_ZNKSt7__cxx1110_List_baseISt4pairIcPKcESaIS4_EE11_M_get_sizeEv
FNDA:0,_ZNKSt7__cxx1110_List_baseISt4pairIcPKcESaIS4_EE11_M_get_sizeEv
FN:407,_ZNSt7__cxx1110_List_baseISt4pairIcPKcESaIS4_EE11_M_set_sizeEm
FNDA:0,_ZNSt7__cxx1110_List_baseISt4pairIcPKcESaIS4_EE11_M_set_sizeEm
FN:409,_ZNSt7__cxx1110_List_baseISt4pairIcPKcESaIS4_EE11_M_inc_sizeEm
FNDA:0,_ZNSt7__cxx1110_List_baseISt4pairIcPKcESaIS4_EE11_M_inc_sizeEm
FN:442,_ZNSt7__cxx1110_List_baseISt4pairIcPKcESaIS4_EE11_M_get_nodeEv
FNDA:0,_ZNSt7__cxx1110_List_baseISt4pairIcPKcESaIS4_EE11_M_get_nodeEv
FN:446,_ZNSt7__cxx1110_List_baseISt4pairIcPKcESaIS4_EE11_M_put_nodeEPSt10_List_nodeIS4_E
FNDA:0,_ZNSt7__cxx1110_List_baseISt4pairIcPKcESaIS4_EE11_M_put_nodeEPSt10_List_nodeIS4_E
FN:453,_ZNSt7__cxx1110_List_baseISt4pairIcPKcESaIS4_EE21_M_get_Node_allocatorEv
FNDA:0,_ZNSt7__cxx1110_List_baseISt4pairIcPKcESaIS4_EE21_M_get_Node_allocatorEv
FN:461,_ZNSt7__cxx1110_List_baseISt4pairIcPKcESaIS4_EEC2Ev
FNDA:0,_ZNSt7__cxx1110_List_baseISt4pairIcPKcESaIS4_EEC2Ev
FN:499,_ZNSt7__cxx1110_List_baseISt4pairIcPKcESaIS4_EED2Ev
FNDA:0,_ZNSt7__cxx1110_List_baseISt4pairIcPKcESaIS4_EED2Ev
FN:633,_ZNSt7__cxx114listISt4pairIcPKcESaIS4_EE14_M_create_nodeIJS4_EEEPSt10_List_nodeIS4_EDpOT_
FNDA:0,_ZNSt7__cxx114listISt4pairIcPKcESaIS4_EE14_M_create_nodeIJS4_EEEPSt10_List_nodeIS4_EDpOT_
FN:674,_ZNSt7__cxx114listISt4pairIcPKcESaIS4_EEC2Ev
FNDA:0,_ZNSt7__cxx114listISt4pairIcPKcESaIS4_EEC2Ev
FN:828,_ZNSt7__cxx114listISt4pairIcPKcESaIS4_EED2Ev
FNDA:0,_ZNSt7__cxx114listISt4pairIcPKcESaIS4_EED2Ev
FN:946,_ZNSt7__cxx114listISt4pairIcPKcESaIS4_EE5beginEv
FNDA:0,_ZNSt7__cxx114listISt4pairIcPKcESaIS4_EE5beginEv
FN:964,_ZNSt7__cxx114listISt4pairIcPKcESaIS4_EE3endEv
FNDA:0,_ZNSt7__cxx114listISt4pairIcPKcESaIS4_EE3endEv
FN:1056,_ZNKSt7__cxx114listISt4pairIcPKcESaIS4_EE5emptyEv
FNDA:0,_ZNKSt7__cxx114listISt4pairIcPKcESaIS4_EE5emptyEv
FN:1217,_ZNSt7__cxx114listISt4pairIcPKcESaIS4_EE9push_backEOS4_
FNDA:0,_ZNSt7__cxx114listISt4pairIcPKcESaIS4_EE9push_backEOS4_
FN:1519,_ZNSt7__cxx114listISt4pairIcPKcESaIS4_EE6spliceESt20_List_const_iteratorIS4_EOS6_
FNDA:0,_ZNSt7__cxx114listISt4pairIcPKcESaIS4_EE6spliceESt20_List_const_iteratorIS4_EOS6_
FN:1538,_ZNSt7__cxx114listISt4pairIcPKcESaIS4_EE6spliceESt20_List_const_iteratorIS4_ERS6_
FNDA:0,_ZNSt7__cxx114listISt4pairIcPKcESaIS4_EE6spliceESt20_List_const_iteratorIS4_ERS6_
FN:1895,_ZNSt7__cxx114listISt4pairIcPKcESaIS4_EE11_M_transferESt14_List_iteratorIS4_ES8_S8_
FNDA:0,_ZNSt7__cxx114listISt4pairIcPKcESaIS4_EE11_M_transferESt14_List_iteratorIS4_ES8_S8_
FN:1910,_ZNSt7__cxx114listISt4pairIcPKcESaIS4_EE9_M_insertIJS4_EEEvSt14_List_iteratorIS4_EDpOT_
FNDA:0,_ZNSt7__cxx114listISt4pairIcPKcESaIS4_EE9_M_insertIJS4_EEEvSt14_List_iteratorIS4_EDpOT_
FN:1936,_ZNSt7__cxx114listISt4pairIcPKcESaIS4_EE25_M_check_equal_allocatorsERS6_
FNDA:0,_ZNSt7__cxx114listISt4pairIcPKcESaIS4_EE25_M_check_equal_allocatorsERS6_
DA:110,0
DA:111,0
DA:150,0
DA:152,0
DA:154,0
DA:156,0
DA:171,0
DA:172,0
DA:201,0
DA:202,0
DA:287,0
DA:288,0
DA:291,0
DA:292,0
DA:300,0
DA:301,0
DA:304,0
DA:306,0
DA:307,0
DA:339,0
DA:340,0
DA:380,0
DA:382,0
DA:383,0
DA:405,0
DA:407,0
DA:409,0
DA:442,0
DA:443,0
DA:446,0
DA:447,0
DA:453,0
DA:454,0
DA:461,0
DA:499,0
DA:500,0
DA:633,0
DA:635,0
DA:636,0
DA:637,0
DA:638,0
DA:640,0
DA:641,0
DA:642,0
DA:674,0
DA:828,0
DA:946,0
DA:947,0
DA:964,0
DA:965,0
DA:1056,0
DA:1057,0
DA:1217,0
DA:1218,0
DA:1519,0
DA:1524,0
DA:1526,0
DA:1528,0
DA:1531,0
DA:1532,0
DA:1534,0
DA:1538,0
DA:1539,0
DA:1895,0
DA:1896,0
DA:1910,0
DA:1912,0
DA:1913,0
DA:1914,0
DA:1915,0
DA:1936,0
DA:1938,0
DA:1939,0
DA:1940,0
DA:1941,0
end_of_record
SF:/usr/include/c++/11/cmath
FN:619,_ZSt5isnand
FNDA:0,_ZSt5isnand
DA:619,0
DA:620,0
end_of_record
SF:/home/jlaustill/repo/sea-dash/.pio/libdeps/latest_stable/googletest/googletest/include/gtest/internal/gtest-filepath.h
FN:72,_ZN7testing8internal8FilePathC2Ev
FNDA:1,_ZN7testing8internal8FilePathC2Ev
FN:76,_ZN7testing8internal8FilePathC2ENSt7__cxx1112basic_stringIcSt11char_traitsIcESaIcEEE
FNDA:1,_ZN7testing8internal8FilePathC2ENSt7__cxx1112basic_stringIcSt11char_traitsIcESaIcEEE
FN:84,_ZN7testing8internal8FilePathaSEOS1_
FNDA:1,_ZN7testing8internal8FilePathaSEOS1_
FN:89,_ZN7testing8internal8FilePath3SetERKS1_
FNDA:0,_ZN7testing8internal8FilePath3SetERKS1_
FN:91,_ZNK7testing8internal8FilePath6stringB5cxx11Ev
FNDA:0,_ZNK7testing8internal8FilePath6stringB5cxx11Ev
FN:92,_ZNK7testing8internal8FilePath5c_strEv
FNDA:0,_ZNK7testing8internal8FilePath5c_strEv
FN:124,_ZNK7testing8internal8FilePath7IsEmptyEv
FNDA:21,_ZNK7testing8internal8FilePath7IsEmptyEv
DA:72,1
DA:76,1
DA:77,1
DA:78,1
DA:84,1
DA:85,1
DA:86,1
DA:89,0
DA:91,0
DA:92,0
DA:124,21
end_of_record
SF:/home/jlaustill/repo/sea-dash/.pio/libdeps/latest_stable/googletest/googletest/include/gtest/gtest-assertion-result.h
FN:174,_ZNK7testing15AssertionResultcvbEv
FNDA:0,_ZNK7testing15AssertionResultcvbEv
FN:183,_ZNK7testing15AssertionResult7messageEv
FNDA:0,_ZNK7testing15AssertionResult7messageEv
FN:187,_ZNK7testing15AssertionResult15failure_messageEv
FNDA:0,_ZNK7testing15AssertionResult15failure_messageEv
FN:191,_ZN7testing15AssertionResultlsIA5_cEERS0_RKT_
FNDA:0,_ZN7testing15AssertionResultlsIA5_cEERS0_RKT_
FN:191,_ZN7testing15AssertionResultlsINS_7MessageEEERS0_RKT_
FNDA:0,_ZN7testing15AssertionResultlsINS_7MessageEEERS0_RKT_
FN:191,_ZN7testing15AssertionResultlsIA11_cEERS0_RKT_
FNDA:0,_ZN7testing15AssertionResultlsIA11_cEERS0_RKT_
FN:191,_ZN7testing15AssertionResultlsINSt7__cxx1112basic_stringIcSt11char_traitsIcESaIcEEEEERS0_RKT_
FNDA:0,_ZN7testing15AssertionResultlsINSt7__cxx1112basic_stringIcSt11char_traitsIcESaIcEEEEERS0_RKT_
FN:191,_ZN7testing15AssertionResultlsIA2_cEERS0_RKT_
FNDA:0,_ZN7testing15AssertionResultlsIA2_cEERS0_RKT_
FN:191,_ZN7testing15AssertionResultlsINS_14TestPartResultEEERS0_RKT_
FNDA:0,_ZN7testing15AssertionResultlsINS_14TestPartResultEEERS0_RKT_
FN:191,_ZN7testing15AssertionResultlsIA14_cEERS0_RKT_
FNDA:0,_ZN7testing15AssertionResultlsIA14_cEERS0_RKT_
FN:191,_ZN7testing15AssertionResultlsIA3_cEERS0_RKT_
FNDA:0,_ZN7testing15AssertionResultlsIA3_cEERS0_RKT_
FN:191,_ZN7testing15AssertionResultlsIA24_cEERS0_RKT_
FNDA:0,_ZN7testing15AssertionResultlsIA24_cEERS0_RKT_
FN:191,_ZN7testing15AssertionResultlsIPKcEERS0_RKT_
FNDA:0,_ZN7testing15AssertionResultlsIPKcEERS0_RKT_
FN:191,_ZN7testing15AssertionResultlsIA6_cEERS0_RKT_
FNDA:0,_ZN7testing15AssertionResultlsIA6_cEERS0_RKT_
FN:191,_ZN7testing15AssertionResultlsINSt7__cxx1112basic_stringIwSt11char_traitsIwESaIwEEEEERS0_RKT_
FNDA:0,_ZN7testing15AssertionResultlsINSt7__cxx1112basic_stringIwSt11char_traitsIwESaIwEEEEERS0_RKT_
FN:191,_ZN7testing15AssertionResultlsIdEERS0_RKT_
FNDA:0,_ZN7testing15AssertionResultlsIdEERS0_RKT_
FN:191,_ZN7testing15AssertionResultlsIA9_cEERS0_RKT_
FNDA:0,_ZN7testing15AssertionResultlsIA9_cEERS0_RKT_
FN:191,_ZN7testing15AssertionResultlsIA15_cEERS0_RKT_
FNDA:0,_ZN7testing15AssertionResultlsIA15_cEERS0_RKT_
FN:191,_ZN7testing15AssertionResultlsIA27_cEERS0_RKT_
FNDA:0,_ZN7testing15AssertionResultlsIA27_cEERS0_RKT_
FN:191,_ZN7testing15AssertionResultlsIA100_cEERS0_RKT_
FNDA:0,_ZN7testing15AssertionResultlsIA100_cEERS0_RKT_
FN:191,_ZN7testing15AssertionResultlsIA106_cEERS0_RKT_
FNDA:0,_ZN7testing15AssertionResultlsIA106_cEERS0_RKT_
FN:191,_ZN7testing15AssertionResultlsIA17_cEERS0_RKT_
FNDA:0,_ZN7testing15AssertionResultlsIA17_cEERS0_RKT_
FN:191,_ZN7testing15AssertionResultlsIA7_cEERS0_RKT_
FNDA:0,_ZN7testing15AssertionResultlsIA7_cEERS0_RKT_
FN:191,_ZN7testing15AssertionResultlsIA12_cEERS0_RKT_
FNDA:0,_ZN7testing15AssertionResultlsIA12_cEERS0_RKT_
FN:191,_ZN7testing15AssertionResultlsIA13_cEERS0_RKT_
FNDA:0,_ZN7testing15AssertionResultlsIA13_cEERS0_RKT_
FN:191,_ZN7testing15AssertionResultlsIA29_cEERS0_RKT_
FNDA:0,_ZN7testing15AssertionResultlsIA29_cEERS0_RKT_
FN:191,_ZN7testing15AssertionResultlsIA16_cEERS0_RKT_
FNDA:0,_ZN7testing15AssertionResultlsIA16_cEERS0_RKT_
FN:191,_ZN7testing15AssertionResultlsIPKwEERS0_RKT_
FNDA:0,_ZN7testing15AssertionResultlsIPKwEERS0_RKT_
FN:206,_ZN7testing15AssertionResult13AppendMessageERKNS_7MessageE
FNDA:0,_ZN7testing15AssertionResult13AppendMessageERKNS_7MessageE
DA:174,0
DA:183,0
DA:184,0
DA:187,0
DA:191,0
DA:192,0
DA:193,0
DA:191,0
DA:192,0
DA:193,0
DA:191,0
DA:192,0
DA:193,0
DA:191,0
DA:192,0
DA:193,0
DA:191,0
DA:192,0
DA:193,0
DA:191,0
DA:192,0
DA:193,0
DA:191,0
DA:192,0
DA:193,0
DA:191,0
DA:192,0
DA:193,0
DA:191,0
DA:192,0
DA:193,0
DA:191,0
DA:192,0
DA:193,0
DA:191,0
DA:192,0
DA:193,0
DA:191,0
DA:192,0
DA:193,0
DA:191,0
DA:192,0
DA:193,0
DA:191,0
DA:192,0
DA:193,0
DA:191,0
DA:192,0
DA:193,0
DA:191,0
DA:192,0
DA:193,0
DA:191,0
DA:192,0
DA:193,0
DA:191,0
DA:192,0
DA:193,0
DA:191,0
DA:192,0
DA:193,0
DA:191,0
DA:192,0
DA:193,0
DA:191,0
DA:192,0
DA:193,0
DA:191,0
DA:192,0
DA:193,0
DA:191,0
DA:192,0
DA:193,0
DA:191,0
DA:192,0
DA:193,0
DA:191,0
DA:192,0
DA:193,0
DA:206,0
DA:207,0
DA:208,0
DA:209,0
end_of_record
SF:/home/jlaustill/repo/sea-dash/.pio/libdeps/latest_stable/googletest/googletest/include/gtest/gtest-test-part.h
FN:68,_ZN7testing14TestPartResultC2ENS0_4TypeEPKciS3_
FNDA:0,_ZN7testing14TestPartResultC2ENS0_4TypeEPKciS3_
FN:77,_ZNK7testing14TestPartResult4typeEv
FNDA:0,_ZNK7testing14TestPartResult4typeEv
FN:81,_ZNK7testing14TestPartResult9file_nameEv
FNDA:0,_ZNK7testing14TestPartResult9file_nameEv
FN:87,_ZNK7testing14TestPartResult11line_numberEv
FNDA:0,_ZNK7testing14TestPartResult11line_numberEv
FN:90,_ZNK7testing14TestPartResult7summaryEv
FNDA:0,_ZNK7testing14TestPartResult7summaryEv
FN:93,_ZNK7testing14TestPartResult7messageEv
FNDA:0,_ZNK7testing14TestPartResult7messageEv
FN:96,_ZNK7testing14TestPartResult7skippedEv
FNDA:0,_ZNK7testing14TestPartResult7skippedEv
FN:102,_ZNK7testing14TestPartResult17nonfatally_failedEv
FNDA:0,_ZNK7testing14TestPartResult17nonfatally_failedEv
FN:105,_ZNK7testing14TestPartResult14fatally_failedEv
FNDA:0,_ZNK7testing14TestPartResult14fatally_failedEv
FN:108,_ZNK7testing14TestPartResult6failedEv
FNDA:0,_ZNK7testing14TestPartResult6failedEv
FN:157,_ZN7testing31TestPartResultReporterInterfaceD0Ev
FNDA:0,_ZN7testing31TestPartResultReporterInterfaceD0Ev
FN:157,_ZN7testing31TestPartResultReporterInterfaceD2Ev
FNDA:2,_ZN7testing31TestPartResultReporterInterfaceD2Ev
DA:68,0
DA:70,0
DA:71,0
DA:72,0
DA:73,0
DA:74,0
DA:77,0
DA:81,0
DA:82,0
DA:87,0
DA:90,0
DA:93,0
DA:96,0
DA:102,0
DA:105,0
DA:108,0
DA:157,0
DA:157,2
end_of_record
SF:/home/jlaustill/repo/sea-dash/.pio/libdeps/latest_stable/googletest/googletest/src/gtest.cc
FN:214,_ZN7testing8internalL18OpenFileForWritingERKNSt7__cxx1112basic_stringIcSt11char_traitsIcESaIcEEE
FNDA:0,_ZN7testing8internalL18OpenFileForWritingERKNSt7__cxx1112basic_stringIcSt11char_traitsIcESaIcEEE
FN:233,_ZN7testingL16GetDefaultFilterEv
FNDA:1,_ZN7testingL16GetDefaultFilterEv
FN:244,_ZN7testingL18GetDefaultFailFastEv
FNDA:1,_ZN7testingL18GetDefaultFailFastEv
FN:405,_ZN7testing8internal6Random8GenerateEj
FNDA:0,_ZN7testing8internal6Random8GenerateEj
FN:424,_ZN7testing8internalL18GTestIsInitializedEv
FNDA:2,_ZN7testing8internalL18GTestIsInitializedEv
FN:429,_ZN7testing8internalL20SumOverTestSuiteListERKSt6vectorIPNS_9TestSuiteESaIS3_EEMS2_KFivE
FNDA:5,_ZN7testing8internalL20SumOverTestSuiteListERKSt6vectorIPNS_9TestSuiteESaIS3_EEMS2_KFivE
FN:439,_ZN7testing8internalL15TestSuitePassedEPKNS_9TestSuiteE
FNDA:0,_ZN7testing8internalL15TestSuitePassedEPKNS_9TestSuiteE
FN:444,_ZN7testing8internalL15TestSuiteFailedEPKNS_9TestSuiteE
FNDA:4,_ZN7testing8internalL15TestSuiteFailedEPKNS_9TestSuiteE
FN:450,_ZN7testing8internalL18ShouldRunTestSuiteEPKNS_9TestSuiteE
FNDA:4,_ZN7testing8internalL18ShouldRunTestSuiteEPKNS_9TestSuiteE
FN:458,_ZN7testing8internal12_GLOBAL__N_133ShouldEmitStackTraceForResultTypeENS_14TestPartResult4TypeE
FNDA:0,_ZN7testing8internal12_GLOBAL__N_133ShouldEmitStackTraceForResultTypeENS_14TestPartResult4TypeE
FN:468,_ZN7testing8internal12AssertHelperC2ENS_14TestPartResult4TypeEPKciS5_
FNDA:0,_ZN7testing8internal12AssertHelperC2ENS_14TestPartResult4TypeEPKciS5_
FN:472,_ZN7testing8internal12AssertHelperD2Ev
FNDA:0,_ZN7testing8internal12AssertHelperD2Ev
FN:475,_ZNK7testing8internal12AssertHelperaSERKNS_7MessageE
FNDA:0,_ZNK7testing8internal12AssertHelperaSERKNS_7MessageE
FN:499,_ZN7testing8internal12_GLOBAL__N_111FailureTestC2ERKNS0_12CodeLocationENSt7__cxx1112basic_stringIcSt11char_traitsIcESaIcEEEb
FNDA:0,_ZN7testing8internal12_GLOBAL__N_111FailureTestC2ERKNS0_12CodeLocationENSt7__cxx1112basic_stringIcSt11char_traitsIcESaIcEEEb
FN:505,_ZN7testing8internal12_GLOBAL__N_111FailureTest8TestBodyEv
FNDA:0,_ZN7testing8internal12_GLOBAL__N_111FailureTest8TestBodyEv
FN:522,_ZN7testing8internal33GetIgnoredParameterizedTestSuitesB5cxx11Ev
FNDA:1,_ZN7testing8internal33GetIgnoredParameterizedTestSuitesB5cxx11Ev
FN:527,_ZN7testing8internal13MarkAsIgnoredC2EPKc
FNDA:0,_ZN7testing8internal13MarkAsIgnoredC2EPKc
FN:533,_ZN7testing8internal23InsertSyntheticTestCaseERKNSt7__cxx1112basic_stringIcSt11char_traitsIcESaIcEEENS0_12CodeLocationEb
FNDA:0,_ZN7testing8internal23InsertSyntheticTestCaseERKNSt7__cxx1112basic_stringIcSt11char_traitsIcESaIcEEENS0_12CodeLocationEb
FN:572,_ZZN7testing8internal23InsertSyntheticTestCaseERKNSt7__cxx1112basic_stringIcSt11char_traitsIcESaIcEEENS0_12CodeLocationEbENKUlvE_clEv
FNDA:0,_ZZN7testing8internal23InsertSyntheticTestCaseERKNSt7__cxx1112basic_stringIcSt11char_traitsIcESaIcEEENS0_12CodeLocationEbENKUlvE_clEv
FN:578,_ZN7testing8internal34RegisterTypeParameterizedTestSuiteEPKcNS0_12CodeLocationE
FNDA:0,_ZN7testing8internal34RegisterTypeParameterizedTestSuiteEPKcNS0_12CodeLocationE
FN:584,_ZN7testing8internal47RegisterTypeParameterizedTestSuiteInstantiationEPKc
FNDA:0,_ZN7testing8internal47RegisterTypeParameterizedTestSuiteInstantiationEPKc
FN:589,_ZN7testing8internal34TypeParameterizedTestSuiteRegistry17RegisterTestSuiteEPKcNS0_12CodeLocationE
FNDA:0,_ZN7testing8internal34TypeParameterizedTestSuiteRegistry17RegisterTestSuiteEPKcNS0_12CodeLocationE
FN:595,_ZN7testing8internal34TypeParameterizedTestSuiteRegistry21RegisterInstantiationEPKc
FNDA:0,_ZN7testing8internal34TypeParameterizedTestSuiteRegistry21RegisterInstantiationEPKc
FN:606,_ZN7testing8internal34TypeParameterizedTestSuiteRegistry22CheckForInstantiationsEv
FNDA:1,_ZN7testing8internal34TypeParameterizedTestSuiteRegistry22CheckForInstantiationsEv
FN:637,_ZZN7testing8internal34TypeParameterizedTestSuiteRegistry22CheckForInstantiationsEvENKUlvE_clEv
FNDA:0,_ZZN7testing8internal34TypeParameterizedTestSuiteRegistry22CheckForInstantiationsEvENKUlvE_clEv
FN:647,_ZN7testing8internal8GetArgvsB5cxx11Ev
FNDA:2,_ZN7testing8internal8GetArgvsB5cxx11Ev
FN:661,_ZN7testing8internal24GetCurrentExecutableNameEv
FNDA:0,_ZN7testing8internal24GetCurrentExecutableNameEv
FN:680,_ZN7testing8internal15UnitTestOptions15GetOutputFormatB5cxx11Ev
FNDA:1,_ZN7testing8internal15UnitTestOptions15GetOutputFormatB5cxx11Ev
FN:693,_ZN7testing8internal15UnitTestOptions27GetAbsolutePathToOutputFileB5cxx11Ev
FNDA:0,_ZN7testing8internal15UnitTestOptions27GetAbsolutePathToOutputFileB5cxx11Ev
FN:729,_ZN7testing8internalL20PatternMatchesStringERKNSt7__cxx1112basic_stringIcSt11char_traitsIcESaIcEEEPKcSA_
FNDA:104,_ZN7testing8internalL20PatternMatchesStringERKNSt7__cxx1112basic_stringIcSt11char_traitsIcESaIcEEEPKcSA_
FN:778,_ZN7testing8internal12_GLOBAL__N_113IsGlobPatternERKNSt7__cxx1112basic_stringIcSt11char_traitsIcESaIcEEE
FNDA:7,_ZN7testing8internal12_GLOBAL__N_113IsGlobPatternERKNSt7__cxx1112basic_stringIcSt11char_traitsIcESaIcEEE
FN:780,_ZZN7testing8internal12_GLOBAL__N_113IsGlobPatternERKNSt7__cxx1112basic_stringIcSt11char_traitsIcESaIcEEEENKUlcE_clEc
FNDA:16,_ZZN7testing8internal12_GLOBAL__N_113IsGlobPatternERKNSt7__cxx1112basic_stringIcSt11char_traitsIcESaIcEEEENKUlcE_clEc
FN:785,_ZN7testing8internal12_GLOBAL__N_114UnitTestFilterC2Ev
FNDA:2,_ZN7testing8internal12_GLOBAL__N_114UnitTestFilterC2Ev
FN:788,_ZN7testing8internal12_GLOBAL__N_114UnitTestFilterC2ERKNSt7__cxx1112basic_stringIcSt11char_traitsIcESaIcEEE
FNDA:4,_ZN7testing8internal12_GLOBAL__N_114UnitTestFilterC2ERKNSt7__cxx1112basic_stringIcSt11char_traitsIcESaIcEEE
FN:806,_ZNK7testing8internal12_GLOBAL__N_114UnitTestFilter11MatchesNameERKNSt7__cxx1112basic_stringIcSt11char_traitsIcESaIcEEE
FNDA:82,_ZNK7testing8internal12_GLOBAL__N_114UnitTestFilter11MatchesNameERKNSt7__cxx1112basic_stringIcSt11char_traitsIcESaIcEEE
FN:809,_ZZNK7testing8internal12_GLOBAL__N_114UnitTestFilter11MatchesNameERKNSt7__cxx1112basic_stringIcSt11char_traitsIcESaIcEEEENKUlSA_E_clESA_
FNDA:104,_ZZNK7testing8internal12_GLOBAL__N_114UnitTestFilter11MatchesNameERKNSt7__cxx1112basic_stringIcSt11char_traitsIcESaIcEEEENKUlSA_E_clESA_
FN:828,_ZN7testing8internal12_GLOBAL__N_133PositiveAndNegativeUnitTestFilterC2ERKNSt7__cxx1112basic_stringIcSt11char_traitsIcESaIcEEE
FNDA:1,_ZN7testing8internal12_GLOBAL__N_133PositiveAndNegativeUnitTestFilterC2ERKNSt7__cxx1112basic_stringIcSt11char_traitsIcESaIcEEE
FN:858,_ZNK7testing8internal12_GLOBAL__N_133PositiveAndNegativeUnitTestFilter11MatchesTestERKNSt7__cxx1112basic_stringIcSt11char_traitsIcESaIcEEESA_
FNDA:20,_ZNK7testing8internal12_GLOBAL__N_133PositiveAndNegativeUnitTestFilter11MatchesTestERKNSt7__cxx1112basic_stringIcSt11char_traitsIcESaIcEEESA_
FN:865,_ZNK7testing8internal12_GLOBAL__N_133PositiveAndNegativeUnitTestFilter11MatchesNameERKNSt7__cxx1112basic_stringIcSt11char_traitsIcESaIcEEE
FNDA:20,_ZNK7testing8internal12_GLOBAL__N_133PositiveAndNegativeUnitTestFilter11MatchesNameERKNSt7__cxx1112basic_stringIcSt11char_traitsIcESaIcEEE
FN:876,_ZN7testing8internal15UnitTestOptions13MatchesFilterERKNSt7__cxx1112basic_stringIcSt11char_traitsIcESaIcEEEPKc
FNDA:0,_ZN7testing8internal15UnitTestOptions13MatchesFilterERKNSt7__cxx1112basic_stringIcSt11char_traitsIcESaIcEEEPKc
FN:883,_ZN7testing8internal15UnitTestOptions17FilterMatchesTestERKNSt7__cxx1112basic_stringIcSt11char_traitsIcESaIcEEES9_
FNDA:0,_ZN7testing8internal15UnitTestOptions17FilterMatchesTestERKNSt7__cxx1112basic_stringIcSt11char_traitsIcESaIcEEES9_
FN:933,_ZN7testing32ScopedFakeTestPartResultReporterC2EPNS_19TestPartResultArrayE
FNDA:0,_ZN7testing32ScopedFakeTestPartResultReporterC2EPNS_19TestPartResultArrayE
FN:942,_ZN7testing32ScopedFakeTestPartResultReporterC2ENS0_13InterceptModeEPNS_19TestPartResultArrayE
FNDA:0,_ZN7testing32ScopedFakeTestPartResultReporterC2ENS0_13InterceptModeEPNS_19TestPartResultArrayE
FN:948,_ZN7testing32ScopedFakeTestPartResultReporter4InitEv
FNDA:0,_ZN7testing32ScopedFakeTestPartResultReporter4InitEv
FN:961,_ZN7testing32ScopedFakeTestPartResultReporterD2Ev
FNDA:0,_ZN7testing32ScopedFakeTestPartResultReporterD2Ev
FN:961,_ZN7testing32ScopedFakeTestPartResultReporterD0Ev
FNDA:0,_ZN7testing32ScopedFakeTestPartResultReporterD0Ev
FN:972,_ZN7testing32ScopedFakeTestPartResultReporter20ReportTestPartResultERKNS_14TestPartResultE
FNDA:0,_ZN7testing32ScopedFakeTestPartResultReporter20ReportTestPartResultERKNS_14TestPartResultE
FN:988,_ZN7testing8internal13GetTestTypeIdEv
FNDA:21,_ZN7testing8internal13GetTestTypeIdEv
FN:997,_ZN7testing8internalL13HasOneFailureEPKcS2_S2_RKNS_19TestPartResultArrayENS_14TestPartResult4TypeERKNSt7__cxx1112basic_stringIcSt11char_traitsIcESaIcEEE
FNDA:0,_ZN7testing8internalL13HasOneFailureEPKcS2_S2_RKNS_19TestPartResultArrayENS_14TestPartResult4TypeERKNSt7__cxx1112basic_stringIcSt11char_traitsIcESaIcEEE
FN:1036,_ZN7testing8internal20SingleFailureCheckerC2EPKNS_19TestPartResultArrayENS_14TestPartResult4TypeERKNSt7__cxx1112basic_stringIcSt11char_traitsIcESaIcEEE
FNDA:0,_ZN7testing8internal20SingleFailureCheckerC2EPKNS_19TestPartResultArrayENS_14TestPartResult4TypeERKNSt7__cxx1112basic_stringIcSt11char_traitsIcESaIcEEE
FN:1045,_ZN7testing8internal20SingleFailureCheckerD2Ev
FNDA:0,_ZN7testing8internal20SingleFailureCheckerD2Ev
FN:1049,_ZN7testing8internal35DefaultGlobalTestPartResultReporterC2EPNS0_12UnitTestImplE
FNDA:1,_ZN7testing8internal35DefaultGlobalTestPartResultReporterC2EPNS0_12UnitTestImplE
FN:1053,_ZN7testing8internal35DefaultGlobalTestPartResultReporter20ReportTestPartResultERKNS_14TestPartResultE
FNDA:0,_ZN7testing8internal35DefaultGlobalTestPartResultReporter20ReportTestPartResultERKNS_14TestPartResultE
FN:1059,_ZN7testing8internal38DefaultPerThreadTestPartResultReporterC2EPNS0_12UnitTestImplE
FNDA:1,_ZN7testing8internal38DefaultPerThreadTestPartResultReporterC2EPNS0_12UnitTestImplE
FN:1063,_ZN7testing8internal38DefaultPerThreadTestPartResultReporter20ReportTestPartResultERKNS_14TestPartResultE
FNDA:0,_ZN7testing8internal38DefaultPerThreadTestPartResultReporter20ReportTestPartResultERKNS_14TestPartResultE
FN:1070,_ZN7testing8internal12UnitTestImpl31GetGlobalTestPartResultReporterEv
FNDA:0,_ZN7testing8internal12UnitTestImpl31GetGlobalTestPartResultReporterEv
FN:1076,_ZN7testing8internal12UnitTestImpl31SetGlobalTestPartResultReporterEPNS_31TestPartResultReporterInterfaceE
FNDA:0,_ZN7testing8internal12UnitTestImpl31SetGlobalTestPartResultReporterEPNS_31TestPartResultReporterInterfaceE
FN:1084,_ZN7testing8internal12UnitTestImpl41GetTestPartResultReporterForCurrentThreadEv
FNDA:0,_ZN7testing8internal12UnitTestImpl41GetTestPartResultReporterForCurrentThreadEv
FN:1089,_ZN7testing8internal12UnitTestImpl41SetTestPartResultReporterForCurrentThreadEPNS_31TestPartResultReporterInterfaceE
FNDA:0,_ZN7testing8internal12UnitTestImpl41SetTestPartResultReporterForCurrentThreadEPNS_31TestPartResultReporterInterfaceE
FN:1095,_ZNK7testing8internal12UnitTestImpl27successful_test_suite_countEv
FNDA:0,_ZNK7testing8internal12UnitTestImpl27successful_test_suite_countEv
FN:1100,_ZNK7testing8internal12UnitTestImpl23failed_test_suite_countEv
FNDA:2,_ZNK7testing8internal12UnitTestImpl23failed_test_suite_countEv
FN:1105,_ZNK7testing8internal12UnitTestImpl22total_test_suite_countEv
FNDA:3,_ZNK7testing8internal12UnitTestImpl22total_test_suite_countEv
FN:1111,_ZNK7testing8internal12UnitTestImpl23test_suite_to_run_countEv
FNDA:2,_ZNK7testing8internal12UnitTestImpl23test_suite_to_run_countEv
FN:1116,_ZNK7testing8internal12UnitTestImpl21successful_test_countEv
FNDA:1,_ZNK7testing8internal12UnitTestImpl21successful_test_countEv
FN:1121,_ZNK7testing8internal12UnitTestImpl18skipped_test_countEv
FNDA:1,_ZNK7testing8internal12UnitTestImpl18skipped_test_countEv
FN:1126,_ZNK7testing8internal12UnitTestImpl17failed_test_countEv
FNDA:0,_ZNK7testing8internal12UnitTestImpl17failed_test_countEv
FN:1131,_ZNK7testing8internal12UnitTestImpl30reportable_disabled_test_countEv
FNDA:1,_ZNK7testing8internal12UnitTestImpl30reportable_disabled_test_countEv
FN:1137,_ZNK7testing8internal12UnitTestImpl19disabled_test_countEv
FNDA:0,_ZNK7testing8internal12UnitTestImpl19disabled_test_countEv
FN:1142,_ZNK7testing8internal12UnitTestImpl21reportable_test_countEv
FNDA:0,_ZNK7testing8internal12UnitTestImpl21reportable_test_countEv
FN:1147,_ZNK7testing8internal12UnitTestImpl16total_test_countEv
FNDA:0,_ZNK7testing8internal12UnitTestImpl16total_test_countEv
FN:1152,_ZNK7testing8internal12UnitTestImpl17test_to_run_countEv
FNDA:2,_ZNK7testing8internal12UnitTestImpl17test_to_run_countEv
FN:1166,_ZN7testing8internal12UnitTestImpl28CurrentOsStackTraceExceptTopB5cxx11Ei
FNDA:0,_ZN7testing8internal12UnitTestImpl28CurrentOsStackTraceExceptTopB5cxx11Ei
FN:1177,_ZN7testing8internal5TimerC2Ev
FNDA:23,_ZN7testing8internal5TimerC2Ev
FN:1180,_ZN7testing8internal5Timer7ElapsedEv
FNDA:23,_ZN7testing8internal5Timer7ElapsedEv
FN:1200,_ZN7testing8internal15GetTimeInMillisEv
FNDA:24,_ZN7testing8internal15GetTimeInMillisEv
FN:1250,_ZN7testing8internal6String13CStringEqualsEPKcS3_
FNDA:2,_ZN7testing8internal6String13CStringEqualsEPKcS3_
FN:1262,_ZN7testing8internalL24StreamWideCharsToMessageEPKwmPNS_7MessageE
FNDA:0,_ZN7testing8internalL24StreamWideCharsToMessageEPKwmPNS_7MessageE
FN:1277,_ZN7testing8internal11SplitStringERKNSt7__cxx1112basic_stringIcSt11char_traitsIcESaIcEEEcPSt6vectorIS6_SaIS6_EE
FNDA:5,_ZN7testing8internal11SplitStringERKNSt7__cxx1112basic_stringIcSt11char_traitsIcESaIcEEEcPSt6vectorIS6_SaIS6_EE
FN:1301,_ZN7testing7MessageC2Ev
FNDA:75,_ZN7testing7MessageC2Ev
FN:1309,_ZN7testing7MessagelsEPKw
FNDA:0,_ZN7testing7MessagelsEPKw
FN:1312,_ZN7testing7MessagelsEPw
FNDA:0,_ZN7testing7MessagelsEPw
FN:1319,_ZN7testing7MessagelsERKNSt7__cxx1112basic_stringIwSt11char_traitsIwESaIwEEE
FNDA:0,_ZN7testing7MessagelsERKNSt7__cxx1112basic_stringIwSt11char_traitsIwESaIwEEE
FN:1327,_ZNK7testing7Message9GetStringB5cxx11Ev
FNDA:75,_ZNK7testing7Message9GetStringB5cxx11Ev
FN:1334,_ZN7testing8internal13edit_distance21CalculateOptimalEditsERKSt6vectorImSaImEES6_
FNDA:0,_ZN7testing8internal13edit_distance21CalculateOptimalEditsERKSt6vectorImSaImEES6_
FN:1396,_ZN7testing8internal13edit_distance12_GLOBAL__N_115InternalStrings5GetIdERKNSt7__cxx1112basic_stringIcSt11char_traitsIcESaIcEEE
FNDA:0,_ZN7testing8internal13edit_distance12_GLOBAL__N_115InternalStrings5GetIdERKNSt7__cxx1112basic_stringIcSt11char_traitsIcESaIcEEE
FN:1410,_ZN7testing8internal13edit_distance21CalculateOptimalEditsERKSt6vectorINSt7__cxx1112basic_stringIcSt11char_traitsIcESaIcEEESaIS8_EESC_
FNDA:0,_ZN7testing8internal13edit_distance21CalculateOptimalEditsERKSt6vectorINSt7__cxx1112basic_stringIcSt11char_traitsIcESaIcEEESaIS8_EESC_
FN:1434,_ZN7testing8internal13edit_distance12_GLOBAL__N_14HunkC2Emm
FNDA:0,_ZN7testing8internal13edit_distance12_GLOBAL__N_14HunkC2Emm
FN:1441,_ZN7testing8internal13edit_distance12_GLOBAL__N_14Hunk8PushLineEcPKc
FNDA:0,_ZN7testing8internal13edit_distance12_GLOBAL__N_14Hunk8PushLineEcPKc
FN:1459,_ZN7testing8internal13edit_distance12_GLOBAL__N_14Hunk7PrintToEPSo
FNDA:0,_ZN7testing8internal13edit_distance12_GLOBAL__N_14Hunk7PrintToEPSo
FN:1469,_ZNK7testing8internal13edit_distance12_GLOBAL__N_14Hunk9has_editsEv
FNDA:0,_ZNK7testing8internal13edit_distance12_GLOBAL__N_14Hunk9has_editsEv
FN:1472,_ZN7testing8internal13edit_distance12_GLOBAL__N_14Hunk10FlushEditsEv
FNDA:0,_ZN7testing8internal13edit_distance12_GLOBAL__N_14Hunk10FlushEditsEv
FN:1481,_ZNK7testing8internal13edit_distance12_GLOBAL__N_14Hunk11PrintHeaderEPSo
FNDA:0,_ZNK7testing8internal13edit_distance12_GLOBAL__N_14Hunk11PrintHeaderEPSo
FN:1509,_ZN7testing8internal13edit_distance17CreateUnifiedDiffERKSt6vectorINSt7__cxx1112basic_stringIcSt11char_traitsIcESaIcEEESaIS8_EESC_m
FNDA:0,_ZN7testing8internal13edit_distance17CreateUnifiedDiffERKSt6vectorINSt7__cxx1112basic_stringIcSt11char_traitsIcESaIcEEESaIS8_EESC_m
FN:1579,_ZN7testing8internal12_GLOBAL__N_118SplitEscapedStringERKNSt7__cxx1112basic_stringIcSt11char_traitsIcESaIcEEE
FNDA:0,_ZN7testing8internal12_GLOBAL__N_118SplitEscapedStringERKNSt7__cxx1112basic_stringIcSt11char_traitsIcESaIcEEE
FN:1619,_ZN7testing8internal9EqFailureEPKcS2_RKNSt7__cxx1112basic_stringIcSt11char_traitsIcESaIcEEESA_b
FNDA:0,_ZN7testing8internal9EqFailureEPKcS2_RKNSt7__cxx1112basic_stringIcSt11char_traitsIcESaIcEEESA_b
FN:1651,_ZN7testing8internal30GetBoolAssertionFailureMessageB5cxx11ERKNS_15AssertionResultEPKcS5_S5_
FNDA:0,_ZN7testing8internal30GetBoolAssertionFailureMessageB5cxx11ERKNS_15AssertionResultEPKcS5_S5_
FN:1664,_ZN7testing8internal20DoubleNearPredFormatEPKcS2_S2_ddd
FNDA:0,_ZN7testing8internal20DoubleNearPredFormatEPKcS2_S2_ddd
FN:1705,_ZN7testing8internal15FloatingPointLEIdEENS_15AssertionResultEPKcS4_T_S5_
FNDA:0,_ZN7testing8internal15FloatingPointLEIdEENS_15AssertionResultEPKcS4_T_S5_
FN:1705,_ZN7testing8internal15FloatingPointLEIfEENS_15AssertionResultEPKcS4_T_S5_
FNDA:0,_ZN7testing8internal15FloatingPointLEIfEENS_15AssertionResultEPKcS4_T_S5_
FN:1740,_ZN7testing7FloatLEEPKcS1_ff
FNDA:0,_ZN7testing7FloatLEEPKcS1_ff
FN:1747,_ZN7testing8DoubleLEEPKcS1_dd
FNDA:0,_ZN7testing8DoubleLEEPKcS1_dd
FN:1755,_ZN7testing8internal14CmpHelperSTREQEPKcS2_S2_S2_
FNDA:0,_ZN7testing8internal14CmpHelperSTREQEPKcS2_S2_S2_
FN:1767,_ZN7testing8internal18CmpHelperSTRCASEEQEPKcS2_S2_S2_
FNDA:0,_ZN7testing8internal18CmpHelperSTRCASEEQEPKcS2_S2_S2_
FN:1779,_ZN7testing8internal14CmpHelperSTRNEEPKcS2_S2_S2_
FNDA:0,_ZN7testing8internal14CmpHelperSTRNEEPKcS2_S2_S2_
FN:1792,_ZN7testing8internal18CmpHelperSTRCASENEEPKcS2_S2_S2_
FNDA:0,_ZN7testing8internal18CmpHelperSTRCASENEEPKcS2_S2_S2_
FN:1814,_ZN7testing12_GLOBAL__N_115IsSubstringPredEPKcS2_
FNDA:0,_ZN7testing12_GLOBAL__N_115IsSubstringPredEPKcS2_
FN:1820,_ZN7testing12_GLOBAL__N_115IsSubstringPredEPKwS2_
FNDA:0,_ZN7testing12_GLOBAL__N_115IsSubstringPredEPKwS2_
FN:1828,_ZN7testing12_GLOBAL__N_115IsSubstringPredINSt7__cxx1112basic_stringIwSt11char_traitsIwESaIwEEEEEbRKT_SA_
FNDA:0,_ZN7testing12_GLOBAL__N_115IsSubstringPredINSt7__cxx1112basic_stringIwSt11char_traitsIwESaIwEEEEEbRKT_SA_
FN:1828,_ZN7testing12_GLOBAL__N_115IsSubstringPredINSt7__cxx1112basic_stringIcSt11char_traitsIcESaIcEEEEEbRKT_SA_
FNDA:0,_ZN7testing12_GLOBAL__N_115IsSubstringPredINSt7__cxx1112basic_stringIcSt11char_traitsIcESaIcEEEEEbRKT_SA_
FN:1837,_ZN7testing12_GLOBAL__N_115IsSubstringImplIPKcEENS_15AssertionResultEbS3_S3_RKT_S7_
FNDA:0,_ZN7testing12_GLOBAL__N_115IsSubstringImplIPKcEENS_15AssertionResultEbS3_S3_RKT_S7_
FN:1837,_ZN7testing12_GLOBAL__N_115IsSubstringImplIPKwEENS_15AssertionResultEbPKcS6_RKT_S9_
FNDA:0,_ZN7testing12_GLOBAL__N_115IsSubstringImplIPKwEENS_15AssertionResultEbPKcS6_RKT_S9_
FN:1837,_ZN7testing12_GLOBAL__N_115IsSubstringImplINSt7__cxx1112basic_stringIcSt11char_traitsIcESaIcEEEEENS_15AssertionResultEbPKcSA_RKT_SD_
FNDA:0,_ZN7testing12_GLOBAL__N_115IsSubstringImplINSt7__cxx1112basic_stringIcSt11char_traitsIcESaIcEEEEENS_15AssertionResultEbPKcSA_RKT_SD_
FN:1837,_ZN7testing12_GLOBAL__N_115IsSubstringImplINSt7__cxx1112basic_stringIwSt11char_traitsIwESaIwEEEEENS_15AssertionResultEbPKcSA_RKT_SD_
FNDA:0,_ZN7testing12_GLOBAL__N_115IsSubstringImplINSt7__cxx1112basic_stringIwSt11char_traitsIwESaIwEEEEENS_15AssertionResultEbPKcSA_RKT_SD_
FN:1861,_ZN7testing11IsSubstringEPKcS1_S1_S1_
FNDA:0,_ZN7testing11IsSubstringEPKcS1_S1_S1_
FN:1866,_ZN7testing11IsSubstringEPKcS1_PKwS3_
FNDA:0,_ZN7testing11IsSubstringEPKcS1_PKwS3_
FN:1871,_ZN7testing14IsNotSubstringEPKcS1_S1_S1_
FNDA:0,_ZN7testing14IsNotSubstringEPKcS1_S1_S1_
FN:1877,_ZN7testing14IsNotSubstringEPKcS1_PKwS3_
FNDA:0,_ZN7testing14IsNotSubstringEPKcS1_PKwS3_
FN:1883,_ZN7testing11IsSubstringEPKcS1_RKNSt7__cxx1112basic_stringIcSt11char_traitsIcESaIcEEES9_
FNDA:0,_ZN7testing11IsSubstringEPKcS1_RKNSt7__cxx1112basic_stringIcSt11char_traitsIcESaIcEEES9_
FN:1889,_ZN7testing14IsNotSubstringEPKcS1_RKNSt7__cxx1112basic_stringIcSt11char_traitsIcESaIcEEES9_
FNDA:0,_ZN7testing14IsNotSubstringEPKcS1_RKNSt7__cxx1112basic_stringIcSt11char_traitsIcESaIcEEES9_
FN:1897,_ZN7testing11IsSubstringEPKcS1_RKNSt7__cxx1112basic_stringIwSt11char_traitsIwESaIwEEES9_
FNDA:0,_ZN7testing11IsSubstringEPKcS1_RKNSt7__cxx1112basic_stringIwSt11char_traitsIwESaIwEEES9_
FN:1903,_ZN7testing14IsNotSubstringEPKcS1_RKNSt7__cxx1112basic_stringIwSt11char_traitsIwESaIwEEES9_
FNDA:0,_ZN7testing14IsNotSubstringEPKcS1_RKNSt7__cxx1112basic_stringIwSt11char_traitsIwESaIwEEES9_
FN:2003,_ZN7testing8internal11ChopLowBitsEPji
FNDA:0,_ZN7testing8internal11ChopLowBitsEPji
FN:2015,_ZN7testing8internal15CodePointToUtf8B5cxx11Ej
FNDA:0,_ZN7testing8internal15CodePointToUtf8B5cxx11Ej
FN:2050,_ZN7testing8internal20IsUtf16SurrogatePairEww
FNDA:0,_ZN7testing8internal20IsUtf16SurrogatePairEww
FN:2056,_ZN7testing8internal37CreateCodePointFromUtf16SurrogatePairEww
FNDA:0,_ZN7testing8internal37CreateCodePointFromUtf16SurrogatePairEww
FN:2082,_ZN7testing8internal16WideStringToUtf8B5cxx11EPKwi
FNDA:0,_ZN7testing8internal16WideStringToUtf8B5cxx11EPKwi
FN:2106,_ZN7testing8internal6String15ShowWideCStringB5cxx11EPKw
FNDA:0,_ZN7testing8internal6String15ShowWideCStringB5cxx11EPKw
FN:2118,_ZN7testing8internal6String17WideCStringEqualsEPKwS3_
FNDA:0,_ZN7testing8internal6String17WideCStringEqualsEPKwS3_
FN:2127,_ZN7testing8internal14CmpHelperSTREQEPKcS2_PKwS4_
FNDA:0,_ZN7testing8internal14CmpHelperSTREQEPKcS2_PKwS4_
FN:2139,_ZN7testing8internal14CmpHelperSTRNEEPKcS2_PKwS4_
FNDA:0,_ZN7testing8internal14CmpHelperSTRNEEPKcS2_PKwS4_
FN:2157,_ZN7testing8internal6String28CaseInsensitiveCStringEqualsEPKcS3_
FNDA:4,_ZN7testing8internal6String28CaseInsensitiveCStringEqualsEPKcS3_
FN:2175,_ZN7testing8internal6String32CaseInsensitiveWideCStringEqualsEPKwS3_
FNDA:0,_ZN7testing8internal6String32CaseInsensitiveWideCStringEqualsEPKwS3_
FN:2199,_ZN7testing8internal6String23EndsWithCaseInsensitiveERKNSt7__cxx1112basic_stringIcSt11char_traitsIcESaIcEEES9_
FNDA:0,_ZN7testing8internal6String23EndsWithCaseInsensitiveERKNSt7__cxx1112basic_stringIcSt11char_traitsIcESaIcEEES9_
FN:2209,_ZN7testing8internal6String15FormatIntWidth2B5cxx11Ei
FNDA:0,_ZN7testing8internal6String15FormatIntWidth2B5cxx11Ei
FN:2214,_ZN7testing8internal6String15FormatIntWidthNB5cxx11Eii
FNDA:0,_ZN7testing8internal6String15FormatIntWidthNB5cxx11Eii
FN:2221,_ZN7testing8internal6String15FormatHexUInt32B5cxx11Ej
FNDA:0,_ZN7testing8internal6String15FormatHexUInt32B5cxx11Ej
FN:2228,_ZN7testing8internal6String12FormatHexIntB5cxx11Ei
FNDA:0,_ZN7testing8internal6String12FormatHexIntB5cxx11Ei
FN:2233,_ZN7testing8internal6String10FormatByteB5cxx11Eh
FNDA:0,_ZN7testing8internal6String10FormatByteB5cxx11Eh
FN:2242,_ZN7testing8internal20StringStreamToStringEPNSt7__cxx1118basic_stringstreamIcSt11char_traitsIcESaIcEEE
FNDA:75,_ZN7testing8internal20StringStreamToStringEPNSt7__cxx1118basic_stringstreamIcSt11char_traitsIcESaIcEEE
FN:2261,_ZN7testing8internal17AppendUserMessageERKNSt7__cxx1112basic_stringIcSt11char_traitsIcESaIcEEERKNS_7MessageE
FNDA:0,_ZN7testing8internal17AppendUserMessageERKNSt7__cxx1112basic_stringIcSt11char_traitsIcESaIcEEERKNS_7MessageE
FN:2279,_ZN7testing10TestResultC2Ev
FNDA:23,_ZN7testing10TestResultC2Ev
FN:2283,_ZN7testing10TestResultD2Ev
FNDA:23,_ZN7testing10TestResultD2Ev
FN:2288,_ZNK7testing10TestResult17GetTestPartResultEi
FNDA:0,_ZNK7testing10TestResult17GetTestPartResultEi
FN:2296,_ZNK7testing10TestResult15GetTestPropertyEi
FNDA:0,_ZNK7testing10TestResult15GetTestPropertyEi
FN:2302,_ZN7testing10TestResult20ClearTestPartResultsEv
FNDA:0,_ZN7testing10TestResult20ClearTestPartResultsEv
FN:2305,_ZN7testing10TestResult17AddTestPartResultERKNS_14TestPartResultE
FNDA:0,_ZN7testing10TestResult17AddTestPartResultERKNS_14TestPartResultE
FN:2312,_ZN7testing10TestResult14RecordPropertyERKNSt7__cxx1112basic_stringIcSt11char_traitsIcESaIcEEERKNS_12TestPropertyE
FNDA:0,_ZN7testing10TestResult14RecordPropertyERKNSt7__cxx1112basic_stringIcSt11char_traitsIcESaIcEEERKNS_12TestPropertyE
FN:2352,_ZN7testing13ArrayAsVectorILm10EEESt6vectorINSt7__cxx1112basic_stringIcSt11char_traitsIcESaIcEEESaIS7_EERAT__KPKc
FNDA:0,_ZN7testing13ArrayAsVectorILm10EEESt6vectorINSt7__cxx1112basic_stringIcSt11char_traitsIcESaIcEEESaIS7_EERAT__KPKc
FN:2352,_ZN7testing13ArrayAsVectorILm8EEESt6vectorINSt7__cxx1112basic_stringIcSt11char_traitsIcESaIcEEESaIS7_EERAT__KPKc
FNDA:0,_ZN7testing13ArrayAsVectorILm8EEESt6vectorINSt7__cxx1112basic_stringIcSt11char_traitsIcESaIcEEESaIS7_EERAT__KPKc
FN:2356,_ZN7testingL31GetReservedAttributesForElementERKNSt7__cxx1112basic_stringIcSt11char_traitsIcESaIcEEE
FNDA:0,_ZN7testingL31GetReservedAttributesForElementERKNSt7__cxx1112basic_stringIcSt11char_traitsIcESaIcEEE
FN:2374,_ZN7testingL37GetReservedOutputAttributesForElementERKNSt7__cxx1112basic_stringIcSt11char_traitsIcESaIcEEE
FNDA:0,_ZN7testingL37GetReservedOutputAttributesForElementERKNSt7__cxx1112basic_stringIcSt11char_traitsIcESaIcEEE
FN:2390,_ZN7testingL14FormatWordListERKSt6vectorINSt7__cxx1112basic_stringIcSt11char_traitsIcESaIcEEESaIS6_EE
FNDA:0,_ZN7testingL14FormatWordListERKSt6vectorINSt7__cxx1112basic_stringIcSt11char_traitsIcESaIcEEESaIS6_EE
FN:2404,_ZN7testingL24ValidateTestPropertyNameERKNSt7__cxx1112basic_stringIcSt11char_traitsIcESaIcEEERKSt6vectorIS5_SaIS5_EE
FNDA:0,_ZN7testingL24ValidateTestPropertyNameERKNSt7__cxx1112basic_stringIcSt11char_traitsIcESaIcEEERKSt6vectorIS5_SaIS5_EE
FN:2419,_ZN7testing10TestResult20ValidateTestPropertyERKNSt7__cxx1112basic_stringIcSt11char_traitsIcESaIcEEERKNS_12TestPropertyE
FNDA:0,_ZN7testing10TestResult20ValidateTestPropertyERKNSt7__cxx1112basic_stringIcSt11char_traitsIcESaIcEEERKNS_12TestPropertyE
FN:2426,_ZN7testing10TestResult5ClearEv
FNDA:22,_ZN7testing10TestResult5ClearEv
FN:2434,_ZN7testingL15TestPartSkippedERKNS_14TestPartResultE
FNDA:0,_ZN7testingL15TestPartSkippedERKNS_14TestPartResultE
FN:2439,_ZNK7testing10TestResult7SkippedEv
FNDA:103,_ZNK7testing10TestResult7SkippedEv
FN:2444,_ZNK7testing10TestResult6FailedEv
FNDA:211,_ZNK7testing10TestResult6FailedEv
FN:2452,_ZN7testingL21TestPartFatallyFailedERKNS_14TestPartResultE
FNDA:0,_ZN7testingL21TestPartFatallyFailedERKNS_14TestPartResultE
FN:2457,_ZNK7testing10TestResult15HasFatalFailureEv
FNDA:41,_ZNK7testing10TestResult15HasFatalFailureEv
FN:2462,_ZN7testingL24TestPartNonfatallyFailedERKNS_14TestPartResultE
FNDA:0,_ZN7testingL24TestPartNonfatallyFailedERKNS_14TestPartResultE
FN:2467,_ZNK7testing10TestResult18HasNonfatalFailureEv
FNDA:0,_ZNK7testing10TestResult18HasNonfatalFailureEv
FN:2473,_ZNK7testing10TestResult16total_part_countEv
FNDA:211,_ZNK7testing10TestResult16total_part_countEv
FN:2478,_ZNK7testing10TestResult19test_property_countEv
FNDA:0,_ZNK7testing10TestResult19test_property_countEv
FN:2487,_ZN7testing4TestC2Ev
FNDA:20,_ZN7testing4TestC2Ev
FN:2492,_ZN7testing4TestD2Ev
FNDA:20,_ZN7testing4TestD2Ev
FN:2492,_ZN7testing4TestD0Ev
FNDA:0,_ZN7testing4TestD0Ev
FN:2497,_ZN7testing4Test5SetUpEv
FNDA:20,_ZN7testing4Test5SetUpEv
FN:2502,_ZN7testing4Test8TearDownEv
FNDA:20,_ZN7testing4Test8TearDownEv
FN:2505,_ZN7testing4Test14RecordPropertyERKNSt7__cxx1112basic_stringIcSt11char_traitsIcESaIcEEES8_
FNDA:0,_ZN7testing4Test14RecordPropertyERKNSt7__cxx1112basic_stringIcSt11char_traitsIcESaIcEEES8_
FN:2511,_ZN7testing8internal30ReportFailureInUnknownLocationENS_14TestPartResult4TypeERKNSt7__cxx1112basic_stringIcSt11char_traitsIcESaIcEEE
FNDA:0,_ZN7testing8internal30ReportFailureInUnknownLocationENS_14TestPartResult4TypeERKNSt7__cxx1112basic_stringIcSt11char_traitsIcESaIcEEE
FN:2530,_ZN7testing4Test19HasSameFixtureClassEv
FNDA:20,_ZN7testing4Test19HasSameFixtureClassEv
FN:2596,_ZN7testing8internalL25FormatCxxExceptionMessageEPKcS2_
FNDA:0,_ZN7testing8internalL25FormatCxxExceptionMessageEPKcS2_
FN:2612,_ZN7testing8internal26GoogleTestFailureExceptionC2ERKNS_14TestPartResultE
FNDA:0,_ZN7testing8internal26GoogleTestFailureExceptionC2ERKNS_14TestPartResultE
FN:2627,_ZN7testing8internal38HandleSehExceptionsInMethodIfSupportedINS_9TestSuiteEvEET0_PT_MS4_FS3_vEPKc
FNDA:4,_ZN7testing8internal38HandleSehExceptionsInMethodIfSupportedINS_9TestSuiteEvEET0_PT_MS4_FS3_vEPKc
FN:2627,_ZN7testing8internal38HandleSehExceptionsInMethodIfSupportedINS0_12UnitTestImplEbEET0_PT_MS4_FS3_vEPKc
FNDA:1,_ZN7testing8internal38HandleSehExceptionsInMethodIfSupportedINS0_12UnitTestImplEbEET0_PT_MS4_FS3_vEPKc
FN:2627,_ZN7testing8internal38HandleSehExceptionsInMethodIfSupportedINS_4TestEvEET0_PT_MS4_FS3_vEPKc
FNDA:80,_ZN7testing8internal38HandleSehExceptionsInMethodIfSupportedINS_4TestEvEET0_PT_MS4_FS3_vEPKc
FN:2627,_ZN7testing8internal38HandleSehExceptionsInMethodIfSupportedINS0_15TestFactoryBaseEPNS_4TestEEET0_PT_MS6_FS5_vEPKc
FNDA:20,_ZN7testing8internal38HandleSehExceptionsInMethodIfSupportedINS0_15TestFactoryBaseEPNS_4TestEEET0_PT_MS6_FS5_vEPKc
FN:2646,_ZN7testing8internal35HandleExceptionsInMethodIfSupportedINS_4TestEvEET0_PT_MS4_FS3_vEPKc
FNDA:80,_ZN7testing8internal35HandleExceptionsInMethodIfSupportedINS_4TestEvEET0_PT_MS4_FS3_vEPKc
FN:2646,_ZN7testing8internal35HandleExceptionsInMethodIfSupportedINS0_15TestFactoryBaseEPNS_4TestEEET0_PT_MS6_FS5_vEPKc
FNDA:20,_ZN7testing8internal35HandleExceptionsInMethodIfSupportedINS0_15TestFactoryBaseEPNS_4TestEEET0_PT_MS6_FS5_vEPKc
FN:2646,_ZN7testing8internal35HandleExceptionsInMethodIfSupportedINS_9TestSuiteEvEET0_PT_MS4_FS3_vEPKc
FNDA:4,_ZN7testing8internal35HandleExceptionsInMethodIfSupportedINS_9TestSuiteEvEET0_PT_MS4_FS3_vEPKc
FN:2646,_ZN7testing8internal35HandleExceptionsInMethodIfSupportedINS0_12UnitTestImplEbEET0_PT_MS4_FS3_vEPKc
FNDA:1,_ZN7testing8internal35HandleExceptionsInMethodIfSupportedINS0_12UnitTestImplEbEET0_PT_MS4_FS3_vEPKc
FN:2703,_ZN7testing4Test3RunEv
FNDA:20,_ZN7testing4Test3RunEv
FN:2726,_ZN7testing4Test15HasFatalFailureEv
FNDA:41,_ZN7testing4Test15HasFatalFailureEv
FN:2731,_ZN7testing4Test18HasNonfatalFailureEv
FNDA:0,_ZN7testing4Test18HasNonfatalFailureEv
FN:2738,_ZN7testing4Test9IsSkippedEv
FNDA:41,_ZN7testing4Test9IsSkippedEv
FN:2746,_ZN7testing8TestInfoC2ENSt7__cxx1112basic_stringIcSt11char_traitsIcESaIcEEES6_PKcS8_NS_8internal12CodeLocationEPKvPNS9_15TestFactoryBaseE
FNDA:20,_ZN7testing8TestInfoC2ENSt7__cxx1112basic_stringIcSt11char_traitsIcESaIcEEES6_PKcS8_NS_8internal12CodeLocationEPKvPNS9_15TestFactoryBaseE
FN:2765,_ZN7testing8TestInfoD2Ev
FNDA:20,_ZN7testing8TestInfoD2Ev
FN:2787,_ZN7testing8internal23MakeAndRegisterTestInfoENSt7__cxx1112basic_stringIcSt11char_traitsIcESaIcEEEPKcS8_S8_NS0_12CodeLocationEPKvPFvvESD_PNS0_15TestFactoryBaseE
FNDA:20,_ZN7testing8internal23MakeAndRegisterTestInfoENSt7__cxx1112basic_stringIcSt11char_traitsIcESaIcEEEPKcS8_S8_NS0_12CodeLocationEPKvPFvvESD_PNS0_15TestFactoryBaseE
FN:2799,_ZN7testing8internal26ReportInvalidTestSuiteTypeEPKcRKNS0_12CodeLocationE
FNDA:0,_ZN7testing8internal26ReportInvalidTestSuiteTypeEPKcRKNS0_12CodeLocationE
FN:2820,_ZN7testing8internal12UnitTestImpl26RegisterParameterizedTestsEv
FNDA:1,_ZN7testing8internal12UnitTestImpl26RegisterParameterizedTestsEv
FN:2832,_ZN7testing8TestInfo3RunEv
FNDA:20,_ZN7testing8TestInfo3RunEv
FN:2880,_ZN7testing8TestInfo4SkipEv
FNDA:0,_ZN7testing8TestInfo4SkipEv
FN:2904,_ZNK7testing9TestSuite21successful_test_countEv
FNDA:2,_ZNK7testing9TestSuite21successful_test_countEv
FN:2909,_ZNK7testing9TestSuite18skipped_test_countEv
FNDA:2,_ZNK7testing9TestSuite18skipped_test_countEv
FN:2914,_ZNK7testing9TestSuite17failed_test_countEv
FNDA:4,_ZNK7testing9TestSuite17failed_test_countEv
FN:2919,_ZNK7testing9TestSuite30reportable_disabled_test_countEv
FNDA:2,_ZNK7testing9TestSuite30reportable_disabled_test_countEv
FN:2924,_ZNK7testing9TestSuite19disabled_test_countEv
FNDA:0,_ZNK7testing9TestSuite19disabled_test_countEv
FN:2929,_ZNK7testing9TestSuite21reportable_test_countEv
FNDA:0,_ZNK7testing9TestSuite21reportable_test_countEv
FN:2934,_ZNK7testing9TestSuite17test_to_run_countEv
FNDA:8,_ZNK7testing9TestSuite17test_to_run_countEv
FN:2939,_ZNK7testing9TestSuite16total_test_countEv
FNDA:22,_ZNK7testing9TestSuite16total_test_countEv
FN:2952,_ZN7testing9TestSuiteC2ERKNSt7__cxx1112basic_stringIcSt11char_traitsIcESaIcEEEPKcPFvvESC_
FNDA:2,_ZN7testing9TestSuiteC2ERKNSt7__cxx1112basic_stringIcSt11char_traitsIcESaIcEEEPKcPFvvESC_
FN:2964,_ZN7testing9TestSuiteD2Ev
FNDA:2,_ZN7testing9TestSuiteD2Ev
FN:2964,_ZN7testing9TestSuiteD0Ev
FNDA:2,_ZN7testing9TestSuiteD0Ev
FN:2971,_ZNK7testing9TestSuite11GetTestInfoEi
FNDA:0,_ZNK7testing9TestSuite11GetTestInfoEi
FN:2978,_ZN7testing9TestSuite18GetMutableTestInfoEi
FNDA:20,_ZN7testing9TestSuite18GetMutableTestInfoEi
FN:2985,_ZN7testing9TestSuite11AddTestInfoEPNS_8TestInfoE
FNDA:20,_ZN7testing9TestSuite11AddTestInfoEPNS_8TestInfoE
FN:2991,_ZN7testing9TestSuite3RunEv
FNDA:2,_ZN7testing9TestSuite3RunEv
FN:3009,_ZZN7testing9TestSuite3RunEvENKUlPKNS_8TestInfoES3_E_clES3_S3_
FNDA:41,_ZZN7testing9TestSuite3RunEvENKUlPKNS_8TestInfoES3_E_clES3_S3_
FN:3064,_ZN7testing9TestSuite4SkipEv
FNDA:0,_ZN7testing9TestSuite4SkipEv
FN:3093,_ZN7testing9TestSuite11ClearResultEv
FNDA:2,_ZN7testing9TestSuite11ClearResultEv
FN:3099,_ZN7testing9TestSuite12ShuffleTestsEPNS_8internal6RandomE
FNDA:0,_ZN7testing9TestSuite12ShuffleTestsEPNS_8internal6RandomE
FN:3104,_ZN7testing9TestSuite14UnshuffleTestsEv
FNDA:2,_ZN7testing9TestSuite14UnshuffleTestsEv
FN:3115,_ZN7testingL19FormatCountableNounEiPKcS1_
FNDA:9,_ZN7testingL19FormatCountableNounEiPKcS1_
FN:3122,_ZN7testingL15FormatTestCountEi
FNDA:3,_ZN7testingL15FormatTestCountEi
FN:3127,_ZN7testingL20FormatTestSuiteCountEi
FNDA:2,_ZN7testingL20FormatTestSuiteCountEi
FN:3135,_ZN7testingL26TestPartResultTypeToStringENS_14TestPartResult4TypeE
FNDA:0,_ZN7testingL26TestPartResultTypeToStringENS_14TestPartResult4TypeE
FN:3160,_ZN7testing8internalL27PrintTestPartResultToStringERKNS_14TestPartResultE
FNDA:0,_ZN7testing8internalL27PrintTestPartResultToStringERKNS_14TestPartResultE
FN:3172,_ZN7testing8internalL19PrintTestPartResultERKNS_14TestPartResultE
FNDA:0,_ZN7testing8internalL19PrintTestPartResultERKNS_14TestPartResultE
FN:3243,_ZN7testing8internalL16GetAnsiColorCodeENS0_12_GLOBAL__N_110GTestColorE
FNDA:0,_ZN7testing8internalL16GetAnsiColorCodeENS0_12_GLOBAL__N_110GTestColorE
FN:3260,_ZN7testing8internal14ShouldUseColorEb
FNDA:1,_ZN7testing8internal14ShouldUseColorEb
FN:3302,_ZN7testing8internalL13ColoredPrintfENS0_12_GLOBAL__N_110GTestColorEPKcz
FNDA:49,_ZN7testing8internalL13ColoredPrintfENS0_12_GLOBAL__N_110GTestColorEPKcz
FN:3354,_ZN7testing8internalL29PrintFullTestCommentIfPresentERKNS_8TestInfoE
FNDA:0,_ZN7testing8internalL29PrintFullTestCommentIfPresentERKNS_8TestInfoE
FN:3375,_ZN7testing8internal27PrettyUnitTestResultPrinterC2Ev
FNDA:1,_ZN7testing8internal27PrettyUnitTestResultPrinterC2Ev
FN:3376,_ZN7testing8internal27PrettyUnitTestResultPrinter13PrintTestNameEPKcS3_
FNDA:40,_ZN7testing8internal27PrettyUnitTestResultPrinter13PrintTestNameEPKcS3_
FN:3381,_ZN7testing8internal27PrettyUnitTestResultPrinter18OnTestProgramStartERKNS_8UnitTestE
FNDA:1,_ZN7testing8internal27PrettyUnitTestResultPrinter18OnTestProgramStartERKNS_8UnitTestE
FN:3384,_ZN7testing8internal27PrettyUnitTestResultPrinter22OnEnvironmentsSetUpEndERKNS_8UnitTestE
FNDA:1,_ZN7testing8internal27PrettyUnitTestResultPrinter22OnEnvironmentsSetUpEndERKNS_8UnitTestE
FN:3403,_ZN7testing8internal27PrettyUnitTestResultPrinter25OnEnvironmentsTearDownEndERKNS_8UnitTestE
FNDA:1,_ZN7testing8internal27PrettyUnitTestResultPrinter25OnEnvironmentsTearDownEndERKNS_8UnitTestE
FN:3405,_ZN7testing8internal27PrettyUnitTestResultPrinter16OnTestProgramEndERKNS_8UnitTestE
FNDA:1,_ZN7testing8internal27PrettyUnitTestResultPrinter16OnTestProgramEndERKNS_8UnitTestE
FN:3414,_ZN7testing8internal27PrettyUnitTestResultPrinter20OnTestIterationStartERKNS_8UnitTestEi
FNDA:1,_ZN7testing8internal27PrettyUnitTestResultPrinter20OnTestIterationStartERKNS_8UnitTestEi
FN:3449,_ZN7testing8internal27PrettyUnitTestResultPrinter24OnEnvironmentsSetUpStartERKNS_8UnitTestE
FNDA:1,_ZN7testing8internal27PrettyUnitTestResultPrinter24OnEnvironmentsSetUpStartERKNS_8UnitTestE
FN:3457,_ZN7testing8internal27PrettyUnitTestResultPrinter15OnTestCaseStartERKNS_9TestSuiteE
FNDA:2,_ZN7testing8internal27PrettyUnitTestResultPrinter15OnTestCaseStartERKNS_9TestSuiteE
FN:3485,_ZN7testing8internal27PrettyUnitTestResultPrinter11OnTestStartERKNS_8TestInfoE
FNDA:20,_ZN7testing8internal27PrettyUnitTestResultPrinter11OnTestStartERKNS_8TestInfoE
FN:3492,_ZN7testing8internal27PrettyUnitTestResultPrinter14OnTestDisabledERKNS_8TestInfoE
FNDA:0,_ZN7testing8internal27PrettyUnitTestResultPrinter14OnTestDisabledERKNS_8TestInfoE
FN:3500,_ZN7testing8internal27PrettyUnitTestResultPrinter16OnTestPartResultERKNS_14TestPartResultE
FNDA:0,_ZN7testing8internal27PrettyUnitTestResultPrinter16OnTestPartResultERKNS_14TestPartResultE
FN:3514,_ZN7testing8internal27PrettyUnitTestResultPrinter9OnTestEndERKNS_8TestInfoE
FNDA:20,_ZN7testing8internal27PrettyUnitTestResultPrinter9OnTestEndERKNS_8TestInfoE
FN:3536,_ZN7testing8internal27PrettyUnitTestResultPrinter13OnTestCaseEndERKNS_9TestSuiteE
FNDA:2,_ZN7testing8internal27PrettyUnitTestResultPrinter13OnTestCaseEndERKNS_9TestSuiteE
FN:3559,_ZN7testing8internal27PrettyUnitTestResultPrinter27OnEnvironmentsTearDownStartERKNS_8UnitTestE
FNDA:1,_ZN7testing8internal27PrettyUnitTestResultPrinter27OnEnvironmentsTearDownStartERKNS_8UnitTestE
FN:3567,_ZN7testing8internal27PrettyUnitTestResultPrinter16PrintFailedTestsERKNS_8UnitTestE
FNDA:0,_ZN7testing8internal27PrettyUnitTestResultPrinter16PrintFailedTestsERKNS_8UnitTestE
FN:3594,_ZN7testing8internal27PrettyUnitTestResultPrinter21PrintFailedTestSuitesERKNS_8UnitTestE
FNDA:0,_ZN7testing8internal27PrettyUnitTestResultPrinter21PrintFailedTestSuitesERKNS_8UnitTestE
FN:3615,_ZN7testing8internal27PrettyUnitTestResultPrinter17PrintSkippedTestsERKNS_8UnitTestE
FNDA:0,_ZN7testing8internal27PrettyUnitTestResultPrinter17PrintSkippedTestsERKNS_8UnitTestE
FN:3638,_ZN7testing8internal27PrettyUnitTestResultPrinter18OnTestIterationEndERKNS_8UnitTestEi
FNDA:1,_ZN7testing8internal27PrettyUnitTestResultPrinter18OnTestIterationEndERKNS_8UnitTestEi
FN:3683,_ZN7testing8internal26BriefUnitTestResultPrinterC2Ev
FNDA:0,_ZN7testing8internal26BriefUnitTestResultPrinterC2Ev
FN:3684,_ZN7testing8internal26BriefUnitTestResultPrinter13PrintTestNameEPKcS3_
FNDA:0,_ZN7testing8internal26BriefUnitTestResultPrinter13PrintTestNameEPKcS3_
FN:3689,_ZN7testing8internal26BriefUnitTestResultPrinter18OnTestProgramStartERKNS_8UnitTestE
FNDA:0,_ZN7testing8internal26BriefUnitTestResultPrinter18OnTestProgramStartERKNS_8UnitTestE
FN:3690,_ZN7testing8internal26BriefUnitTestResultPrinter20OnTestIterationStartERKNS_8UnitTestEi
FNDA:0,_ZN7testing8internal26BriefUnitTestResultPrinter20OnTestIterationStartERKNS_8UnitTestEi
FN:3692,_ZN7testing8internal26BriefUnitTestResultPrinter24OnEnvironmentsSetUpStartERKNS_8UnitTestE
FNDA:0,_ZN7testing8internal26BriefUnitTestResultPrinter24OnEnvironmentsSetUpStartERKNS_8UnitTestE
FN:3693,_ZN7testing8internal26BriefUnitTestResultPrinter22OnEnvironmentsSetUpEndERKNS_8UnitTestE
FNDA:0,_ZN7testing8internal26BriefUnitTestResultPrinter22OnEnvironmentsSetUpEndERKNS_8UnitTestE
FN:3695,_ZN7testing8internal26BriefUnitTestResultPrinter15OnTestCaseStartERKNS_9TestSuiteE
FNDA:0,_ZN7testing8internal26BriefUnitTestResultPrinter15OnTestCaseStartERKNS_9TestSuiteE
FN:3700,_ZN7testing8internal26BriefUnitTestResultPrinter11OnTestStartERKNS_8TestInfoE
FNDA:0,_ZN7testing8internal26BriefUnitTestResultPrinter11OnTestStartERKNS_8TestInfoE
FN:3701,_ZN7testing8internal26BriefUnitTestResultPrinter14OnTestDisabledERKNS_8TestInfoE
FNDA:0,_ZN7testing8internal26BriefUnitTestResultPrinter14OnTestDisabledERKNS_8TestInfoE
FN:3706,_ZN7testing8internal26BriefUnitTestResultPrinter13OnTestCaseEndERKNS_9TestSuiteE
FNDA:0,_ZN7testing8internal26BriefUnitTestResultPrinter13OnTestCaseEndERKNS_9TestSuiteE
FN:3711,_ZN7testing8internal26BriefUnitTestResultPrinter27OnEnvironmentsTearDownStartERKNS_8UnitTestE
FNDA:0,_ZN7testing8internal26BriefUnitTestResultPrinter27OnEnvironmentsTearDownStartERKNS_8UnitTestE
FN:3712,_ZN7testing8internal26BriefUnitTestResultPrinter25OnEnvironmentsTearDownEndERKNS_8UnitTestE
FNDA:0,_ZN7testing8internal26BriefUnitTestResultPrinter25OnEnvironmentsTearDownEndERKNS_8UnitTestE
FN:3714,_ZN7testing8internal26BriefUnitTestResultPrinter16OnTestProgramEndERKNS_8UnitTestE
FNDA:0,_ZN7testing8internal26BriefUnitTestResultPrinter16OnTestProgramEndERKNS_8UnitTestE
FN:3718,_ZN7testing8internal26BriefUnitTestResultPrinter16OnTestPartResultERKNS_14TestPartResultE
FNDA:0,_ZN7testing8internal26BriefUnitTestResultPrinter16OnTestPartResultERKNS_14TestPartResultE
FN:3732,_ZN7testing8internal26BriefUnitTestResultPrinter9OnTestEndERKNS_8TestInfoE
FNDA:0,_ZN7testing8internal26BriefUnitTestResultPrinter9OnTestEndERKNS_8TestInfoE
FN:3749,_ZN7testing8internal26BriefUnitTestResultPrinter18OnTestIterationEndERKNS_8UnitTestEi
FNDA:0,_ZN7testing8internal26BriefUnitTestResultPrinter18OnTestIterationEndERKNS_8UnitTestEi
FN:3788,_ZN7testing8internal17TestEventRepeaterC2Ev
FNDA:1,_ZN7testing8internal17TestEventRepeaterC2Ev
FN:3795,_ZNK7testing8internal17TestEventRepeater18forwarding_enabledEv
FNDA:0,_ZNK7testing8internal17TestEventRepeater18forwarding_enabledEv
FN:3796,_ZN7testing8internal17TestEventRepeater22set_forwarding_enabledEb
FNDA:0,_ZN7testing8internal17TestEventRepeater22set_forwarding_enabledEb
FN:3832,_ZN7testing8internal17TestEventRepeaterD0Ev
FNDA:1,_ZN7testing8internal17TestEventRepeaterD0Ev
FN:3832,_ZN7testing8internal17TestEventRepeaterD2Ev
FNDA:1,_ZN7testing8internal17TestEventRepeaterD2Ev
FN:3836,_ZN7testing8internal17TestEventRepeater6AppendEPNS_17TestEventListenerE
FNDA:1,_ZN7testing8internal17TestEventRepeater6AppendEPNS_17TestEventListenerE
FN:3840,_ZN7testing8internal17TestEventRepeater7ReleaseEPNS_17TestEventListenerE
FNDA:1,_ZN7testing8internal17TestEventRepeater7ReleaseEPNS_17TestEventListenerE
FN:3872,_ZN7testing8internal17TestEventRepeater18OnTestProgramStartERKNS_8UnitTestE
FNDA:1,_ZN7testing8internal17TestEventRepeater18OnTestProgramStartERKNS_8UnitTestE
FN:3873,_ZN7testing8internal17TestEventRepeater24OnEnvironmentsSetUpStartERKNS_8UnitTestE
FNDA:1,_ZN7testing8internal17TestEventRepeater24OnEnvironmentsSetUpStartERKNS_8UnitTestE
FN:3876,_ZN7testing8internal17TestEventRepeater15OnTestCaseStartERKNS_9TestSuiteE
FNDA:2,_ZN7testing8internal17TestEventRepeater15OnTestCaseStartERKNS_9TestSuiteE
FN:3878,_ZN7testing8internal17TestEventRepeater16OnTestSuiteStartERKNS_9TestSuiteE
FNDA:2,_ZN7testing8internal17TestEventRepeater16OnTestSuiteStartERKNS_9TestSuiteE
FN:3879,_ZN7testing8internal17TestEventRepeater11OnTestStartERKNS_8TestInfoE
FNDA:20,_ZN7testing8internal17TestEventRepeater11OnTestStartERKNS_8TestInfoE
FN:3880,_ZN7testing8internal17TestEventRepeater14OnTestDisabledERKNS_8TestInfoE
FNDA:0,_ZN7testing8internal17TestEventRepeater14OnTestDisabledERKNS_8TestInfoE
FN:3881,_ZN7testing8internal17TestEventRepeater16OnTestPartResultERKNS_14TestPartResultE
FNDA:0,_ZN7testing8internal17TestEventRepeater16OnTestPartResultERKNS_14TestPartResultE
FN:3882,_ZN7testing8internal17TestEventRepeater27OnEnvironmentsTearDownStartERKNS_8UnitTestE
FNDA:1,_ZN7testing8internal17TestEventRepeater27OnEnvironmentsTearDownStartERKNS_8UnitTestE
FN:3883,_ZN7testing8internal17TestEventRepeater22OnEnvironmentsSetUpEndERKNS_8UnitTestE
FNDA:1,_ZN7testing8internal17TestEventRepeater22OnEnvironmentsSetUpEndERKNS_8UnitTestE
FN:3884,_ZN7testing8internal17TestEventRepeater25OnEnvironmentsTearDownEndERKNS_8UnitTestE
FNDA:1,_ZN7testing8internal17TestEventRepeater25OnEnvironmentsTearDownEndERKNS_8UnitTestE
FN:3885,_ZN7testing8internal17TestEventRepeater9OnTestEndERKNS_8TestInfoE
FNDA:20,_ZN7testing8internal17TestEventRepeater9OnTestEndERKNS_8TestInfoE
FN:3888,_ZN7testing8internal17TestEventRepeater13OnTestCaseEndERKNS_9TestSuiteE
FNDA:2,_ZN7testing8internal17TestEventRepeater13OnTestCaseEndERKNS_9TestSuiteE
FN:3890,_ZN7testing8internal17TestEventRepeater14OnTestSuiteEndERKNS_9TestSuiteE
FNDA:2,_ZN7testing8internal17TestEventRepeater14OnTestSuiteEndERKNS_9TestSuiteE
FN:3891,_ZN7testing8internal17TestEventRepeater16OnTestProgramEndERKNS_8UnitTestE
FNDA:1,_ZN7testing8internal17TestEventRepeater16OnTestProgramEndERKNS_8UnitTestE
FN:3896,_ZN7testing8internal17TestEventRepeater20OnTestIterationStartERKNS_8UnitTestEi
FNDA:1,_ZN7testing8internal17TestEventRepeater20OnTestIterationStartERKNS_8UnitTestEi
FN:3905,_ZN7testing8internal17TestEventRepeater18OnTestIterationEndERKNS_8UnitTestEi
FNDA:1,_ZN7testing8internal17TestEventRepeater18OnTestIterationEndERKNS_8UnitTestEi
FN:3932,_ZN7testing8internal24XmlUnitTestResultPrinter24IsNormalizableWhitespaceEh
FNDA:0,_ZN7testing8internal24XmlUnitTestResultPrinter24IsNormalizableWhitespaceEh
FN:3938,_ZN7testing8internal24XmlUnitTestResultPrinter19IsValidXmlCharacterEh
FNDA:0,_ZN7testing8internal24XmlUnitTestResultPrinter19IsValidXmlCharacterEh
FN:3952,_ZN7testing8internal24XmlUnitTestResultPrinter18EscapeXmlAttributeERKNSt7__cxx1112basic_stringIcSt11char_traitsIcESaIcEEE
FNDA:0,_ZN7testing8internal24XmlUnitTestResultPrinter18EscapeXmlAttributeERKNSt7__cxx1112basic_stringIcSt11char_traitsIcESaIcEEE
FN:4013,_ZN7testing8internal24XmlUnitTestResultPrinterC2EPKc
FNDA:0,_ZN7testing8internal24XmlUnitTestResultPrinterC2EPKc
FN:4021,_ZN7testing8internal24XmlUnitTestResultPrinter18OnTestIterationEndERKNS_8UnitTestEi
FNDA:0,_ZN7testing8internal24XmlUnitTestResultPrinter18OnTestIterationEndERKNS_8UnitTestEi
FN:4030,_ZN7testing8internal24XmlUnitTestResultPrinter23ListTestsMatchingFilterERKSt6vectorIPNS_9TestSuiteESaIS4_EE
FNDA:0,_ZN7testing8internal24XmlUnitTestResultPrinter23ListTestsMatchingFilterERKSt6vectorIPNS_9TestSuiteESaIS4_EE
FN:4049,_ZN7testing8internal24XmlUnitTestResultPrinter9EscapeXmlERKNSt7__cxx1112basic_stringIcSt11char_traitsIcESaIcEEEb
FNDA:0,_ZN7testing8internal24XmlUnitTestResultPrinter9EscapeXmlERKNSt7__cxx1112basic_stringIcSt11char_traitsIcESaIcEEEb
FN:4096,_ZN7testing8internal24XmlUnitTestResultPrinter26RemoveInvalidXmlCharactersERKNSt7__cxx1112basic_stringIcSt11char_traitsIcESaIcEEE
FNDA:0,_ZN7testing8internal24XmlUnitTestResultPrinter26RemoveInvalidXmlCharactersERKNSt7__cxx1112basic_stringIcSt11char_traitsIcESaIcEEE
FN:4124,_ZN7testing8internal27FormatTimeInMillisAsSecondsB5cxx11El
FNDA:0,_ZN7testing8internal27FormatTimeInMillisAsSecondsB5cxx11El
FN:4137,_ZN7testing8internalL17PortableLocaltimeElP2tm
FNDA:0,_ZN7testing8internalL17PortableLocaltimeElP2tm
FN:4158,_ZN7testing8internal32FormatEpochTimeInMillisAsIso8601B5cxx11El
FNDA:0,_ZN7testing8internal32FormatEpochTimeInMillisAsIso8601B5cxx11El
FN:4173,_ZN7testing8internal24XmlUnitTestResultPrinter21OutputXmlCDataSectionEPSoPKc
FNDA:0,_ZN7testing8internal24XmlUnitTestResultPrinter21OutputXmlCDataSectionEPSoPKc
FN:4192,_ZN7testing8internal24XmlUnitTestResultPrinter18OutputXmlAttributeEPSoRKNSt7__cxx1112basic_stringIcSt11char_traitsIcESaIcEEESA_SA_
FNDA:0,_ZN7testing8internal24XmlUnitTestResultPrinter18OutputXmlAttributeEPSoRKNSt7__cxx1112basic_stringIcSt11char_traitsIcESaIcEEESA_SA_
FN:4207,_ZN7testing8internal24XmlUnitTestResultPrinter31OutputXmlTestSuiteForTestResultEPSoRKNS_10TestResultE
FNDA:0,_ZN7testing8internal24XmlUnitTestResultPrinter31OutputXmlTestSuiteForTestResultEPSoRKNS_10TestResultE
FN:4244,_ZN7testing8internal24XmlUnitTestResultPrinter17OutputXmlTestInfoEPSoPKcRKNS_8TestInfoE
FNDA:0,_ZN7testing8internal24XmlUnitTestResultPrinter17OutputXmlTestInfoEPSoPKcRKNS_8TestInfoE
FN:4290,_ZN7testing8internal24XmlUnitTestResultPrinter19OutputXmlTestResultEPSoRKNS_10TestResultE
FNDA:0,_ZN7testing8internal24XmlUnitTestResultPrinter19OutputXmlTestResultEPSoRKNS_10TestResultE
FN:4337,_ZN7testing8internal24XmlUnitTestResultPrinter17PrintXmlTestSuiteEPSoRKNS_9TestSuiteE
FNDA:0,_ZN7testing8internal24XmlUnitTestResultPrinter17PrintXmlTestSuiteEPSoRKNS_9TestSuiteE
FN:4371,_ZN7testing8internal24XmlUnitTestResultPrinter16PrintXmlUnitTestEPSoRKNS_8UnitTestE
FNDA:0,_ZN7testing8internal24XmlUnitTestResultPrinter16PrintXmlUnitTestEPSoRKNS_8UnitTestE
FN:4415,_ZN7testing8internal24XmlUnitTestResultPrinter17PrintXmlTestsListEPSoRKSt6vectorIPNS_9TestSuiteESaIS5_EE
FNDA:0,_ZN7testing8internal24XmlUnitTestResultPrinter17PrintXmlTestsListEPSoRKSt6vectorIPNS_9TestSuiteESaIS5_EE
FN:4439,_ZN7testing8internal24XmlUnitTestResultPrinter29TestPropertiesAsXmlAttributesB5cxx11ERKNS_10TestResultE
FNDA:0,_ZN7testing8internal24XmlUnitTestResultPrinter29TestPropertiesAsXmlAttributesB5cxx11ERKNS_10TestResultE
FN:4450,_ZN7testing8internal24XmlUnitTestResultPrinter23OutputXmlTestPropertiesEPSoRKNS_10TestResultE
FNDA:0,_ZN7testing8internal24XmlUnitTestResultPrinter23OutputXmlTestPropertiesEPSoRKNS_10TestResultE
FN:4537,_ZN7testing8internal25JsonUnitTestResultPrinterC2EPKc
FNDA:0,_ZN7testing8internal25JsonUnitTestResultPrinterC2EPKc
FN:4544,_ZN7testing8internal25JsonUnitTestResultPrinter18OnTestIterationEndERKNS_8UnitTestEi
FNDA:0,_ZN7testing8internal25JsonUnitTestResultPrinter18OnTestIterationEndERKNS_8UnitTestEi
FN:4554,_ZN7testing8internal25JsonUnitTestResultPrinter10EscapeJsonERKNSt7__cxx1112basic_stringIcSt11char_traitsIcESaIcEEE
FNDA:0,_ZN7testing8internal25JsonUnitTestResultPrinter10EscapeJsonERKNSt7__cxx1112basic_stringIcSt11char_traitsIcESaIcEEE
FN:4597,_ZN7testing8internalL28FormatTimeInMillisAsDurationEl
FNDA:0,_ZN7testing8internalL28FormatTimeInMillisAsDurationEl
FN:4605,_ZN7testing8internalL32FormatEpochTimeInMillisAsRFC3339El
FNDA:0,_ZN7testing8internalL32FormatEpochTimeInMillisAsRFC3339El
FN:4618,_ZN7testing8internalL6IndentEm
FNDA:0,_ZN7testing8internalL6IndentEm
FN:4622,_ZN7testing8internal25JsonUnitTestResultPrinter13OutputJsonKeyEPSoRKNSt7__cxx1112basic_stringIcSt11char_traitsIcESaIcEEESA_SA_SA_b
FNDA:0,_ZN7testing8internal25JsonUnitTestResultPrinter13OutputJsonKeyEPSoRKNSt7__cxx1112basic_stringIcSt11char_traitsIcESaIcEEESA_SA_SA_b
FN:4640,_ZN7testing8internal25JsonUnitTestResultPrinter13OutputJsonKeyEPSoRKNSt7__cxx1112basic_stringIcSt11char_traitsIcESaIcEEESA_iSA_b
FNDA:0,_ZN7testing8internal25JsonUnitTestResultPrinter13OutputJsonKeyEPSoRKNSt7__cxx1112basic_stringIcSt11char_traitsIcESaIcEEESA_iSA_b
FN:4656,_ZN7testing8internal25JsonUnitTestResultPrinter32OutputJsonTestSuiteForTestResultEPSoRKNS_10TestResultE
FNDA:0,_ZN7testing8internal25JsonUnitTestResultPrinter32OutputJsonTestSuiteForTestResultEPSoRKNS_10TestResultE
FN:4698,_ZN7testing8internal25JsonUnitTestResultPrinter18OutputJsonTestInfoEPSoPKcRKNS_8TestInfoE
FNDA:0,_ZN7testing8internal25JsonUnitTestResultPrinter18OutputJsonTestInfoEPSoPKcRKNS_8TestInfoE
FN:4745,_ZN7testing8internal25JsonUnitTestResultPrinter20OutputJsonTestResultEPSoRKNS_10TestResultE
FNDA:0,_ZN7testing8internal25JsonUnitTestResultPrinter20OutputJsonTestResultEPSoRKNS_10TestResultE
FN:4800,_ZN7testing8internal25JsonUnitTestResultPrinter18PrintJsonTestSuiteEPSoRKNS_9TestSuiteE
FNDA:0,_ZN7testing8internal25JsonUnitTestResultPrinter18PrintJsonTestSuiteEPSoRKNS_9TestSuiteE
FN:4843,_ZN7testing8internal25JsonUnitTestResultPrinter17PrintJsonUnitTestEPSoRKNS_8UnitTestE
FNDA:0,_ZN7testing8internal25JsonUnitTestResultPrinter17PrintJsonUnitTestEPSoRKNS_8UnitTestE
FN:4899,_ZN7testing8internal25JsonUnitTestResultPrinter17PrintJsonTestListEPSoRKSt6vectorIPNS_9TestSuiteESaIS5_EE
FNDA:0,_ZN7testing8internal25JsonUnitTestResultPrinter17PrintJsonTestListEPSoRKSt6vectorIPNS_9TestSuiteESaIS5_EE
FN:4926,_ZN7testing8internal25JsonUnitTestResultPrinter20TestPropertiesAsJsonERKNS_10TestResultERKNSt7__cxx1112basic_stringIcSt11char_traitsIcESaIcEEE
FNDA:0,_ZN7testing8internal25JsonUnitTestResultPrinter20TestPropertiesAsJsonERKNS_10TestResultERKNSt7__cxx1112basic_stringIcSt11char_traitsIcESaIcEEE
FN:4948,_ZN7testing8internal17StreamingListener9UrlEncodeB5cxx11EPKc
FNDA:0,_ZN7testing8internal17StreamingListener9UrlEncodeB5cxx11EPKc
FN:4968,_ZN7testing8internal17StreamingListener12SocketWriter14MakeConnectionEv
FNDA:0,_ZN7testing8internal17StreamingListener12SocketWriter14MakeConnectionEv
FN:5017,_ZN7testing8internal18OsStackTraceGetter17CurrentStackTraceB5cxx11Eii
FNDA:0,_ZN7testing8internal18OsStackTraceGetter17CurrentStackTraceB5cxx11Eii
FN:5067,_ZN7testing8internal18OsStackTraceGetter16UponLeavingGTestEv
FNDA:104,_ZN7testing8internal18OsStackTraceGetter16UponLeavingGTestEv
FN:5084,_ZN7testing8internal23ScopedPrematureExitFileC2EPKc
FNDA:1,_ZN7testing8internal23ScopedPrematureExitFileC2EPKc
FN:5098,_ZN7testing8internal23ScopedPrematureExitFileD2Ev
FNDA:1,_ZN7testing8internal23ScopedPrematureExitFileD2Ev
FN:5123,_ZN7testing18TestEventListenersC2Ev
FNDA:1,_ZN7testing18TestEventListenersC2Ev
FN:5128,_ZN7testing18TestEventListenersD2Ev
FNDA:1,_ZN7testing18TestEventListenersD2Ev
FN:5134,_ZN7testing18TestEventListeners6AppendEPNS_17TestEventListenerE
FNDA:1,_ZN7testing18TestEventListeners6AppendEPNS_17TestEventListenerE
FN:5141,_ZN7testing18TestEventListeners7ReleaseEPNS_17TestEventListenerE
FNDA:1,_ZN7testing18TestEventListeners7ReleaseEPNS_17TestEventListenerE
FN:5151,_ZN7testing18TestEventListeners8repeaterEv
FNDA:23,_ZN7testing18TestEventListeners8repeaterEv
FN:5158,_ZN7testing18TestEventListeners23SetDefaultResultPrinterEPNS_17TestEventListenerE
FNDA:1,_ZN7testing18TestEventListeners23SetDefaultResultPrinterEPNS_17TestEventListenerE
FN:5173,_ZN7testing18TestEventListeners22SetDefaultXmlGeneratorEPNS_17TestEventListenerE
FNDA:0,_ZN7testing18TestEventListeners22SetDefaultXmlGeneratorEPNS_17TestEventListenerE
FN:5185,_ZNK7testing18TestEventListeners22EventForwardingEnabledEv
FNDA:0,_ZNK7testing18TestEventListeners22EventForwardingEnabledEv
FN:5189,_ZN7testing18TestEventListeners23SuppressEventForwardingEb
FNDA:0,_ZN7testing18TestEventListeners23SuppressEventForwardingEb
FN:5202,_ZN7testing8UnitTest11GetInstanceEv
FNDA:360,_ZN7testing8UnitTest11GetInstanceEv
FN:5217,_ZNK7testing8UnitTest27successful_test_suite_countEv
FNDA:0,_ZNK7testing8UnitTest27successful_test_suite_countEv
FN:5222,_ZNK7testing8UnitTest23failed_test_suite_countEv
FNDA:0,_ZNK7testing8UnitTest23failed_test_suite_countEv
FN:5227,_ZNK7testing8UnitTest22total_test_suite_countEv
FNDA:0,_ZNK7testing8UnitTest22total_test_suite_countEv
FN:5233,_ZNK7testing8UnitTest23test_suite_to_run_countEv
FNDA:2,_ZNK7testing8UnitTest23test_suite_to_run_countEv
FN:5239,_ZNK7testing8UnitTest26successful_test_case_countEv
FNDA:0,_ZNK7testing8UnitTest26successful_test_case_countEv
FN:5242,_ZNK7testing8UnitTest22failed_test_case_countEv
FNDA:0,_ZNK7testing8UnitTest22failed_test_case_countEv
FN:5245,_ZNK7testing8UnitTest21total_test_case_countEv
FNDA:0,_ZNK7testing8UnitTest21total_test_case_countEv
FN:5248,_ZNK7testing8UnitTest22test_case_to_run_countEv
FNDA:0,_ZNK7testing8UnitTest22test_case_to_run_countEv
FN:5254,_ZNK7testing8UnitTest21successful_test_countEv
FNDA:1,_ZNK7testing8UnitTest21successful_test_countEv
FN:5259,_ZNK7testing8UnitTest18skipped_test_countEv
FNDA:1,_ZNK7testing8UnitTest18skipped_test_countEv
FN:5264,_ZNK7testing8UnitTest17failed_test_countEv
FNDA:0,_ZNK7testing8UnitTest17failed_test_countEv
FN:5267,_ZNK7testing8UnitTest30reportable_disabled_test_countEv
FNDA:1,_ZNK7testing8UnitTest30reportable_disabled_test_countEv
FN:5272,_ZNK7testing8UnitTest19disabled_test_countEv
FNDA:0,_ZNK7testing8UnitTest19disabled_test_countEv
FN:5277,_ZNK7testing8UnitTest21reportable_test_countEv
FNDA:0,_ZNK7testing8UnitTest21reportable_test_countEv
FN:5282,_ZNK7testing8UnitTest16total_test_countEv
FNDA:0,_ZNK7testing8UnitTest16total_test_countEv
FN:5285,_ZNK7testing8UnitTest17test_to_run_countEv
FNDA:2,_ZNK7testing8UnitTest17test_to_run_countEv
FN:5289,_ZNK7testing8UnitTest15start_timestampEv
FNDA:0,_ZNK7testing8UnitTest15start_timestampEv
FN:5294,_ZNK7testing8UnitTest12elapsed_timeEv
FNDA:1,_ZNK7testing8UnitTest12elapsed_timeEv
FN:5300,_ZNK7testing8UnitTest6PassedEv
FNDA:1,_ZNK7testing8UnitTest6PassedEv
FN:5304,_ZNK7testing8UnitTest6FailedEv
FNDA:0,_ZNK7testing8UnitTest6FailedEv
FN:5308,_ZNK7testing8UnitTest12GetTestSuiteEi
FNDA:0,_ZNK7testing8UnitTest12GetTestSuiteEi
FN:5314,_ZNK7testing8UnitTest11GetTestCaseEi
FNDA:0,_ZNK7testing8UnitTest11GetTestCaseEi
FN:5321,_ZNK7testing8UnitTest18ad_hoc_test_resultEv
FNDA:0,_ZNK7testing8UnitTest18ad_hoc_test_resultEv
FN:5327,_ZN7testing8UnitTest19GetMutableTestSuiteEi
FNDA:0,_ZN7testing8UnitTest19GetMutableTestSuiteEi
FN:5331,_ZN7testing8UnitTest16UponLeavingGTestEv
FNDA:44,_ZN7testing8UnitTest16UponLeavingGTestEv
FN:5336,_ZN7testing8UnitTest22set_current_test_suiteEPNS_9TestSuiteE
FNDA:4,_ZN7testing8UnitTest22set_current_test_suiteEPNS_9TestSuiteE
FN:5342,_ZN7testing8UnitTest21set_current_test_infoEPNS_8TestInfoE
FNDA:40,_ZN7testing8UnitTest21set_current_test_infoEPNS_8TestInfoE
FN:5349,_ZN7testing8UnitTest9listenersEv
FNDA:22,_ZN7testing8UnitTest9listenersEv
FN:5361,_ZN7testing8UnitTest14AddEnvironmentEPNS_11EnvironmentE
FNDA:0,_ZN7testing8UnitTest14AddEnvironmentEPNS_11EnvironmentE
FN:5374,_ZN7testing8UnitTest17AddTestPartResultENS_14TestPartResult4TypeEPKciRKNSt7__cxx1112basic_stringIcSt11char_traitsIcESaIcEEESC_
FNDA:0,_ZN7testing8UnitTest17AddTestPartResultENS_14TestPartResult4TypeEPKciRKNSt7__cxx1112basic_stringIcSt11char_traitsIcESaIcEEESC_
FN:5451,_ZN7testing8UnitTest14RecordPropertyERKNSt7__cxx1112basic_stringIcSt11char_traitsIcESaIcEEES8_
FNDA:0,_ZN7testing8UnitTest14RecordPropertyERKNSt7__cxx1112basic_stringIcSt11char_traitsIcESaIcEEES8_
FN:5461,_ZN7testing8UnitTest3RunEv
FNDA:1,_ZN7testing8UnitTest3RunEv
FN:5556,_ZNK7testing8UnitTest20original_working_dirEv
FNDA:0,_ZNK7testing8UnitTest20original_working_dirEv
FN:5563,_ZNK7testing8UnitTest18current_test_suiteEv
FNDA:0,_ZNK7testing8UnitTest18current_test_suiteEv
FN:5571,_ZNK7testing8UnitTest17current_test_caseEv
FNDA:0,_ZNK7testing8UnitTest17current_test_caseEv
FN:5580,_ZNK7testing8UnitTest17current_test_infoEv
FNDA:0,_ZNK7testing8UnitTest17current_test_infoEv
FN:5587,_ZNK7testing8UnitTest11random_seedEv
FNDA:0,_ZNK7testing8UnitTest11random_seedEv
FN:5592,_ZN7testing8UnitTest27parameterized_test_registryEv
FNDA:0,_ZN7testing8UnitTest27parameterized_test_registryEv
FN:5597,_ZN7testing8UnitTestC2Ev
FNDA:1,_ZN7testing8UnitTestC2Ev
FN:5600,_ZN7testing8UnitTestD2Ev
FNDA:1,_ZN7testing8UnitTestD2Ev
FN:5600,_ZN7testing8UnitTestD0Ev
FNDA:0,_ZN7testing8UnitTestD0Ev
FN:5604,_ZN7testing8UnitTest14PushGTestTraceERKNS_8internal9TraceInfoE
FNDA:0,_ZN7testing8UnitTest14PushGTestTraceERKNS_8internal9TraceInfoE
FN:5611,_ZN7testing8UnitTest13PopGTestTraceEv
FNDA:0,_ZN7testing8UnitTest13PopGTestTraceEv
FN:5618,_ZN7testing8internal12UnitTestImplC2EPNS_8UnitTestE
FNDA:1,_ZN7testing8internal12UnitTestImplC2EPNS_8UnitTestE
FN:5647,_ZN7testing8internal12UnitTestImplD0Ev
FNDA:1,_ZN7testing8internal12UnitTestImplD0Ev
FN:5647,_ZN7testing8internal12UnitTestImplD2Ev
FNDA:1,_ZN7testing8internal12UnitTestImplD2Ev
FN:5662,_ZN7testing8internal12UnitTestImpl14RecordPropertyERKNS_12TestPropertyE
FNDA:0,_ZN7testing8internal12UnitTestImpl14RecordPropertyERKNS_12TestPropertyE
FN:5682,_ZN7testing8internal12UnitTestImpl32SuppressTestEventsIfInSubprocessEv
FNDA:1,_ZN7testing8internal12UnitTestImpl32SuppressTestEventsIfInSubprocessEv
FN:5690,_ZN7testing8internal12UnitTestImpl18ConfigureXmlOutputEv
FNDA:1,_ZN7testing8internal12UnitTestImpl18ConfigureXmlOutputEv
FN:5714,_ZN7testing8internal12UnitTestImpl24ConfigureStreamingOutputEv
FNDA:1,_ZN7testing8internal12UnitTestImpl24ConfigureStreamingOutputEv
FN:5734,_ZN7testing8internal12UnitTestImpl19PostFlagParsingInitEv
FNDA:2,_ZN7testing8internal12UnitTestImpl19PostFlagParsingInitEv
FN:5788,_ZN7testing8internal12UnitTestImpl12GetTestSuiteERKNSt7__cxx1112basic_stringIcSt11char_traitsIcESaIcEEEPKcPFvvESD_
FNDA:20,_ZN7testing8internal12UnitTestImpl12GetTestSuiteERKNSt7__cxx1112basic_stringIcSt11char_traitsIcESaIcEEEPKcPFvvESD_
FN:5832,_ZN7testing8internalL16SetUpEnvironmentEPNS_11EnvironmentE
FNDA:0,_ZN7testing8internalL16SetUpEnvironmentEPNS_11EnvironmentE
FN:5833,_ZN7testing8internalL19TearDownEnvironmentEPNS_11EnvironmentE
FNDA:0,_ZN7testing8internalL19TearDownEnvironmentEPNS_11EnvironmentE
FN:5844,_ZN7testing8internal12UnitTestImpl11RunAllTestsEv
FNDA:1,_ZN7testing8internal12UnitTestImpl11RunAllTestsEv
FN:6047,_ZN7testing8internal30WriteToShardStatusFileIfNeededEv
FNDA:1,_ZN7testing8internal30WriteToShardStatusFileIfNeededEv
FN:6070,_ZN7testing8internal11ShouldShardEPKcS2_b
FNDA:2,_ZN7testing8internal11ShouldShardEPKcS2_b
FN:6114,_ZN7testing8internal17Int32FromEnvOrDieEPKci
FNDA:4,_ZN7testing8internal17Int32FromEnvOrDieEPKci
FN:6132,_ZN7testing8internal20ShouldRunTestOnShardEiii
FNDA:0,_ZN7testing8internal20ShouldRunTestOnShardEiii
FN:6143,_ZN7testing8internal12UnitTestImpl11FilterTestsENS1_18ReactionToShardingE
FNDA:1,_ZN7testing8internal12UnitTestImpl11FilterTestsENS1_18ReactionToShardingE
FN:6201,_ZN7testing8internalL14PrintOnOneLineEPKci
FNDA:0,_ZN7testing8internalL14PrintOnOneLineEPKci
FN:6220,_ZN7testing8internal12UnitTestImpl23ListTestsMatchingFilterEv
FNDA:0,_ZN7testing8internal12UnitTestImpl23ListTestsMatchingFilterEv
FN:6279,_ZN7testing8internal12UnitTestImpl25set_os_stack_trace_getterEPNS0_27OsStackTraceGetterInterfaceE
FNDA:0,_ZN7testing8internal12UnitTestImpl25set_os_stack_trace_getterEPNS0_27OsStackTraceGetterInterfaceE
FN:6290,_ZN7testing8internal12UnitTestImpl21os_stack_trace_getterEv
FNDA:104,_ZN7testing8internal12UnitTestImpl21os_stack_trace_getterEv
FN:6303,_ZN7testing8internal12UnitTestImpl19current_test_resultEv
FNDA:82,_ZN7testing8internal12UnitTestImpl19current_test_resultEv
FN:6315,_ZN7testing8internal12UnitTestImpl12ShuffleTestsEv
FNDA:0,_ZN7testing8internal12UnitTestImpl12ShuffleTestsEv
FN:6330,_ZN7testing8internal12UnitTestImpl14UnshuffleTestsEv
FNDA:1,_ZN7testing8internal12UnitTestImpl14UnshuffleTestsEv
FN:6350,_ZN7testing8internal31GetCurrentOsStackTraceExceptTopB5cxx11Ei
FNDA:0,_ZN7testing8internal31GetCurrentOsStackTraceExceptTopB5cxx11Ei
FN:6362,_ZN7testing8internal6IsTrueEb
FNDA:49,_ZN7testing8internal6IsTrueEb
FN:6364,_ZN7testing8internal10AlwaysTrueEv
FNDA:8,_ZN7testing8internal10AlwaysTrueEv
FN:6376,_ZN7testing8internal10SkipPrefixEPKcPS2_
FNDA:0,_ZN7testing8internal10SkipPrefixEPKcPS2_
FN:6390,_ZN7testing8internalL14ParseFlagValueEPKcS2_b
FNDA:0,_ZN7testing8internalL14ParseFlagValueEPKcS2_b
FN:6428,_ZN7testing8internalL9ParseFlagEPKcS2_Pb
FNDA:0,_ZN7testing8internalL9ParseFlagEPKcS2_Pb
FN:6444,_ZN7testing8internal9ParseFlagEPKcS2_Pi
FNDA:0,_ZN7testing8internal9ParseFlagEPKcS2_Pi
FN:6461,_ZN7testing8internalL9ParseFlagINSt7__cxx1112basic_stringIcSt11char_traitsIcESaIcEEEEEbPKcS9_PT_
FNDA:0,_ZN7testing8internalL9ParseFlagINSt7__cxx1112basic_stringIcSt11char_traitsIcESaIcEEEEEbPKcS9_PT_
FN:6479,_ZN7testing8internalL23HasGoogleTestFlagPrefixEPKc
FNDA:0,_ZN7testing8internalL23HasGoogleTestFlagPrefixEPKc
FN:6496,_ZN7testing8internalL17PrintColorEncodedEPKc
FNDA:0,_ZN7testing8internalL17PrintColorEncodedEPKc
FN:6626,_ZN7testing8internalL19ParseGoogleTestFlagEPKc
FNDA:0,_ZN7testing8internalL19ParseGoogleTestFlagEPKc
FN:6661,_ZN7testing8internalL17LoadFlagsFromFileERKNSt7__cxx1112basic_stringIcSt11char_traitsIcESaIcEEE
FNDA:0,_ZN7testing8internalL17LoadFlagsFromFileERKNSt7__cxx1112basic_stringIcSt11char_traitsIcESaIcEEE
FN:6682,_ZN7testing8internal28ParseGoogleTestFlagsOnlyImplIwEEvPiPPT_
FNDA:0,_ZN7testing8internal28ParseGoogleTestFlagsOnlyImplIwEEvPiPPT_
FN:6682,_ZN7testing8internal28ParseGoogleTestFlagsOnlyImplIcEEvPiPPT_
FNDA:1,_ZN7testing8internal28ParseGoogleTestFlagsOnlyImplIcEEvPiPPT_
FN:6737,_ZN7testing8internal24ParseGoogleTestFlagsOnlyEPiPPc
FNDA:1,_ZN7testing8internal24ParseGoogleTestFlagsOnlyEPiPPc
FN:6801,_ZN7testing8internal24ParseGoogleTestFlagsOnlyEPiPPw
FNDA:0,_ZN7testing8internal24ParseGoogleTestFlagsOnlyEPiPPw
FN:6810,_ZN7testing8internal18InitGoogleTestImplIcEEvPiPPT_
FNDA:1,_ZN7testing8internal18InitGoogleTestImplIcEEvPiPPT_
FN:6810,_ZN7testing8internal18InitGoogleTestImplIwEEvPiPPT_
FNDA:0,_ZN7testing8internal18InitGoogleTestImplIwEEvPiPPT_
FN:6848,_ZN7testing14InitGoogleTestEPiPPc
FNDA:1,_ZN7testing14InitGoogleTestEPiPPc
FN:6858,_ZN7testing14InitGoogleTestEPiPPw
FNDA:0,_ZN7testing14InitGoogleTestEPiPPw
FN:6868,_ZN7testing14InitGoogleTestEv
FNDA:0,_ZN7testing14InitGoogleTestEv
FN:6888,_ZN7testingL13GetDirFromEnvESt16initializer_listIPKcES2_c
FNDA:0,_ZN7testingL13GetDirFromEnvESt16initializer_listIPKcES2_c
FN:6904,_ZN7testing7TempDirB5cxx11Ev
FNDA:0,_ZN7testing7TempDirB5cxx11Ev
FN:6919,_ZN7testingL29GetCurrentExecutableDirectoryEv
FNDA:0,_ZN7testingL29GetCurrentExecutableDirectoryEv
FN:6926,_ZN7testing6SrcDirB5cxx11Ev
FNDA:0,_ZN7testing6SrcDirB5cxx11Ev
FN:6946,_ZN7testing11ScopedTrace9PushTraceEPKciNSt7__cxx1112basic_stringIcSt11char_traitsIcESaIcEEE
FNDA:0,_ZN7testing11ScopedTrace9PushTraceEPKciNSt7__cxx1112basic_stringIcSt11char_traitsIcESaIcEEE
FN:6956,_ZN7testing11ScopedTraceD2Ev
FNDA:0,_ZN7testing11ScopedTraceD2Ev
DA:214,0
DA:215,0
DA:216,0
DA:217,0
DA:219,0
DA:220,0
DA:222,0
DA:223,0
DA:225,0
DA:226,0
DA:233,1
DA:235,1
DA:236,1
DA:237,0
DA:239,1
DA:244,1
DA:246,1
DA:247,1
DA:248,0
DA:250,1
DA:405,0
DA:408,0
DA:410,0
DA:411,0
DA:412,0
DA:413,0
DA:418,0
DA:424,2
DA:429,5
DA:431,5
DA:432,15
DA:433,10
DA:435,5
DA:439,0
DA:440,0
DA:444,4
DA:445,4
DA:450,4
DA:451,4
DA:458,0
DA:462,0
DA:468,0
DA:469,0
DA:470,0
DA:472,0
DA:475,0
DA:476,0
DA:477,0
DA:478,0
DA:479,0
DA:480,0
DA:484,0
DA:499,0
DA:501,0
DA:502,0
DA:503,0
DA:505,0
DA:506,0
DA:507,0
DA:508,0
DA:510,0
DA:512,0
DA:522,1
DA:523,1
DA:527,0
DA:528,0
DA:529,0
DA:533,0
DA:535,0
DA:536,0
DA:538,0
DA:548,0
DA:558,0
DA:559,0
DA:564,0
DA:565,0
DA:567,0
DA:568,0
DA:572,0
DA:573,0
DA:574,0
DA:576,0
DA:578,0
DA:580,0
DA:581,0
DA:582,0
DA:584,0
DA:585,0
DA:587,0
DA:589,0
DA:591,0
DA:592,0
DA:593,0
DA:595,0
DA:597,0
DA:598,0
DA:599,0
DA:601,0
DA:602,0
DA:604,0
DA:606,1
DA:607,1
DA:608,1
DA:609,0
DA:610,0
DA:613,0
DA:627,0
DA:628,0
DA:631,0
DA:632,0
DA:637,0
DA:638,0
DA:639,0
DA:641,0
DA:642,1
DA:647,2
DA:654,2
DA:661,0
DA:662,0
DA:664,0
DA:665,0
DA:669,0
DA:673,0
DA:674,0
DA:680,1
DA:681,1
DA:682,1
DA:683,1
DA:687,2
DA:688,1
DA:693,0
DA:694,0
DA:695,0
DA:697,0
DA:698,0
DA:700,0
DA:701,0
DA:702,0
DA:703,0
DA:705,0
DA:706,0
DA:708,0
DA:709,0
DA:710,0
DA:711,0
DA:712,0
DA:714,0
DA:717,0
DA:718,0
DA:719,0
DA:720,0
DA:729,104
DA:731,104
DA:732,104
DA:733,104
DA:735,104
DA:736,104
DA:738,3589
DA:739,3569
DA:740,2746
DA:741,972
DA:742,972
DA:743,1
DA:744,1
DA:745,1
DA:747,971
DA:748,0
DA:749,0
DA:750,0
DA:751,0
DA:752,0
DA:754,0
DA:755,1774
DA:759,1774
DA:760,1774
DA:761,1774
DA:762,1774
DA:766,1794
DA:767,1710
DA:768,1710
DA:769,1710
DA:771,84
DA:773,20
DA:778,7
DA:779,7
DA:780,23
DA:785,2
DA:788,4
DA:790,4
DA:791,4
DA:792,4
DA:795,8
DA:796,4
DA:797,8
DA:798,4
DA:799,8
DA:801,4
DA:802,4
DA:806,82
DA:807,164
DA:808,82
DA:809,208
DA:810,104
DA:812,208
DA:813,82
DA:828,1
DA:829,1
DA:832,1
DA:833,1
DA:835,1
DA:836,0
DA:837,0
DA:842,0
DA:843,0
DA:845,0
DA:846,0
DA:847,0
DA:851,1
DA:853,1
DA:858,20
DA:860,20
DA:865,20
DA:866,40
DA:867,40
DA:876,0
DA:878,0
DA:883,0
DA:887,0
DA:888,0
DA:933,0
DA:934,0
DA:935,0
DA:936,0
DA:937,0
DA:942,0
DA:943,0
DA:944,0
DA:945,0
DA:946,0
DA:948,0
DA:949,0
DA:950,0
DA:951,0
DA:952,0
DA:954,0
DA:955,0
DA:957,0
DA:961,0
DA:968,0
DA:961,0
DA:962,0
DA:963,0
DA:964,0
DA:966,0
DA:968,0
DA:972,0
DA:974,0
DA:975,0
DA:988,21
DA:997,0
DA:1005,0
DA:1006,0
DA:1007,0
DA:1008,0
DA:1009,0
DA:1010,0
DA:1011,0
DA:1013,0
DA:1016,0
DA:1017,0
DA:1018,0
DA:1019,0
DA:1020,0
DA:1023,0
DA:1024,0
DA:1025,0
DA:1026,0
DA:1027,0
DA:1030,0
DA:1031,0
DA:1036,0
DA:1038,0
DA:1039,0
DA:1045,0
DA:1046,0
DA:1047,0
DA:1049,1
DA:1050,1
DA:1051,1
DA:1053,0
DA:1055,0
DA:1056,0
DA:1057,0
DA:1059,1
DA:1060,1
DA:1061,1
DA:1063,0
DA:1065,0
DA:1066,0
DA:1070,0
DA:1071,0
DA:1072,0
DA:1073,0
DA:1076,0
DA:1078,0
DA:1079,0
DA:1080,0
DA:1084,0
DA:1085,0
DA:1089,0
DA:1091,0
DA:1092,0
DA:1095,0
DA:1096,0
DA:1100,2
DA:1101,2
DA:1105,3
DA:1106,3
DA:1111,2
DA:1112,2
DA:1116,1
DA:1117,1
DA:1121,1
DA:1122,1
DA:1126,0
DA:1127,0
DA:1131,1
DA:1132,1
DA:1133,1
DA:1137,0
DA:1138,0
DA:1142,0
DA:1143,0
DA:1147,0
DA:1148,0
DA:1152,2
DA:1153,2
DA:1166,0
DA:1167,0
DA:1171,0
DA:1177,23
DA:1180,23
DA:1181,46
DA:1182,23
DA:1183,46
DA:1200,24
DA:1201,24
DA:1202,24
DA:1203,72
DA:1204,48
DA:1250,2
DA:1251,2
DA:1253,2
DA:1255,2
DA:1262,0
DA:1264,0
DA:1265,0
DA:1266,0
DA:1267,0
DA:1269,0
DA:1270,0
DA:1273,0
DA:1277,5
DA:1279,5
DA:1280,5
DA:1281,8
DA:1282,8
DA:1283,8
DA:1284,5
DA:1285,5
DA:1287,3
DA:1288,3
DA:1291,5
DA:1292,5
DA:1301,75
DA:1304,75
DA:1305,75
DA:1309,0
DA:1310,0
DA:1312,0
DA:1313,0
DA:1319,0
DA:1320,0
DA:1321,0
DA:1327,75
DA:1328,75
DA:1334,0
DA:1337,0
DA:1339,0
DA:1342,0
DA:1343,0
DA:1344,0
DA:1347,0
DA:1348,0
DA:1349,0
DA:1352,0
DA:1353,0
DA:1354,0
DA:1356,0
DA:1357,0
DA:1358,0
DA:1361,0
DA:1362,0
DA:1363,0
DA:1364,0
DA:1365,0
DA:1366,0
DA:1367,0
DA:1368,0
DA:1369,0
DA:1373,0
DA:1374,0
DA:1380,0
DA:1381,0
DA:1382,0
DA:1383,0
DA:1384,0
DA:1385,0
DA:1387,0
DA:1388,0
DA:1389,0
DA:1396,0
DA:1397,0
DA:1398,0
DA:1399,0
DA:1400,0
DA:1410,0
DA:1413,0
DA:1415,0
DA:1416,0
DA:1417,0
DA:1419,0
DA:1420,0
DA:1422,0
DA:1423,0
DA:1424,0
DA:1434,0
DA:1435,0
DA:1436,0
DA:1437,0
DA:1438,0
DA:1439,0
DA:1441,0
DA:1442,0
DA:1443,0
DA:1444,0
DA:1445,0
DA:1446,0
DA:1447,0
DA:1448,0
DA:1449,0
DA:1450,0
DA:1451,0
DA:1452,0
DA:1453,0
DA:1454,0
DA:1455,0
DA:1457,0
DA:1459,0
DA:1460,0
DA:1461,0
DA:1462,0
DA:1463,0
DA:1464,0
DA:1465,0
DA:1467,0
DA:1469,0
DA:1472,0
DA:1473,0
DA:1474,0
DA:1475,0
DA:1481,0
DA:1482,0
DA:1483,0
DA:1484,0
DA:1486,0
DA:1487,0
DA:1489,0
DA:1490,0
DA:1492,0
DA:1493,0
DA:1509,0
DA:1512,0
DA:1514,0
DA:1515,0
DA:1516,0
DA:1518,0
DA:1519,0
DA:1520,0
DA:1521,0
DA:1525,0
DA:1526,0
DA:1527,0
DA:1528,0
DA:1533,0
DA:1534,0
DA:1535,0
DA:1537,0
DA:1538,0
DA:1539,0
DA:1540,0
DA:1542,0
DA:1546,0
DA:1548,0
DA:1550,0
DA:1551,0
DA:1553,0
DA:1554,0
DA:1558,0
DA:1559,0
DA:1562,0
DA:1564,0
DA:1567,0
DA:1568,0
DA:1569,0
DA:1570,0
DA:1579,0
DA:1580,0
DA:1581,0
DA:1582,0
DA:1583,0
DA:1584,0
DA:1586,0
DA:1587,0
DA:1588,0
DA:1589,0
DA:1590,0
DA:1591,0
DA:1592,0
DA:1595,0
DA:1598,0
DA:1599,0
DA:1600,0
DA:1619,0
DA:1623,0
DA:1624,0
DA:1625,0
DA:1626,0
DA:1627,0
DA:1629,0
DA:1630,0
DA:1631,0
DA:1634,0
DA:1635,0
DA:1638,0
DA:1639,0
DA:1640,0
DA:1641,0
DA:1642,0
DA:1643,0
DA:1645,0
DA:1647,0
DA:1648,0
DA:1651,0
DA:1654,0
DA:1655,0
DA:1656,0
DA:1657,0
DA:1658,0
DA:1659,0
DA:1660,0
DA:1661,0
DA:1664,0
DA:1667,0
DA:1668,0
DA:1671,0
DA:1674,0
DA:1681,0
DA:1682,0
DA:1683,0
DA:1684,0
DA:1685,0
DA:1686,0
DA:1687,0
DA:1688,0
DA:1690,0
DA:1691,0
DA:1693,0
DA:1695,0
DA:1696,0
DA:1697,0
DA:1698,0
DA:1699,0
DA:1700,0
DA:1705,0
DA:1708,0
DA:1709,0
DA:1713,0
DA:1714,0
DA:1715,0
DA:1722,0
DA:1723,0
DA:1724,0
DA:1726,0
DA:1727,0
DA:1728,0
DA:1731,0
DA:1732,0
DA:1733,0
DA:1734,0
DA:1705,0
DA:1708,0
DA:1709,0
DA:1713,0
DA:1714,0
DA:1715,0
DA:1722,0
DA:1723,0
DA:1724,0
DA:1726,0
DA:1727,0
DA:1728,0
DA:1731,0
DA:1732,0
DA:1733,0
DA:1734,0
DA:1740,0
DA:1742,0
DA:1747,0
DA:1749,0
DA:1755,0
DA:1758,0
DA:1759,0
DA:1762,0
DA:1763,0
DA:1767,0
DA:1770,0
DA:1771,0
DA:1774,0
DA:1775,0
DA:1779,0
DA:1782,0
DA:1783,0
DA:1785,0
DA:1786,0
DA:1787,0
DA:1792,0
DA:1795,0
DA:1796,0
DA:1798,0
DA:1799,0
DA:1800,0
DA:1814,0
DA:1815,0
DA:1817,0
DA:1820,0
DA:1821,0
DA:1823,0
DA:1828,0
DA:1829,0
DA:1828,0
DA:1829,0
DA:1837,0
DA:1842,0
DA:1843,0
DA:1845,0
DA:1846,0
DA:1848,0
DA:1849,0
DA:1850,0
DA:1851,0
DA:1852,0
DA:1837,0
DA:1842,0
DA:1843,0
DA:1845,0
DA:1846,0
DA:1848,0
DA:1849,0
DA:1850,0
DA:1851,0
DA:1852,0
DA:1837,0
DA:1842,0
DA:1843,0
DA:1845,0
DA:1846,0
DA:1848,0
DA:1849,0
DA:1850,0
DA:1851,0
DA:1852,0
DA:1837,0
DA:1842,0
DA:1843,0
DA:1845,0
DA:1846,0
DA:1848,0
DA:1849,0
DA:1850,0
DA:1851,0
DA:1852,0
DA:1861,0
DA:1863,0
DA:1866,0
DA:1868,0
DA:1871,0
DA:1874,0
DA:1877,0
DA:1880,0
DA:1883,0
DA:1886,0
DA:1889,0
DA:1893,0
DA:1897,0
DA:1900,0
DA:1903,0
DA:1907,0
DA:2003,0
DA:2004,0
DA:2005,0
DA:2006,0
DA:2015,0
DA:2016,0
DA:2017,0
DA:2021,0
DA:2022,0
DA:2023,0
DA:2024,0
DA:2025,0
DA:2026,0
DA:2027,0
DA:2028,0
DA:2029,0
DA:2030,0
DA:2031,0
DA:2032,0
DA:2034,0
DA:2035,0
DA:2036,0
DA:2037,0
DA:2038,0
DA:2040,0
DA:2050,0
DA:2052,0
DA:2056,0
DA:2058,0
DA:2059,0
DA:2060,0
DA:2066,0
DA:2082,0
DA:2083,0
DA:2085,0
DA:2086,0
DA:2089,0
DA:2090,0
DA:2091,0
DA:2093,0
DA:2094,0
DA:2096,0
DA:2099,0
DA:2101,0
DA:2102,0
DA:2106,0
DA:2107,0
DA:2109,0
DA:2118,0
DA:2119,0
DA:2121,0
DA:2123,0
DA:2127,0
DA:2130,0
DA:2131,0
DA:2134,0
DA:2135,0
DA:2139,0
DA:2142,0
DA:2143,0
DA:2146,0
DA:2147,0
DA:2148,0
DA:2157,4
DA:2158,4
DA:2159,4
DA:2160,4
DA:2175,0
DA:2177,0
DA:2179,0
DA:2184,0
DA:2199,0
DA:2201,0
DA:2202,0
DA:2203,0
DA:2204,0
DA:2205,0
DA:2209,0
DA:2210,0
DA:2214,0
DA:2215,0
DA:2216,0
DA:2217,0
DA:2218,0
DA:2221,0
DA:2222,0
DA:2223,0
DA:2224,0
DA:2225,0
DA:2228,0
DA:2229,0
DA:2233,0
DA:2234,0
DA:2235,0
DA:2236,0
DA:2237,0
DA:2238,0
DA:2242,75
DA:2243,75
DA:2244,75
DA:2245,75
DA:2247,75
DA:2248,75
DA:2249,1002
DA:2250,927
DA:2251,0
DA:2253,927
DA:2257,150
DA:2258,75
DA:2261,0
DA:2264,0
DA:2265,0
DA:2266,0
DA:2268,0
DA:2269,0
DA:2271,0
DA:2272,0
DA:2279,23
DA:2280,23
DA:2283,23
DA:2288,0
DA:2289,0
DA:2290,0
DA:2296,0
DA:2297,0
DA:2298,0
DA:2302,0
DA:2305,0
DA:2306,0
DA:2307,0
DA:2312,0
DA:2314,0
DA:2315,0
DA:2317,0
DA:2319,0
DA:2320,0
DA:2321,0
DA:2322,0
DA:2323,0
DA:2325,0
DA:2326,0
DA:2352,0
DA:2353,0
DA:2352,0
DA:2353,0
DA:2356,0
DA:2358,0
DA:2359,0
DA:2360,0
DA:2361,0
DA:2362,0
DA:2363,0
DA:2365,0
DA:2368,0
DA:2374,0
DA:2376,0
DA:2377,0
DA:2378,0
DA:2379,0
DA:2380,0
DA:2381,0
DA:2383,0
DA:2386,0
DA:2390,0
DA:2391,0
DA:2392,0
DA:2393,0
DA:2394,0
DA:2396,0
DA:2397,0
DA:2399,0
DA:2401,0
DA:2402,0
DA:2404,0
DA:2407,0
DA:2408,0
DA:2409,0
DA:2410,0
DA:2411,0
DA:2412,0
DA:2414,0
DA:2419,0
DA:2421,0
DA:2422,0
DA:2426,22
DA:2427,22
DA:2428,22
DA:2429,22
DA:2430,22
DA:2431,22
DA:2434,0
DA:2435,0
DA:2439,103
DA:2440,103
DA:2444,211
DA:2445,211
DA:2446,0
DA:2448,211
DA:2452,0
DA:2453,0
DA:2457,41
DA:2458,41
DA:2462,0
DA:2463,0
DA:2467,0
DA:2468,0
DA:2473,211
DA:2474,211
DA:2478,0
DA:2479,0
DA:2487,20
DA:2492,0
DA:2492,20
DA:2497,20
DA:2502,20
DA:2505,0
DA:2506,0
DA:2507,0
DA:2511,0
DA:2515,0
DA:2521,0
DA:2530,20
DA:2531,20
DA:2532,20
DA:2535,20
DA:2536,20
DA:2537,20
DA:2540,20
DA:2541,20
DA:2542,20
DA:2544,20
DA:2546,0
DA:2548,0
DA:2550,0
DA:2557,0
DA:2559,0
DA:2562,0
DA:2563,0
DA:2564,0
DA:2565,0
DA:2566,0
DA:2567,0
DA:2568,0
DA:2569,0
DA:2570,0
DA:2571,0
DA:2574,0
DA:2575,0
DA:2576,0
DA:2577,0
DA:2578,0
DA:2579,0
DA:2580,0
DA:2581,0
DA:2582,0
DA:2583,0
DA:2585,0
DA:2588,20
DA:2596,0
DA:2598,0
DA:2599,0
DA:2600,0
DA:2602,0
DA:2604,0
DA:2606,0
DA:2607,0
DA:2612,0
DA:2613,0
DA:2614,0
DA:2627,1
DA:2638,1
DA:2627,4
DA:2638,4
DA:2627,20
DA:2638,20
DA:2627,80
DA:2638,80
DA:2646,1
DA:2671,1
DA:2674,1
DA:2675,0
DA:2677,0
DA:2681,0
DA:2682,0
DA:2683,0
DA:2685,0
DA:2686,0
DA:2687,0
DA:2691,0
DA:2696,0
DA:2646,4
DA:2671,4
DA:2674,4
DA:2675,0
DA:2677,0
DA:2681,0
DA:2682,0
DA:2683,0
DA:2685,0
DA:2686,0
DA:2687,0
DA:2691,0
DA:2696,0
DA:2646,20
DA:2671,20
DA:2674,20
DA:2675,0
DA:2677,0
DA:2681,0
DA:2682,0
DA:2683,0
DA:2685,0
DA:2686,0
DA:2687,0
DA:2691,0
DA:2696,0
DA:2646,80
DA:2671,80
DA:2674,80
DA:2675,0
DA:2677,0
DA:2681,0
DA:2682,0
DA:2683,0
DA:2685,0
DA:2686,0
DA:2687,0
DA:2691,0
DA:2696,0
DA:2703,20
DA:2704,20
DA:2706,20
DA:2707,20
DA:2708,20
DA:2711,20
DA:2712,20
DA:2713,20
DA:2720,20
DA:2721,20
DA:2726,41
DA:2727,41
DA:2731,0
DA:2734,0
DA:2738,41
DA:2739,41
DA:2746,20
DA:2750,20
DA:2751,20
DA:2752,20
DA:2753,20
DA:2754,20
DA:2755,20
DA:2756,20
DA:2757,20
DA:2758,20
DA:2759,20
DA:2760,20
DA:2761,20
DA:2762,20
DA:2765,20
DA:2787,20
DA:2793,20
DA:2794,20
DA:2795,20
DA:2796,20
DA:2799,0
DA:2801,0
DA:2803,0
DA:2804,0
DA:2805,0
DA:2806,0
DA:2807,0
DA:2808,0
DA:2809,0
DA:2810,0
DA:2812,0
DA:2813,0
DA:2814,0
DA:2815,0
DA:2820,1
DA:2821,1
DA:2822,1
DA:2823,1
DA:2824,1
DA:2826,1
DA:2832,20
DA:2833,20
DA:2834,20
DA:2835,0
DA:2836,0
DA:2840,20
DA:2843,20
DA:2844,20
DA:2845,20
DA:2846,20
DA:2849,40
DA:2850,20
DA:2856,20
DA:2859,20
DA:2862,20
DA:2864,20
DA:2865,20
DA:2869,20
DA:2872,20
DA:2876,20
DA:2880,0
DA:2881,0
DA:2883,0
DA:2885,0
DA:2888,0
DA:2891,0
DA:2893,0
DA:2894,0
DA:2897,0
DA:2898,0
DA:2899,0
DA:2904,2
DA:2905,2
DA:2909,2
DA:2910,2
DA:2914,4
DA:2915,4
DA:2919,2
DA:2920,2
DA:2924,0
DA:2925,0
DA:2929,0
DA:2930,0
DA:2934,8
DA:2935,8
DA:2939,22
DA:2940,22
DA:2952,2
DA:2954,2
DA:2955,2
DA:2956,2
DA:2957,2
DA:2958,2
DA:2959,2
DA:2960,2
DA:2961,4
DA:2964,2
DA:2967,2
DA:2964,4
DA:2966,2
DA:2967,2
DA:2971,0
DA:2972,0
DA:2973,0
DA:2978,20
DA:2979,20
DA:2980,20
DA:2985,20
DA:2986,20
DA:2987,20
DA:2988,20
DA:2991,2
DA:2992,2
DA:2994,2
DA:2996,2
DA:3008,2
DA:3009,41
DA:3010,41
DA:3011,0
DA:3014,41
DA:3018,2
DA:3021,2
DA:3024,2
DA:3025,2
DA:3029,2
DA:3031,2
DA:3032,2
DA:3033,22
DA:3034,20
DA:3035,0
DA:3037,20
DA:3039,20
DA:3040,0
DA:3041,0
DA:3042,0
DA:3044,0
DA:3047,2
DA:3049,2
DA:3050,2
DA:3054,2
DA:3057,2
DA:3060,2
DA:3064,0
DA:3065,0
DA:3067,0
DA:3069,0
DA:3072,0
DA:3075,0
DA:3078,0
DA:3079,0
DA:3083,0
DA:3086,0
DA:3089,0
DA:3093,2
DA:3094,2
DA:3095,2
DA:3096,2
DA:3099,0
DA:3100,0
DA:3101,0
DA:3104,2
DA:3105,22
DA:3106,20
DA:3108,2
DA:3115,9
DA:3117,18
DA:3118,27
DA:3122,3
DA:3123,3
DA:3127,2
DA:3128,2
DA:3135,0
DA:3136,0
DA:3137,0
DA:3138,0
DA:3139,0
DA:3140,0
DA:3142,0
DA:3147,0
DA:3149,0
DA:3150,0
DA:3160,0
DA:3162,0
DA:3164,0
DA:3165,0
DA:3166,0
DA:3167,0
DA:3168,0
DA:3172,0
DA:3173,0
DA:3174,0
DA:3175,0
DA:3187,0
DA:3243,0
DA:3244,0
DA:3245,0
DA:3246,0
DA:3247,0
DA:3248,0
DA:3249,0
DA:3250,0
DA:3251,0
DA:3252,0
DA:3260,1
DA:3261,1
DA:3262,1
DA:3264,1
DA:3271,0
DA:3273,0
DA:3274,0
DA:3275,0
DA:3276,0
DA:3277,0
DA:3278,0
DA:3279,0
DA:3280,0
DA:3281,0
DA:3282,0
DA:3283,0
DA:3287,2
DA:3288,2
DA:3289,3
DA:3290,2
DA:3294,1
DA:3302,49
DA:3304,49
DA:3309,49
DA:3311,49
DA:3313,49
DA:3314,49
DA:3315,49
DA:3316,49
DA:3342,0
DA:3343,0
DA:3344,0
DA:3346,0
DA:3354,0
DA:3355,0
DA:3356,0
DA:3358,0
DA:3359,0
DA:3360,0
DA:3361,0
DA:3362,0
DA:3364,0
DA:3365,0
DA:3368,0
DA:3375,1
DA:3376,40
DA:3377,40
DA:3378,40
DA:3381,1
DA:3384,1
DA:3403,1
DA:3405,1
DA:3414,1
DA:3416,1
DA:3417,0
DA:3419,1
DA:3420,1
DA:3424,1
DA:3425,0
DA:3429,1
DA:3430,0
DA:3431,0
DA:3436,1
DA:3437,0
DA:3442,1
DA:3443,2
DA:3444,2
DA:3445,2
DA:3446,1
DA:3447,1
DA:3449,1
DA:3451,1
DA:3452,1
DA:3453,1
DA:3454,1
DA:3457,2
DA:3459,2
DA:3460,2
DA:3461,2
DA:3462,2
DA:3463,2
DA:3465,0
DA:3467,2
DA:3468,2
DA:3485,20
DA:3486,20
DA:3487,20
DA:3488,20
DA:3489,20
DA:3490,20
DA:3492,0
DA:3493,0
DA:3494,0
DA:3495,0
DA:3496,0
DA:3497,0
DA:3500,0
DA:3502,0
DA:3504,0
DA:3505,0
DA:3506,0
DA:3509,0
DA:3510,0
DA:3514,20
DA:3515,20
DA:3516,20
DA:3517,0
DA:3518,0
DA:3520,0
DA:3522,20
DA:3523,20
DA:3525,20
DA:3526,20
DA:3527,40
DA:3530,0
DA:3532,20
DA:3533,20
DA:3536,2
DA:3537,2
DA:3540,2
DA:3541,2
DA:3542,2
DA:3543,4
DA:3544,2
DA:3545,2
DA:3559,1
DA:3561,1
DA:3562,1
DA:3563,1
DA:3564,1
DA:3567,0
DA:3568,0
DA:3569,0
DA:3570,0
DA:3572,0
DA:3573,0
DA:3574,0
DA:3575,0
DA:3577,0
DA:3578,0
DA:3579,0
DA:3580,0
DA:3582,0
DA:3583,0
DA:3584,0
DA:3585,0
DA:3588,0
DA:3590,0
DA:3594,0
DA:3596,0
DA:3597,0
DA:3598,0
DA:3599,0
DA:3600,0
DA:3602,0
DA:3603,0
DA:3604,0
DA:3605,0
DA:3608,0
DA:3609,0
DA:3612,0
DA:3615,0
DA:3616,0
DA:3617,0
DA:3618,0
DA:3621,0
DA:3622,0
DA:3623,0
DA:3624,0
DA:3626,0
DA:3627,0
DA:3628,0
DA:3629,0
DA:3631,0
DA:3632,0
DA:3633,0
DA:3638,1
DA:3640,1
DA:3641,2
DA:3642,2
DA:3643,2
DA:3644,1
DA:3645,1
DA:3646,2
DA:3648,1
DA:3649,1
DA:3650,1
DA:3652,1
DA:3653,1
DA:3654,0
DA:3655,0
DA:3656,0
DA:3659,1
DA:3660,0
DA:3661,0
DA:3664,1
DA:3665,1
DA:3666,0
DA:3667,0
DA:3669,0
DA:3673,1
DA:3674,1
DA:3683,0
DA:3684,0
DA:3685,0
DA:3686,0
DA:3689,0
DA:3690,0
DA:3691,0
DA:3692,0
DA:3693,0
DA:3695,0
DA:3700,0
DA:3701,0
DA:3706,0
DA:3711,0
DA:3712,0
DA:3714,0
DA:3718,0
DA:3720,0
DA:3722,0
DA:3723,0
DA:3724,0
DA:3727,0
DA:3728,0
DA:3732,0
DA:3733,0
DA:3734,0
DA:3735,0
DA:3736,0
DA:3738,0
DA:3739,0
DA:3740,0
DA:3743,0
DA:3745,0
DA:3747,0
DA:3749,0
DA:3751,0
DA:3752,0
DA:3753,0
DA:3754,0
DA:3755,0
DA:3756,0
DA:3757,0
DA:3759,0
DA:3760,0
DA:3761,0
DA:3763,0
DA:3764,0
DA:3765,0
DA:3766,0
DA:3769,0
DA:3770,0
DA:3771,0
DA:3772,0
DA:3774,0
DA:3778,0
DA:3779,0
DA:3788,1
DA:3795,0
DA:3796,0
DA:3832,1
DA:3834,1
DA:3832,1
DA:3833,1
DA:3834,1
DA:3836,1
DA:3837,1
DA:3838,1
DA:3840,1
DA:3841,1
DA:3842,0
DA:3843,0
DA:3844,0
DA:3848,1
DA:3872,2
DA:3873,2
DA:3876,4
DA:3878,4
DA:3879,40
DA:3880,0
DA:3881,0
DA:3882,2
DA:3883,2
DA:3884,2
DA:3885,40
DA:3888,4
DA:3890,4
DA:3891,2
DA:3896,1
DA:3898,1
DA:3899,2
DA:3900,1
DA:3903,1
DA:3905,1
DA:3907,1
DA:3908,2
DA:3909,1
DA:3912,1
DA:3932,0
DA:3933,0
DA:3938,0
DA:3939,0
DA:3952,0
DA:3953,0
DA:4013,0
DA:4014,0
DA:4015,0
DA:4016,0
DA:4018,0
DA:4021,0
DA:4023,0
DA:4024,0
DA:4025,0
DA:4026,0
DA:4027,0
DA:4028,0
DA:4030,0
DA:4032,0
DA:4033,0
DA:4034,0
DA:4035,0
DA:4036,0
DA:4037,0
DA:4049,0
DA:4051,0
DA:4053,0
DA:4054,0
DA:4055,0
DA:4056,0
DA:4057,0
DA:4058,0
DA:4059,0
DA:4060,0
DA:4061,0
DA:4062,0
DA:4063,0
DA:4064,0
DA:4065,0
DA:4066,0
DA:4067,0
DA:4069,0
DA:4070,0
DA:4071,0
DA:4072,0
DA:4073,0
DA:4075,0
DA:4076,0
DA:4077,0
DA:4078,0
DA:4079,0
DA:4080,0
DA:4081,0
DA:4082,0
DA:4084,0
DA:4086,0
DA:4090,0
DA:4091,0
DA:4096,0
DA:4098,0
DA:4099,0
DA:4100,0
DA:4101,0
DA:4102,0
DA:4104,0
DA:4105,0
DA:4124,0
DA:4125,0
DA:4129,0
DA:4131,0
DA:4132,0
DA:4133,0
DA:4134,0
DA:4135,0
DA:4137,0
DA:4152,0
DA:4158,0
DA:4160,0
DA:4161,0
DA:4163,0
DA:4164,0
DA:4165,0
DA:4166,0
DA:4167,0
DA:4168,0
DA:4169,0
DA:4173,0
DA:4175,0
DA:4176,0
DA:4178,0
DA:4179,0
DA:4180,0
DA:4181,0
DA:4182,0
DA:4183,0
DA:4185,0
DA:4186,0
DA:4188,0
DA:4189,0
DA:4190,0
DA:4192,0
DA:4196,0
DA:4198,0
DA:4201,0
DA:4203,0
DA:4204,0
DA:4207,0
DA:4210,0
DA:4211,0
DA:4212,0
DA:4213,0
DA:4214,0
DA:4215,0
DA:4216,0
DA:4217,0
DA:4218,0
DA:4219,0
DA:4221,0
DA:4222,0
DA:4225,0
DA:4226,0
DA:4227,0
DA:4228,0
DA:4229,0
DA:4230,0
DA:4231,0
DA:4232,0
DA:4234,0
DA:4237,0
DA:4240,0
DA:4241,0
DA:4244,0
DA:4247,0
DA:4248,0
DA:4250,0
DA:4251,0
DA:4254,0
DA:4255,0
DA:4257,0
DA:4258,0
DA:4261,0
DA:4262,0
DA:4266,0
DA:4267,0
DA:4268,0
DA:4269,0
DA:4270,0
DA:4271,0
DA:4274,0
DA:4275,0
DA:4276,0
DA:4277,0
DA:4278,0
DA:4280,0
DA:4281,0
DA:4282,0
DA:4284,0
DA:4285,0
DA:4287,0
DA:4288,0
DA:4290,0
DA:4292,0
DA:4293,0
DA:4294,0
DA:4295,0
DA:4296,0
DA:4297,0
DA:4298,0
DA:4302,0
DA:4303,0
DA:4304,0
DA:4305,0
DA:4306,0
DA:4307,0
DA:4308,0
DA:4309,0
DA:4310,0
DA:4311,0
DA:4315,0
DA:4316,0
DA:4318,0
DA:4319,0
DA:4320,0
DA:4321,0
DA:4322,0
DA:4325,0
DA:4326,0
DA:4328,0
DA:4329,0
DA:4331,0
DA:4332,0
DA:4334,0
DA:4337,0
DA:4339,0
DA:4340,0
DA:4341,0
DA:4342,0
DA:4343,0
DA:4344,0
DA:4345,0
DA:4346,0
DA:4347,0
DA:4349,0
DA:4350,0
DA:4351,0
DA:4353,0
DA:4355,0
DA:4356,0
DA:4357,0
DA:4359,0
DA:4360,0
DA:4362,0
DA:4363,0
DA:4364,0
DA:4365,0
DA:4367,0
DA:4368,0
DA:4371,0
DA:4373,0
DA:4375,0
DA:4376,0
DA:4378,0
DA:4379,0
DA:4380,0
DA:4381,0
DA:4382,0
DA:4384,0
DA:4385,0
DA:4386,0
DA:4387,0
DA:4388,0
DA:4390,0
DA:4392,0
DA:4393,0
DA:4394,0
DA:4396,0
DA:4398,0
DA:4399,0
DA:4401,0
DA:4402,0
DA:4403,0
DA:4408,0
DA:4409,0
DA:4412,0
DA:4413,0
DA:4415,0
DA:4417,0
DA:4419,0
DA:4420,0
DA:4422,0
DA:4423,0
DA:4424,0
DA:4426,0
DA:4427,0
DA:4428,0
DA:4429,0
DA:4431,0
DA:4432,0
DA:4434,0
DA:4435,0
DA:4439,0
DA:4441,0
DA:4442,0
DA:4443,0
DA:4444,0
DA:4445,0
DA:4447,0
DA:4448,0
DA:4450,0
DA:4452,0
DA:4453,0
DA:4455,0
DA:4456,0
DA:4459,0
DA:4460,0
DA:4461,0
DA:4462,0
DA:4463,0
DA:4464,0
DA:4465,0
DA:4467,0
DA:4468,0
DA:4537,0
DA:4538,0
DA:4539,0
DA:4540,0
DA:4542,0
DA:4544,0
DA:4546,0
DA:4547,0
DA:4548,0
DA:4549,0
DA:4550,0
DA:4551,0
DA:4554,0
DA:4555,0
DA:4557,0
DA:4558,0
DA:4559,0
DA:4560,0
DA:4563,0
DA:4564,0
DA:4565,0
DA:4566,0
DA:4567,0
DA:4568,0
DA:4569,0
DA:4570,0
DA:4571,0
DA:4572,0
DA:4573,0
DA:4574,0
DA:4575,0
DA:4576,0
DA:4577,0
DA:4578,0
DA:4579,0
DA:4580,0
DA:4581,0
DA:4582,0
DA:4584,0
DA:4586,0
DA:4590,0
DA:4591,0
DA:4597,0
DA:4598,0
DA:4599,0
DA:4600,0
DA:4601,0
DA:4605,0
DA:4607,0
DA:4608,0
DA:4610,0
DA:4611,0
DA:4612,0
DA:4613,0
DA:4614,0
DA:4615,0
DA:4618,0
DA:4619,0
DA:4622,0
DA:4629,0
DA:4631,0
DA:4634,0
DA:4636,0
DA:4637,0
DA:4638,0
DA:4640,0
DA:4644,0
DA:4646,0
DA:4649,0
DA:4651,0
DA:4652,0
DA:4653,0
DA:4656,0
DA:4659,0
DA:4660,0
DA:4661,0
DA:4662,0
DA:4663,0
DA:4664,0
DA:4665,0
DA:4666,0
DA:4667,0
DA:4668,0
DA:4669,0
DA:4670,0
DA:4671,0
DA:4672,0
DA:4674,0
DA:4677,0
DA:4678,0
DA:4679,0
DA:4680,0
DA:4681,0
DA:4682,0
DA:4683,0
DA:4684,0
DA:4685,0
DA:4686,0
DA:4687,0
DA:4688,0
DA:4691,0
DA:4694,0
DA:4695,0
DA:4698,0
DA:4701,0
DA:4702,0
DA:4703,0
DA:4705,0
DA:4706,0
DA:4708,0
DA:4709,0
DA:4712,0
DA:4713,0
DA:4717,0
DA:4718,0
DA:4719,0
DA:4720,0
DA:4721,0
DA:4723,0
DA:4726,0
DA:4727,0
DA:4728,0
DA:4729,0
DA:4730,0
DA:4733,0
DA:4734,0
DA:4736,0
DA:4737,0
DA:4738,0
DA:4740,0
DA:4742,0
DA:4743,0
DA:4745,0
DA:4747,0
DA:4750,0
DA:4751,0
DA:4752,0
DA:4753,0
DA:4754,0
DA:4755,0
DA:4756,0
DA:4760,0
DA:4762,0
DA:4766,0
DA:4767,0
DA:4770,0
DA:4774,0
DA:4775,0
DA:4776,0
DA:4777,0
DA:4778,0
DA:4779,0
DA:4780,0
DA:4784,0
DA:4786,0
DA:4789,0
DA:4790,0
DA:4793,0
DA:4796,0
DA:4797,0
DA:4800,0
DA:4802,0
DA:4803,0
DA:4805,0
DA:4806,0
DA:4807,0
DA:4809,0
DA:4810,0
DA:4812,0
DA:4814,0
DA:4815,0
DA:4817,0
DA:4819,0
DA:4820,0
DA:4822,0
DA:4823,0
DA:4826,0
DA:4828,0
DA:4829,0
DA:4830,0
DA:4831,0
DA:4832,0
DA:4834,0
DA:4836,0
DA:4839,0
DA:4840,0
DA:4843,0
DA:4845,0
DA:4846,0
DA:4847,0
DA:4849,0
DA:4851,0
DA:4853,0
DA:4855,0
DA:4856,0
DA:4857,0
DA:4860,0
DA:4861,0
DA:4863,0
DA:4864,0
DA:4867,0
DA:4868,0
DA:4870,0
DA:4871,0
DA:4873,0
DA:4874,0
DA:4875,0
DA:4876,0
DA:4877,0
DA:4879,0
DA:4881,0
DA:4887,0
DA:4888,0
DA:4889,0
DA:4891,0
DA:4896,0
DA:4897,0
DA:4899,0
DA:4901,0
DA:4902,0
DA:4903,0
DA:4904,0
DA:4905,0
DA:4906,0
DA:4908,0
DA:4910,0
DA:4911,0
DA:4913,0
DA:4914,0
DA:4915,0
DA:4917,0
DA:4922,0
DA:4923,0
DA:4926,0
DA:4928,0
DA:4929,0
DA:4930,0
DA:4931,0
DA:4932,0
DA:4933,0
DA:4935,0
DA:4936,0
DA:4948,0
DA:4949,0
DA:4950,0
DA:4951,0
DA:4952,0
DA:4953,0
DA:4957,0
DA:4958,0
DA:4959,0
DA:4960,0
DA:4961,0
DA:4962,0
DA:4965,0
DA:4966,0
DA:4968,0
DA:4969,0
DA:4970,0
DA:4973,0
DA:4974,0
DA:4975,0
DA:4976,0
DA:4981,0
DA:4982,0
DA:4983,0
DA:4984,0
DA:4988,0
DA:4989,0
DA:4990,0
DA:4992,0
DA:4994,0
DA:4995,0
DA:4996,0
DA:5001,0
DA:5003,0
DA:5004,0
DA:5005,0
DA:5007,0
DA:5017,0
DA:5063,0
DA:5067,104
DA:5077,104
DA:5084,1
DA:5085,1
DA:5088,1
DA:5092,0
DA:5093,0
DA:5094,0
DA:5096,1
DA:5098,2
DA:5100,1
DA:5101,0
DA:5102,0
DA:5103,0
DA:5104,0
DA:5105,0
DA:5109,1
DA:5123,1
DA:5124,1
DA:5125,1
DA:5126,1
DA:5128,1
DA:5134,1
DA:5135,1
DA:5136,1
DA:5141,1
DA:5142,1
DA:5143,1
DA:5144,0
DA:5145,0
DA:5146,1
DA:5151,23
DA:5158,1
DA:5159,1
DA:5162,1
DA:5163,1
DA:5164,1
DA:5166,1
DA:5173,0
DA:5174,0
DA:5177,0
DA:5178,0
DA:5179,0
DA:5181,0
DA:5185,0
DA:5186,0
DA:5189,0
DA:5190,0
DA:5191,0
DA:5202,360
DA:5211,360
DA:5212,360
DA:5217,0
DA:5218,0
DA:5222,0
DA:5223,0
DA:5227,0
DA:5228,0
DA:5233,2
DA:5234,2
DA:5239,0
DA:5240,0
DA:5242,0
DA:5243,0
DA:5245,0
DA:5246,0
DA:5248,0
DA:5249,0
DA:5254,1
DA:5255,1
DA:5259,1
DA:5260,1
DA:5264,0
DA:5267,1
DA:5268,1
DA:5272,0
DA:5273,0
DA:5277,0
DA:5278,0
DA:5282,0
DA:5285,2
DA:5289,0
DA:5290,0
DA:5294,1
DA:5295,1
DA:5300,1
DA:5304,0
DA:5308,0
DA:5309,0
DA:5314,0
DA:5315,0
DA:5321,0
DA:5322,0
DA:5327,0
DA:5328,0
DA:5331,44
DA:5332,44
DA:5333,44
DA:5336,4
DA:5337,4
DA:5338,4
DA:5339,4
DA:5342,40
DA:5343,40
DA:5344,40
DA:5345,40
DA:5349,22
DA:5361,0
DA:5362,0
DA:5363,0
DA:5366,0
DA:5367,0
DA:5374,0
DA:5379,0
DA:5380,0
DA:5382,0
DA:5383,0
DA:5384,0
DA:5386,0
DA:5387,0
DA:5388,0
DA:5389,0
DA:5390,0
DA:5394,0
DA:5395,0
DA:5397,0
DA:5401,0
DA:5402,0
DA:5405,0
DA:5412,0
DA:5423,0
DA:5434,0
DA:5436,0
DA:5444,0
DA:5451,0
DA:5453,0
DA:5454,0
DA:5461,1
DA:5464,1
DA:5490,1
DA:5497,1
DA:5546,1
DA:5549,1
DA:5550,1
DA:5551,1
DA:5556,0
DA:5557,0
DA:5563,0
DA:5565,0
DA:5566,0
DA:5567,0
DA:5571,0
DA:5573,0
DA:5574,0
DA:5575,0
DA:5580,0
DA:5582,0
DA:5583,0
DA:5584,0
DA:5587,0
DA:5592,0
DA:5593,0
DA:5597,1
DA:5600,0
DA:5600,1
DA:5604,0
DA:5606,0
DA:5607,0
DA:5608,0
DA:5611,0
DA:5612,0
DA:5613,0
DA:5614,0
DA:5618,1
DA:5619,1
DA:5621,1
DA:5622,1
DA:5623,1
DA:5625,1
DA:5627,1
DA:5628,1
DA:5629,1
DA:5630,1
DA:5631,1
DA:5632,1
DA:5633,1
DA:5634,1
DA:5635,1
DA:5636,1
DA:5637,1
DA:5638,1
DA:5640,1
DA:5643,7
DA:5644,1
DA:5645,1
DA:5647,1
DA:5655,1
DA:5647,1
DA:5649,1
DA:5652,1
DA:5654,1
DA:5655,1
DA:5662,0
DA:5663,0
DA:5666,0
DA:5667,0
DA:5668,0
DA:5669,0
DA:5670,0
DA:5671,0
DA:5673,0
DA:5674,0
DA:5676,0
DA:5677,0
DA:5682,1
DA:5683,1
DA:5684,0
DA:5685,1
DA:5690,1
DA:5691,1
DA:5693,1
DA:5694,0
DA:5695,0
DA:5696,1
DA:5697,0
DA:5698,0
DA:5699,1
DA:5700,0
DA:5701,0
DA:5709,1
DA:5714,1
DA:5715,1
DA:5716,1
DA:5717,0
DA:5718,0
DA:5719,0
DA:5720,0
DA:5722,0
DA:5723,0
DA:5726,1
DA:5734,2
DA:5736,2
DA:5737,1
DA:5745,1
DA:5746,1
DA:5752,1
DA:5756,1
DA:5758,1
DA:5759,0
DA:5764,1
DA:5774,2
DA:5788,20
DA:5795,39
DA:5796,39
DA:5797,18
DA:5801,2
DA:5802,2
DA:5803,0
DA:5808,2
DA:5809,2
DA:5811,4
DA:5813,2
DA:5818,0
DA:5819,0
DA:5823,2
DA:5826,2
DA:5827,2
DA:5828,2
DA:5832,0
DA:5833,0
DA:5844,1
DA:5847,1
DA:5850,1
DA:5854,1
DA:5860,1
DA:5865,1
DA:5868,1
DA:5876,1
DA:5882,1
DA:5883,1
DA:5886,1
DA:5888,0
DA:5889,0
DA:5892,1
DA:5895,1
DA:5897,1
DA:5899,1
DA:5900,1
DA:5904,1
DA:5907,1
DA:5915,1
DA:5916,1
DA:5919,2
DA:5922,1
DA:5924,1
DA:5927,1
DA:5928,0
DA:5932,0
DA:5936,1
DA:5939,1
DA:5942,1
DA:5943,1
DA:5944,1
DA:5945,1
DA:5950,1
DA:5954,0
DA:5955,0
DA:5957,0
DA:5958,0
DA:5959,0
DA:5960,0
DA:5961,0
DA:5963,0
DA:5964,1
DA:5965,3
DA:5967,2
DA:5968,2
DA:5969,0
DA:5970,0
DA:5971,0
DA:5973,0
DA:5976,0
DA:5980,0
DA:5982,0
DA:5989,1
DA:5990,1
DA:5991,1
DA:5993,1
DA:5997,1
DA:6000,1
DA:6003,1
DA:6004,0
DA:6013,1
DA:6015,1
DA:6017,0
DA:6021,1
DA:6023,1
DA:6024,1
DA:6025,1
DA:6026,1
DA:6029,1
DA:6030,0
DA:6039,1
DA:6047,1
DA:6048,1
DA:6049,1
DA:6050,0
DA:6051,0
DA:6052,0
DA:6056,0
DA:6057,0
DA:6059,0
DA:6061,1
DA:6070,2
DA:6072,2
DA:6073,0
DA:6076,2
DA:6077,2
DA:6079,2
DA:6080,2
DA:6081,0
DA:6082,0
DA:6083,0
DA:6084,0
DA:6085,0
DA:6086,0
DA:6087,0
DA:6088,0
DA:6089,0
DA:6090,0
DA:6091,0
DA:6092,0
DA:6093,0
DA:6094,0
DA:6095,0
DA:6096,0
DA:6097,0
DA:6099,0
DA:6100,0
DA:6101,0
DA:6102,0
DA:6103,0
DA:6104,0
DA:6105,0
DA:6106,0
DA:6108,0
DA:6114,4
DA:6115,4
DA:6116,4
DA:6117,4
DA:6121,0
DA:6123,0
DA:6125,0
DA:6132,0
DA:6133,0
DA:6143,1
DA:6145,1
DA:6146,1
DA:6148,1
DA:6149,1
DA:6152,1
DA:6153,2
DA:6158,1
DA:6159,1
DA:6160,3
DA:6161,2
DA:6162,2
DA:6164,22
DA:6165,20
DA:6169,40
DA:6170,20
DA:6171,20
DA:6174,20
DA:6175,20
DA:6177,20
DA:6178,20
DA:6182,20
DA:6183,0
DA:6184,20
DA:6185,20
DA:6187,20
DA:6188,20
DA:6190,20
DA:6191,20
DA:6194,1
DA:6195,1
DA:6201,0
DA:6202,0
DA:6203,0
DA:6204,0
DA:6205,0
DA:6206,0
DA:6208,0
DA:6209,0
DA:6210,0
DA:6212,0
DA:6213,0
DA:6217,0
DA:6220,0
DA:6222,0
DA:6224,0
DA:6225,0
DA:6227,0
DA:6228,0
DA:6229,0
DA:6230,0
DA:6231,0
DA:6232,0
DA:6233,0
DA:6234,0
DA:6237,0
DA:6239,0
DA:6241,0
DA:6242,0
DA:6243,0
DA:6246,0
DA:6248,0
DA:6252,0
DA:6254,0
DA:6255,0
DA:6257,0
DA:6258,0
DA:6259,0
DA:6260,0
DA:6261,0
DA:6262,0
DA:6263,0
DA:6264,0
DA:6265,0
DA:6266,0
DA:6268,0
DA:6269,0
DA:6270,0
DA:6272,0
DA:6279,0
DA:6281,0
DA:6282,0
DA:6283,0
DA:6285,0
DA:6290,104
DA:6291,104
DA:6295,1
DA:6299,104
DA:6303,82
DA:6304,82
DA:6305,80
DA:6307,2
DA:6308,0
DA:6310,2
DA:6315,0
DA:6317,0
DA:6320,0
DA:6321,0
DA:6324,0
DA:6325,0
DA:6327,0
DA:6330,1
DA:6331,3
DA:6333,2
DA:6335,2
DA:6337,1
DA:6350,0
DA:6353,0
DA:6362,49
DA:6364,8
DA:6368,8
DA:6370,8
DA:6376,0
DA:6377,0
DA:6378,0
DA:6379,0
DA:6380,0
DA:6382,0
DA:6390,0
DA:6393,0
DA:6397,0
DA:6398,0
DA:6399,0
DA:6402,0
DA:6405,0
DA:6406,0
DA:6412,0
DA:6415,0
DA:6416,0
DA:6428,0
DA:6430,0
DA:6433,0
DA:6436,0
DA:6437,0
DA:6444,0
DA:6446,0
DA:6449,0
DA:6452,0
DA:6453,0
DA:6461,0
DA:6463,0
DA:6466,0
DA:6469,0
DA:6470,0
DA:6479,0
DA:6480,0
DA:6481,0
DA:6482,0
DA:6483,0
DA:6484,0
DA:6496,0
DA:6497,0
DA:6504,0
DA:6505,0
DA:6506,0
DA:6507,0
DA:6510,0
DA:6512,0
DA:6513,0
DA:6514,0
DA:6515,0
DA:6516,0
DA:6517,0
DA:6518,0
DA:6519,0
DA:6520,0
DA:6521,0
DA:6522,0
DA:6523,0
DA:6525,0
DA:6527,0
DA:6626,0
DA:6636,0
DA:6637,0
DA:6638,0
DA:6639,0
DA:6640,0
DA:6641,0
DA:6642,0
DA:6643,0
DA:6644,0
DA:6645,0
DA:6646,0
DA:6647,0
DA:6648,0
DA:6649,0
DA:6650,0
DA:6651,0
DA:6652,0
DA:6653,0
DA:6654,0
DA:6655,0
DA:6656,0
DA:6657,0
DA:6661,0
DA:6662,0
DA:6663,0
DA:6664,0
DA:6665,0
DA:6667,0
DA:6668,0
DA:6669,0
DA:6670,0
DA:6671,0
DA:6672,0
DA:6673,0
DA:6675,0
DA:6682,0
DA:6683,0
DA:6684,0
DA:6685,0
DA:6686,0
DA:6690,0
DA:6691,0
DA:6692,0
DA:6694,0
DA:6695,0
DA:6696,0
DA:6697,0
DA:6699,0
DA:6702,0
DA:6705,0
DA:6707,0
DA:6708,0
DA:6712,0
DA:6715,0
DA:6719,0
DA:6723,0
DA:6727,0
DA:6729,0
DA:6682,1
DA:6683,1
DA:6684,1
DA:6685,0
DA:6686,0
DA:6690,0
DA:6691,0
DA:6692,0
DA:6694,0
DA:6695,0
DA:6696,0
DA:6697,0
DA:6699,0
DA:6702,0
DA:6705,0
DA:6707,0
DA:6708,0
DA:6712,0
DA:6715,0
DA:6719,0
DA:6723,1
DA:6727,0
DA:6729,1
DA:6737,1
DA:6787,1
DA:6800,1
DA:6801,0
DA:6802,0
DA:6803,0
DA:6810,0
DA:6812,0
DA:6814,0
DA:6816,0
DA:6817,0
DA:6818,0
DA:6833,0
DA:6834,0
DA:6810,1
DA:6812,1
DA:6814,1
DA:6816,1
DA:6817,2
DA:6818,1
DA:6833,1
DA:6834,1
DA:6848,1
DA:6852,1
DA:6854,1
DA:6858,0
DA:6862,0
DA:6864,0
DA:6868,0
DA:6870,0
DA:6871,0
DA:6872,0
DA:6873,0
DA:6878,0
DA:6880,0
DA:6888,0
DA:6891,0
DA:6892,0
DA:6893,0
DA:6894,0
DA:6895,0
DA:6897,0
DA:6900,0
DA:6904,0
DA:6912,0
DA:6919,0
DA:6920,0
DA:6921,0
DA:6922,0
DA:6926,0
DA:6936,0
DA:6937,0
DA:6946,0
DA:6947,0
DA:6948,0
DA:6949,0
DA:6950,0
DA:6952,0
DA:6953,0
DA:6956,0
DA:6957,0
DA:6958,0
end_of_record
SF:/usr/include/c++/11/bits/unordered_map.h
FN:141,_ZNSt13unordered_mapINSt7__cxx1112basic_stringIcSt11char_traitsIcESaIcEEEmSt4hashIS5_ESt8equal_toIS5_ESaISt4pairIKS5_mEEEC2Ev
FNDA:1,_ZNSt13unordered_mapINSt7__cxx1112basic_stringIcSt11char_traitsIcESaIcEEEmSt4hashIS5_ESt8equal_toIS5_ESaISt4pairIKS5_mEEEC2Ev
FN:141,_ZNSt13unordered_mapINSt7__cxx1112basic_stringIcSt11char_traitsIcESaIcEEEPN7testing9TestSuiteESt4hashIS5_ESt8equal_toIS5_ESaISt4pairIKS5_S8_EEEC2Ev
FNDA:1,_ZNSt13unordered_mapINSt7__cxx1112basic_stringIcSt11char_traitsIcESaIcEEEPN7testing9TestSuiteESt4hashIS5_ESt8equal_toIS5_ESaISt4pairIKS5_S8_EEEC2Ev
FN:347,_ZNSt13unordered_mapINSt7__cxx1112basic_stringIcSt11char_traitsIcESaIcEEEPN7testing9TestSuiteESt4hashIS5_ESt8equal_toIS5_ESaISt4pairIKS5_S8_EEE3endEv
FNDA:2,_ZNSt13unordered_mapINSt7__cxx1112basic_stringIcSt11char_traitsIcESaIcEEEPN7testing9TestSuiteESt4hashIS5_ESt8equal_toIS5_ESaISt4pairIKS5_S8_EEE3endEv
FN:388,_ZNSt13unordered_mapINSt7__cxx1112basic_stringIcSt11char_traitsIcESaIcEEEPN7testing9TestSuiteESt4hashIS5_ESt8equal_toIS5_ESaISt4pairIKS5_S8_EEE7emplaceIJRSE_RKS8_EEESD_INSt8__detail14_Node_iteratorISF_Lb0ELb1EEEbEDpOT_
FNDA:2,_ZNSt13unordered_mapINSt7__cxx1112basic_stringIcSt11char_traitsIcESaIcEEEPN7testing9TestSuiteESt4hashIS5_ESt8equal_toIS5_ESaISt4pairIKS5_S8_EEE7emplaceIJRSE_RKS8_EEESD_INSt8__detail14_Node_iteratorISF_Lb0ELb1EEEbEDpOT_
FN:868,_ZNSt13unordered_mapINSt7__cxx1112basic_stringIcSt11char_traitsIcESaIcEEEPN7testing9TestSuiteESt4hashIS5_ESt8equal_toIS5_ESaISt4pairIKS5_S8_EEE4findERSE_
FNDA:2,_ZNSt13unordered_mapINSt7__cxx1112basic_stringIcSt11char_traitsIcESaIcEEEPN7testing9TestSuiteESt4hashIS5_ESt8equal_toIS5_ESaISt4pairIKS5_S8_EEE4findERSE_
DA:141,1
DA:141,1
DA:347,2
DA:348,2
DA:388,2
DA:389,2
DA:868,2
DA:869,2
end_of_record
SF:/usr/include/c++/11/bits/stl_construct.h
FN:109,_ZSt10_ConstructINSt7__cxx1112basic_stringIcSt11char_traitsIcESaIcEEEJRKPKcEEvPT_DpOT0_
FNDA:0,_ZSt10_ConstructINSt7__cxx1112basic_stringIcSt11char_traitsIcESaIcEEEJRKPKcEEvPT_DpOT0_
FN:109,_ZSt10_ConstructIN7testing8internal9TraceInfoEJS2_EEvPT_DpOT0_
FNDA:0,_ZSt10_ConstructIN7testing8internal9TraceInfoEJS2_EEvPT_DpOT0_
FN:109,_ZSt10_ConstructINSt7__cxx1112basic_stringIcSt11char_traitsIcESaIcEEEJRKS5_EEvPT_DpOT0_
FNDA:0,_ZSt10_ConstructINSt7__cxx1112basic_stringIcSt11char_traitsIcESaIcEEEJRKS5_EEvPT_DpOT0_
FN:109,_ZSt10_ConstructINSt7__cxx1112basic_stringIcSt11char_traitsIcESaIcEEEJS5_EEvPT_DpOT0_
FNDA:0,_ZSt10_ConstructINSt7__cxx1112basic_stringIcSt11char_traitsIcESaIcEEEJS5_EEvPT_DpOT0_
FN:109,_ZSt10_ConstructIdJEEvPT_DpOT0_
FNDA:0,_ZSt10_ConstructIdJEEvPT_DpOT0_
FN:109,_ZSt10_ConstructISt6vectorIdSaIdEEJRKS2_EEvPT_DpOT0_
FNDA:0,_ZSt10_ConstructISt6vectorIdSaIdEEJRKS2_EEvPT_DpOT0_
FN:109,_ZSt10_ConstructIN7testing8internal13edit_distance8EditTypeEJEEvPT_DpOT0_
FNDA:0,_ZSt10_ConstructIN7testing8internal13edit_distance8EditTypeEJEEvPT_DpOT0_
FN:109,_ZSt10_ConstructISt6vectorIN7testing8internal13edit_distance8EditTypeESaIS4_EEJRKS6_EEvPT_DpOT0_
FNDA:0,_ZSt10_ConstructISt6vectorIN7testing8internal13edit_distance8EditTypeESaIS4_EEJRKS6_EEvPT_DpOT0_
FN:109,_ZSt10_ConstructIN7testing14TestPartResultEJS1_EEvPT_DpOT0_
FNDA:0,_ZSt10_ConstructIN7testing14TestPartResultEJS1_EEvPT_DpOT0_
FN:109,_ZSt10_ConstructIN7testing12TestPropertyEJS1_EEvPT_DpOT0_
FNDA:0,_ZSt10_ConstructIN7testing12TestPropertyEJS1_EEvPT_DpOT0_
FN:146,_ZSt8_DestroyIN7testing8internal9TraceInfoEEvPT_
FNDA:0,_ZSt8_DestroyIN7testing8internal9TraceInfoEEvPT_
FN:146,_ZSt8_DestroyIN7testing12TestPropertyEEvPT_
FNDA:0,_ZSt8_DestroyIN7testing12TestPropertyEEvPT_
FN:146,_ZSt8_DestroyIN7testing14TestPartResultEEvPT_
FNDA:0,_ZSt8_DestroyIN7testing14TestPartResultEEvPT_
FN:146,_ZSt8_DestroyISt6vectorIN7testing8internal13edit_distance8EditTypeESaIS4_EEEvPT_
FNDA:0,_ZSt8_DestroyISt6vectorIN7testing8internal13edit_distance8EditTypeESaIS4_EEEvPT_
FN:146,_ZSt8_DestroyISt6vectorIdSaIdEEEvPT_
FNDA:0,_ZSt8_DestroyISt6vectorIdSaIdEEEvPT_
FN:146,_ZSt8_DestroyINSt7__cxx1112basic_stringIcSt11char_traitsIcESaIcEEEEvPT_
FNDA:0,_ZSt8_DestroyINSt7__cxx1112basic_stringIcSt11char_traitsIcESaIcEEEEvPT_
FN:160,_ZNSt12_Destroy_auxILb0EE9__destroyIPNSt7__cxx1112basic_stringIcSt11char_traitsIcESaIcEEEEEvT_S9_
FNDA:0,_ZNSt12_Destroy_auxILb0EE9__destroyIPNSt7__cxx1112basic_stringIcSt11char_traitsIcESaIcEEEEEvT_S9_
FN:160,_ZNSt12_Destroy_auxILb0EE9__destroyIPSt6vectorIdSaIdEEEEvT_S6_
FNDA:0,_ZNSt12_Destroy_auxILb0EE9__destroyIPSt6vectorIdSaIdEEEEvT_S6_
FN:160,_ZNSt12_Destroy_auxILb0EE9__destroyIPSt6vectorIN7testing8internal13edit_distance8EditTypeESaIS6_EEEEvT_SA_
FNDA:0,_ZNSt12_Destroy_auxILb0EE9__destroyIPSt6vectorIN7testing8internal13edit_distance8EditTypeESaIS6_EEEEvT_SA_
FN:160,_ZNSt12_Destroy_auxILb0EE9__destroyIPN7testing14TestPartResultEEEvT_S5_
FNDA:23,_ZNSt12_Destroy_auxILb0EE9__destroyIPN7testing14TestPartResultEEEvT_S5_
FN:160,_ZNSt12_Destroy_auxILb0EE9__destroyIPN7testing12TestPropertyEEEvT_S5_
FNDA:23,_ZNSt12_Destroy_auxILb0EE9__destroyIPN7testing12TestPropertyEEEvT_S5_
FN:160,_ZNSt12_Destroy_auxILb0EE9__destroyIPN7testing8internal9TraceInfoEEEvT_S6_
FNDA:0,_ZNSt12_Destroy_auxILb0EE9__destroyIPN7testing8internal9TraceInfoEEEvT_S6_
FN:172,_ZNSt12_Destroy_auxILb1EE9__destroyIPPN7testing8TestInfoEEEvT_S6_
FNDA:4,_ZNSt12_Destroy_auxILb1EE9__destroyIPPN7testing8TestInfoEEEvT_S6_
FN:172,_ZNSt12_Destroy_auxILb1EE9__destroyIPPN7testing8internal30ParameterizedTestSuiteInfoBaseEEEvT_S7_
FNDA:1,_ZNSt12_Destroy_auxILb1EE9__destroyIPPN7testing8internal30ParameterizedTestSuiteInfoBaseEEEvT_S7_
FN:172,_ZNSt12_Destroy_auxILb1EE9__destroyIPdEEvT_S3_
FNDA:0,_ZNSt12_Destroy_auxILb1EE9__destroyIPdEEvT_S3_
FN:172,_ZNSt12_Destroy_auxILb1EE9__destroyIPPN7testing9TestSuiteEEEvT_S6_
FNDA:1,_ZNSt12_Destroy_auxILb1EE9__destroyIPPN7testing9TestSuiteEEEvT_S6_
FN:172,_ZNSt12_Destroy_auxILb1EE9__destroyIPN7testing8internal13edit_distance8EditTypeEEEvT_S7_
FNDA:0,_ZNSt12_Destroy_auxILb1EE9__destroyIPN7testing8internal13edit_distance8EditTypeEEEvT_S7_
FN:172,_ZNSt12_Destroy_auxILb1EE9__destroyIPPN7testing11EnvironmentEEEvT_S6_
FNDA:1,_ZNSt12_Destroy_auxILb1EE9__destroyIPPN7testing11EnvironmentEEEvT_S6_
FN:172,_ZNSt12_Destroy_auxILb1EE9__destroyIPmEEvT_S3_
FNDA:0,_ZNSt12_Destroy_auxILb1EE9__destroyIPmEEvT_S3_
FN:172,_ZNSt12_Destroy_auxILb1EE9__destroyIPiEEvT_S3_
FNDA:3,_ZNSt12_Destroy_auxILb1EE9__destroyIPiEEvT_S3_
FN:172,_ZNSt12_Destroy_auxILb1EE9__destroyIPPN7testing17TestEventListenerEEEvT_S6_
FNDA:1,_ZNSt12_Destroy_auxILb1EE9__destroyIPPN7testing17TestEventListenerEEEvT_S6_
FN:182,_ZSt8_DestroyIPPN7testing8internal30ParameterizedTestSuiteInfoBaseEEvT_S5_
FNDA:1,_ZSt8_DestroyIPPN7testing8internal30ParameterizedTestSuiteInfoBaseEEvT_S5_
FN:182,_ZSt8_DestroyIPNSt7__cxx1112basic_stringIcSt11char_traitsIcESaIcEEEEvT_S7_
FNDA:0,_ZSt8_DestroyIPNSt7__cxx1112basic_stringIcSt11char_traitsIcESaIcEEEEvT_S7_
FN:182,_ZSt8_DestroyIPdEvT_S1_
FNDA:0,_ZSt8_DestroyIPdEvT_S1_
FN:182,_ZSt8_DestroyIPSt6vectorIdSaIdEEEvT_S4_
FNDA:0,_ZSt8_DestroyIPSt6vectorIdSaIdEEEvT_S4_
FN:182,_ZSt8_DestroyIPN7testing8internal13edit_distance8EditTypeEEvT_S5_
FNDA:0,_ZSt8_DestroyIPN7testing8internal13edit_distance8EditTypeEEvT_S5_
FN:182,_ZSt8_DestroyIPSt6vectorIN7testing8internal13edit_distance8EditTypeESaIS4_EEEvT_S8_
FNDA:0,_ZSt8_DestroyIPSt6vectorIN7testing8internal13edit_distance8EditTypeESaIS4_EEEvT_S8_
FN:182,_ZSt8_DestroyIPmEvT_S1_
FNDA:0,_ZSt8_DestroyIPmEvT_S1_
FN:182,_ZSt8_DestroyIPN7testing14TestPartResultEEvT_S3_
FNDA:23,_ZSt8_DestroyIPN7testing14TestPartResultEEvT_S3_
FN:182,_ZSt8_DestroyIPN7testing12TestPropertyEEvT_S3_
FNDA:23,_ZSt8_DestroyIPN7testing12TestPropertyEEvT_S3_
FN:182,_ZSt8_DestroyIPPN7testing8TestInfoEEvT_S4_
FNDA:4,_ZSt8_DestroyIPPN7testing8TestInfoEEvT_S4_
FN:182,_ZSt8_DestroyIPiEvT_S1_
FNDA:3,_ZSt8_DestroyIPiEvT_S1_
FN:182,_ZSt8_DestroyIPPN7testing17TestEventListenerEEvT_S4_
FNDA:1,_ZSt8_DestroyIPPN7testing17TestEventListenerEEvT_S4_
FN:182,_ZSt8_DestroyIPPN7testing11EnvironmentEEvT_S4_
FNDA:1,_ZSt8_DestroyIPPN7testing11EnvironmentEEvT_S4_
FN:182,_ZSt8_DestroyIPPN7testing9TestSuiteEEvT_S4_
FNDA:1,_ZSt8_DestroyIPPN7testing9TestSuiteEEvT_S4_
FN:182,_ZSt8_DestroyIPN7testing8internal9TraceInfoEEvT_S4_
FNDA:0,_ZSt8_DestroyIPN7testing8internal9TraceInfoEEvT_S4_
DA:109,0
DA:119,0
DA:120,0
DA:109,0
DA:119,0
DA:120,0
DA:109,0
DA:119,0
DA:120,0
DA:109,0
DA:119,0
DA:120,0
DA:109,0
DA:119,0
DA:120,0
DA:109,0
DA:119,0
DA:120,0
DA:109,0
DA:119,0
DA:120,0
DA:109,0
DA:119,0
DA:120,0
DA:109,0
DA:119,0
DA:120,0
DA:109,0
DA:119,0
DA:120,0
DA:146,0
DA:151,0
DA:153,0
DA:146,0
DA:151,0
DA:153,0
DA:146,0
DA:151,0
DA:153,0
DA:146,0
DA:151,0
DA:153,0
DA:146,0
DA:151,0
DA:153,0
DA:146,0
DA:151,0
DA:153,0
DA:160,0
DA:162,0
DA:163,0
DA:164,0
DA:160,23
DA:162,23
DA:163,0
DA:164,23
DA:160,23
DA:162,23
DA:163,0
DA:164,23
DA:160,0
DA:162,0
DA:163,0
DA:164,0
DA:160,0
DA:162,0
DA:163,0
DA:164,0
DA:160,0
DA:162,0
DA:163,0
DA:164,0
DA:172,1
DA:172,1
DA:172,1
DA:172,3
DA:172,4
DA:172,0
DA:172,0
DA:172,0
DA:172,1
DA:182,0
DA:196,0
DA:197,0
DA:182,1
DA:196,1
DA:197,1
DA:182,1
DA:196,1
DA:197,1
DA:182,1
DA:196,1
DA:197,1
DA:182,3
DA:196,3
DA:197,3
DA:182,4
DA:196,4
DA:197,4
DA:182,23
DA:196,23
DA:197,23
DA:182,23
DA:196,23
DA:197,23
DA:182,0
DA:196,0
DA:197,0
DA:182,0
DA:196,0
DA:197,0
DA:182,0
DA:196,0
DA:197,0
DA:182,0
DA:196,0
DA:197,0
DA:182,0
DA:196,0
DA:197,0
DA:182,0
DA:196,0
DA:197,0
DA:182,1
DA:196,1
DA:197,1
end_of_record
SF:/usr/include/c++/11/bits/stl_iterator_base_types.h
FN:238,_ZSt19__iterator_categoryIPN7testing8internal13edit_distance8EditTypeEENSt15iterator_traitsIT_E17iterator_categoryERKS6_
FNDA:0,_ZSt19__iterator_categoryIPN7testing8internal13edit_distance8EditTypeEENSt15iterator_traitsIT_E17iterator_categoryERKS6_
FN:238,_ZSt19__iterator_categoryIPdENSt15iterator_traitsIT_E17iterator_categoryERKS2_
FNDA:0,_ZSt19__iterator_categoryIPdENSt15iterator_traitsIT_E17iterator_categoryERKS2_
FN:238,_ZSt19__iterator_categoryIN9__gnu_cxx17__normal_iteratorIPPN7testing8TestInfoESt6vectorIS4_SaIS4_EEEEENSt15iterator_traitsIT_E17iterator_categoryERKSB_
FNDA:0,_ZSt19__iterator_categoryIN9__gnu_cxx17__normal_iteratorIPPN7testing8TestInfoESt6vectorIS4_SaIS4_EEEEENSt15iterator_traitsIT_E17iterator_categoryERKSB_
FN:238,_ZSt19__iterator_categoryIPcENSt15iterator_traitsIT_E17iterator_categoryERKS2_
FNDA:0,_ZSt19__iterator_categoryIPcENSt15iterator_traitsIT_E17iterator_categoryERKS2_
FN:238,_ZSt19__iterator_categoryIN9__gnu_cxx17__normal_iteratorIPKcNSt7__cxx1112basic_stringIcSt11char_traitsIcESaIcEEEEEENSt15iterator_traitsIT_E17iterator_categoryERKSC_
FNDA:7,_ZSt19__iterator_categoryIN9__gnu_cxx17__normal_iteratorIPKcNSt7__cxx1112basic_stringIcSt11char_traitsIcESaIcEEEEEENSt15iterator_traitsIT_E17iterator_categoryERKSC_
FN:238,_ZSt19__iterator_categoryIPKwENSt15iterator_traitsIT_E17iterator_categoryERKS3_
FNDA:0,_ZSt19__iterator_categoryIPKwENSt15iterator_traitsIT_E17iterator_categoryERKS3_
FN:238,_ZSt19__iterator_categoryIPKcENSt15iterator_traitsIT_E17iterator_categoryERKS3_
FNDA:83,_ZSt19__iterator_categoryIPKcENSt15iterator_traitsIT_E17iterator_categoryERKS3_
FN:238,_ZSt19__iterator_categoryIN9__gnu_cxx17__normal_iteratorIPKNSt7__cxx1112basic_stringIcSt11char_traitsIcESaIcEEESt6vectorIS7_SaIS7_EEEEENSt15iterator_traitsIT_E17iterator_categoryERKSF_
FNDA:0,_ZSt19__iterator_categoryIN9__gnu_cxx17__normal_iteratorIPKNSt7__cxx1112basic_stringIcSt11char_traitsIcESaIcEEESt6vectorIS7_SaIS7_EEEEENSt15iterator_traitsIT_E17iterator_categoryERKSF_
FN:238,_ZSt19__iterator_categoryIPKPKcENSt15iterator_traitsIT_E17iterator_categoryERKS5_
FNDA:0,_ZSt19__iterator_categoryIPKPKcENSt15iterator_traitsIT_E17iterator_categoryERKS5_
FN:238,_ZSt19__iterator_categoryIN9__gnu_cxx17__normal_iteratorIPN7testing12TestPropertyESt6vectorIS3_SaIS3_EEEEENSt15iterator_traitsIT_E17iterator_categoryERKSA_
FNDA:0,_ZSt19__iterator_categoryIN9__gnu_cxx17__normal_iteratorIPN7testing12TestPropertyESt6vectorIS3_SaIS3_EEEEENSt15iterator_traitsIT_E17iterator_categoryERKSA_
FN:238,_ZSt19__iterator_categoryIN9__gnu_cxx17__normal_iteratorIPN7testing8internal13edit_distance8EditTypeESt6vectorIS5_SaIS5_EEEEENSt15iterator_traitsIT_E17iterator_categoryERKSC_
FNDA:0,_ZSt19__iterator_categoryIN9__gnu_cxx17__normal_iteratorIPN7testing8internal13edit_distance8EditTypeESt6vectorIS5_SaIS5_EEEEENSt15iterator_traitsIT_E17iterator_categoryERKSC_
FN:238,_ZSt19__iterator_categoryIN9__gnu_cxx17__normal_iteratorIPNSt7__cxx1112basic_stringIcSt11char_traitsIcESaIcEEESt6vectorIS7_SaIS7_EEEEENSt15iterator_traitsIT_E17iterator_categoryERKSE_
FNDA:8,_ZSt19__iterator_categoryIN9__gnu_cxx17__normal_iteratorIPNSt7__cxx1112basic_stringIcSt11char_traitsIcESaIcEEESt6vectorIS7_SaIS7_EEEEENSt15iterator_traitsIT_E17iterator_categoryERKSE_
DA:238,0
DA:239,0
DA:238,0
DA:239,0
DA:238,0
DA:239,0
DA:238,0
DA:239,0
DA:238,7
DA:239,7
DA:238,0
DA:239,0
DA:238,83
DA:239,83
DA:238,0
DA:239,0
DA:238,0
DA:239,0
DA:238,0
DA:239,0
DA:238,0
DA:239,0
DA:238,8
DA:239,8
end_of_record
SF:/home/jlaustill/repo/sea-dash/.pio/libdeps/latest_stable/googletest/googletest/include/gtest/internal/gtest-param-util.h
FN:693,_ZN7testing8internal30ParameterizedTestSuiteRegistryC2Ev
FNDA:1,_ZN7testing8internal30ParameterizedTestSuiteRegistryC2Ev
FN:694,_ZN7testing8internal30ParameterizedTestSuiteRegistryD2Ev
FNDA:1,_ZN7testing8internal30ParameterizedTestSuiteRegistryD2Ev
FN:734,_ZN7testing8internal30ParameterizedTestSuiteRegistry13RegisterTestsEv
FNDA:1,_ZN7testing8internal30ParameterizedTestSuiteRegistry13RegisterTestsEv
FN:780,_ZN7testing8internal34TypeParameterizedTestSuiteRegistry30TypeParameterizedTestSuiteInfoC2ENS0_12CodeLocationE
FNDA:0,_ZN7testing8internal34TypeParameterizedTestSuiteRegistry30TypeParameterizedTestSuiteInfoC2ENS0_12CodeLocationE
DA:693,1
DA:694,1
DA:695,1
DA:696,0
DA:698,1
DA:734,1
DA:735,1
DA:736,0
DA:738,1
DA:780,0
DA:781,0
end_of_record
SF:/usr/include/c++/11/bits/hashtable.h
FN:297,_ZNSt10_HashtableINSt7__cxx1112basic_stringIcSt11char_traitsIcESaIcEEES5_SaIS5_ENSt8__detail9_IdentityESt8equal_toIS5_ESt4hashIS5_ENS7_18_Mod_range_hashingENS7_20_Default_ranged_hashENS7_20_Prime_rehash_policyENS7_17_Hashtable_traitsILb1ELb1ELb1EEEE12_Scoped_nodeC2EPNS7_10_Hash_nodeIS5_Lb1EEEPNS7_16_Hashtable_allocISaISL_EEE
FNDA:0,_ZNSt10_HashtableINSt7__cxx1112basic_stringIcSt11char_traitsIcESaIcEEES5_SaIS5_ENSt8__detail9_IdentityESt8equal_toIS5_ESt4hashIS5_ENS7_18_Mod_range_hashingENS7_20_Default_ranged_hashENS7_20_Prime_rehash_policyENS7_17_Hashtable_traitsILb1ELb1ELb1EEEE12_Scoped_nodeC2EPNS7_10_Hash_nodeIS5_Lb1EEEPNS7_16_Hashtable_allocISaISL_EEE
FN:302,_ZNSt10_HashtableINSt7__cxx1112basic_stringIcSt11char_traitsIcESaIcEEESt4pairIKS5_PN7testing9TestSuiteEESaISB_ENSt8__detail10_Select1stESt8equal_toIS5_ESt4hashIS5_ENSD_18_Mod_range_hashingENSD_20_Default_ranged_hashENSD_20_Prime_rehash_policyENSD_17_Hashtable_traitsILb1ELb0ELb1EEEE12_Scoped_nodeC2IJRS7_RKSA_EEEPNSD_16_Hashtable_allocISaINSD_10_Hash_nodeISB_Lb1EEEEEEDpOT_
FNDA:2,_ZNSt10_HashtableINSt7__cxx1112basic_stringIcSt11char_traitsIcESaIcEEESt4pairIKS5_PN7testing9TestSuiteEESaISB_ENSt8__detail10_Select1stESt8equal_toIS5_ESt4hashIS5_ENSD_18_Mod_range_hashingENSD_20_Default_ranged_hashENSD_20_Prime_rehash_policyENSD_17_Hashtable_traitsILb1ELb0ELb1EEEE12_Scoped_nodeC2IJRS7_RKSA_EEEPNSD_16_Hashtable_allocISaINSD_10_Hash_nodeISB_Lb1EEEEEEDpOT_
FN:308,_ZNSt10_HashtableINSt7__cxx1112basic_stringIcSt11char_traitsIcESaIcEEES5_SaIS5_ENSt8__detail9_IdentityESt8equal_toIS5_ESt4hashIS5_ENS7_18_Mod_range_hashingENS7_20_Default_ranged_hashENS7_20_Prime_rehash_policyENS7_17_Hashtable_traitsILb1ELb1ELb1EEEE12_Scoped_nodeD2Ev
FNDA:0,_ZNSt10_HashtableINSt7__cxx1112basic_stringIcSt11char_traitsIcESaIcEEES5_SaIS5_ENSt8__detail9_IdentityESt8equal_toIS5_ESt4hashIS5_ENS7_18_Mod_range_hashingENS7_20_Default_ranged_hashENS7_20_Prime_rehash_policyENS7_17_Hashtable_traitsILb1ELb1ELb1EEEE12_Scoped_nodeD2Ev
FN:308,_ZNSt10_HashtableINSt7__cxx1112basic_stringIcSt11char_traitsIcESaIcEEESt4pairIKS5_PN7testing9TestSuiteEESaISB_ENSt8__detail10_Select1stESt8equal_toIS5_ESt4hashIS5_ENSD_18_Mod_range_hashingENSD_20_Default_ranged_hashENSD_20_Prime_rehash_policyENSD_17_Hashtable_traitsILb1ELb0ELb1EEEE12_Scoped_nodeD2Ev
FNDA:2,_ZNSt10_HashtableINSt7__cxx1112basic_stringIcSt11char_traitsIcESaIcEEESt4pairIKS5_PN7testing9TestSuiteEESaISB_ENSt8__detail10_Select1stESt8equal_toIS5_ESt4hashIS5_ENSD_18_Mod_range_hashingENSD_20_Default_ranged_hashENSD_20_Prime_rehash_policyENSD_17_Hashtable_traitsILb1ELb0ELb1EEEE12_Scoped_nodeD2Ev
FN:407,_ZNSt10_HashtableINSt7__cxx1112basic_stringIcSt11char_traitsIcESaIcEEES5_SaIS5_ENSt8__detail9_IdentityESt8equal_toIS5_ESt4hashIS5_ENS7_18_Mod_range_hashingENS7_20_Default_ranged_hashENS7_20_Prime_rehash_policyENS7_17_Hashtable_traitsILb1ELb1ELb1EEEE16_M_update_bbeginEv
FNDA:1,_ZNSt10_HashtableINSt7__cxx1112basic_stringIcSt11char_traitsIcESaIcEEES5_SaIS5_ENSt8__detail9_IdentityESt8equal_toIS5_ESt4hashIS5_ENS7_18_Mod_range_hashingENS7_20_Default_ranged_hashENS7_20_Prime_rehash_policyENS7_17_Hashtable_traitsILb1ELb1ELb1EEEE16_M_update_bbeginEv
FN:421,_ZNKSt10_HashtableINSt7__cxx1112basic_stringIcSt11char_traitsIcESaIcEEESt4pairIKS5_mESaIS8_ENSt8__detail10_Select1stESt8equal_toIS5_ESt4hashIS5_ENSA_18_Mod_range_hashingENSA_20_Default_ranged_hashENSA_20_Prime_rehash_policyENSA_17_Hashtable_traitsILb1ELb0ELb1EEEE21_M_uses_single_bucketEPPNSA_15_Hash_node_baseE
FNDA:1,_ZNKSt10_HashtableINSt7__cxx1112basic_stringIcSt11char_traitsIcESaIcEEESt4pairIKS5_mESaIS8_ENSt8__detail10_Select1stESt8equal_toIS5_ESt4hashIS5_ENSA_18_Mod_range_hashingENSA_20_Default_ranged_hashENSA_20_Prime_rehash_policyENSA_17_Hashtable_traitsILb1ELb0ELb1EEEE21_M_uses_single_bucketEPPNSA_15_Hash_node_baseE
FN:421,_ZNKSt10_HashtableINSt7__cxx1112basic_stringIcSt11char_traitsIcESaIcEEES5_SaIS5_ENSt8__detail9_IdentityESt8equal_toIS5_ESt4hashIS5_ENS7_18_Mod_range_hashingENS7_20_Default_ranged_hashENS7_20_Prime_rehash_policyENS7_17_Hashtable_traitsILb1ELb1ELb1EEEE21_M_uses_single_bucketEPPNS7_15_Hash_node_baseE
FNDA:8,_ZNKSt10_HashtableINSt7__cxx1112basic_stringIcSt11char_traitsIcESaIcEEES5_SaIS5_ENSt8__detail9_IdentityESt8equal_toIS5_ESt4hashIS5_ENS7_18_Mod_range_hashingENS7_20_Default_ranged_hashENS7_20_Prime_rehash_policyENS7_17_Hashtable_traitsILb1ELb1ELb1EEEE21_M_uses_single_bucketEPPNS7_15_Hash_node_baseE
FN:421,_ZNKSt10_HashtableINSt7__cxx1112basic_stringIcSt11char_traitsIcESaIcEEESt4pairIKS5_PN7testing9TestSuiteEESaISB_ENSt8__detail10_Select1stESt8equal_toIS5_ESt4hashIS5_ENSD_18_Mod_range_hashingENSD_20_Default_ranged_hashENSD_20_Prime_rehash_policyENSD_17_Hashtable_traitsILb1ELb0ELb1EEEE21_M_uses_single_bucketEPPNSD_15_Hash_node_baseE
FNDA:2,_ZNKSt10_HashtableINSt7__cxx1112basic_stringIcSt11char_traitsIcESaIcEEESt4pairIKS5_PN7testing9TestSuiteEESaISB_ENSt8__detail10_Select1stESt8equal_toIS5_ESt4hashIS5_ENSD_18_Mod_range_hashingENSD_20_Default_ranged_hashENSD_20_Prime_rehash_policyENSD_17_Hashtable_traitsILb1ELb0ELb1EEEE21_M_uses_single_bucketEPPNSD_15_Hash_node_baseE
FN:425,_ZNKSt10_HashtableINSt7__cxx1112basic_stringIcSt11char_traitsIcESaIcEEES5_SaIS5_ENSt8__detail9_IdentityESt8equal_toIS5_ESt4hashIS5_ENS7_18_Mod_range_hashingENS7_20_Default_ranged_hashENS7_20_Prime_rehash_policyENS7_17_Hashtable_traitsILb1ELb1ELb1EEEE21_M_uses_single_bucketEv
FNDA:1,_ZNKSt10_HashtableINSt7__cxx1112basic_stringIcSt11char_traitsIcESaIcEEES5_SaIS5_ENSt8__detail9_IdentityESt8equal_toIS5_ESt4hashIS5_ENS7_18_Mod_range_hashingENS7_20_Default_ranged_hashENS7_20_Prime_rehash_policyENS7_17_Hashtable_traitsILb1ELb1ELb1EEEE21_M_uses_single_bucketEv
FN:432,_ZNSt10_HashtableINSt7__cxx1112basic_stringIcSt11char_traitsIcESaIcEEES5_SaIS5_ENSt8__detail9_IdentityESt8equal_toIS5_ESt4hashIS5_ENS7_18_Mod_range_hashingENS7_20_Default_ranged_hashENS7_20_Prime_rehash_policyENS7_17_Hashtable_traitsILb1ELb1ELb1EEEE19_M_allocate_bucketsEm
FNDA:0,_ZNSt10_HashtableINSt7__cxx1112basic_stringIcSt11char_traitsIcESaIcEEES5_SaIS5_ENSt8__detail9_IdentityESt8equal_toIS5_ESt4hashIS5_ENS7_18_Mod_range_hashingENS7_20_Default_ranged_hashENS7_20_Prime_rehash_policyENS7_17_Hashtable_traitsILb1ELb1ELb1EEEE19_M_allocate_bucketsEm
FN:432,_ZNSt10_HashtableINSt7__cxx1112basic_stringIcSt11char_traitsIcESaIcEEESt4pairIKS5_PN7testing9TestSuiteEESaISB_ENSt8__detail10_Select1stESt8equal_toIS5_ESt4hashIS5_ENSD_18_Mod_range_hashingENSD_20_Default_ranged_hashENSD_20_Prime_rehash_policyENSD_17_Hashtable_traitsILb1ELb0ELb1EEEE19_M_allocate_bucketsEm
FNDA:1,_ZNSt10_HashtableINSt7__cxx1112basic_stringIcSt11char_traitsIcESaIcEEESt4pairIKS5_PN7testing9TestSuiteEESaISB_ENSt8__detail10_Select1stESt8equal_toIS5_ESt4hashIS5_ENSD_18_Mod_range_hashingENSD_20_Default_ranged_hashENSD_20_Prime_rehash_policyENSD_17_Hashtable_traitsILb1ELb0ELb1EEEE19_M_allocate_bucketsEm
FN:444,_ZNSt10_HashtableINSt7__cxx1112basic_stringIcSt11char_traitsIcESaIcEEESt4pairIKS5_mESaIS8_ENSt8__detail10_Select1stESt8equal_toIS5_ESt4hashIS5_ENSA_18_Mod_range_hashingENSA_20_Default_ranged_hashENSA_20_Prime_rehash_policyENSA_17_Hashtable_traitsILb1ELb0ELb1EEEE21_M_deallocate_bucketsEPPNSA_15_Hash_node_baseEm
FNDA:1,_ZNSt10_HashtableINSt7__cxx1112basic_stringIcSt11char_traitsIcESaIcEEESt4pairIKS5_mESaIS8_ENSt8__detail10_Select1stESt8equal_toIS5_ESt4hashIS5_ENSA_18_Mod_range_hashingENSA_20_Default_ranged_hashENSA_20_Prime_rehash_policyENSA_17_Hashtable_traitsILb1ELb0ELb1EEEE21_M_deallocate_bucketsEPPNSA_15_Hash_node_baseEm
FN:444,_ZNSt10_HashtableINSt7__cxx1112basic_stringIcSt11char_traitsIcESaIcEEES5_SaIS5_ENSt8__detail9_IdentityESt8equal_toIS5_ESt4hashIS5_ENS7_18_Mod_range_hashingENS7_20_Default_ranged_hashENS7_20_Prime_rehash_policyENS7_17_Hashtable_traitsILb1ELb1ELb1EEEE21_M_deallocate_bucketsEPPNS7_15_Hash_node_baseEm
FNDA:7,_ZNSt10_HashtableINSt7__cxx1112basic_stringIcSt11char_traitsIcESaIcEEES5_SaIS5_ENSt8__detail9_IdentityESt8equal_toIS5_ESt4hashIS5_ENS7_18_Mod_range_hashingENS7_20_Default_ranged_hashENS7_20_Prime_rehash_policyENS7_17_Hashtable_traitsILb1ELb1ELb1EEEE21_M_deallocate_bucketsEPPNS7_15_Hash_node_baseEm
FN:444,_ZNSt10_HashtableINSt7__cxx1112basic_stringIcSt11char_traitsIcESaIcEEESt4pairIKS5_PN7testing9TestSuiteEESaISB_ENSt8__detail10_Select1stESt8equal_toIS5_ESt4hashIS5_ENSD_18_Mod_range_hashingENSD_20_Default_ranged_hashENSD_20_Prime_rehash_policyENSD_17_Hashtable_traitsILb1ELb0ELb1EEEE21_M_deallocate_bucketsEPPNSD_15_Hash_node_baseEm
FNDA:2,_ZNSt10_HashtableINSt7__cxx1112basic_stringIcSt11char_traitsIcESaIcEEESt4pairIKS5_PN7testing9TestSuiteEESaISB_ENSt8__detail10_Select1stESt8equal_toIS5_ESt4hashIS5_ENSD_18_Mod_range_hashingENSD_20_Default_ranged_hashENSD_20_Prime_rehash_policyENSD_17_Hashtable_traitsILb1ELb0ELb1EEEE21_M_deallocate_bucketsEPPNSD_15_Hash_node_baseEm
FN:453,_ZNSt10_HashtableINSt7__cxx1112basic_stringIcSt11char_traitsIcESaIcEEESt4pairIKS5_mESaIS8_ENSt8__detail10_Select1stESt8equal_toIS5_ESt4hashIS5_ENSA_18_Mod_range_hashingENSA_20_Default_ranged_hashENSA_20_Prime_rehash_policyENSA_17_Hashtable_traitsILb1ELb0ELb1EEEE21_M_deallocate_bucketsEv
FNDA:1,_ZNSt10_HashtableINSt7__cxx1112basic_stringIcSt11char_traitsIcESaIcEEESt4pairIKS5_mESaIS8_ENSt8__detail10_Select1stESt8equal_toIS5_ESt4hashIS5_ENSA_18_Mod_range_hashingENSA_20_Default_ranged_hashENSA_20_Prime_rehash_policyENSA_17_Hashtable_traitsILb1ELb0ELb1EEEE21_M_deallocate_bucketsEv
FN:453,_ZNSt10_HashtableINSt7__cxx1112basic_stringIcSt11char_traitsIcESaIcEEESt4pairIKS5_PN7testing9TestSuiteEESaISB_ENSt8__detail10_Select1stESt8equal_toIS5_ESt4hashIS5_ENSD_18_Mod_range_hashingENSD_20_Default_ranged_hashENSD_20_Prime_rehash_policyENSD_17_Hashtable_traitsILb1ELb0ELb1EEEE21_M_deallocate_bucketsEv
FNDA:2,_ZNSt10_HashtableINSt7__cxx1112basic_stringIcSt11char_traitsIcESaIcEEESt4pairIKS5_PN7testing9TestSuiteEESaISB_ENSt8__detail10_Select1stESt8equal_toIS5_ESt4hashIS5_ENSD_18_Mod_range_hashingENSD_20_Default_ranged_hashENSD_20_Prime_rehash_policyENSD_17_Hashtable_traitsILb1ELb0ELb1EEEE21_M_deallocate_bucketsEv
FN:453,_ZNSt10_HashtableINSt7__cxx1112basic_stringIcSt11char_traitsIcESaIcEEES5_SaIS5_ENSt8__detail9_IdentityESt8equal_toIS5_ESt4hashIS5_ENS7_18_Mod_range_hashingENS7_20_Default_ranged_hashENS7_20_Prime_rehash_policyENS7_17_Hashtable_traitsILb1ELb1ELb1EEEE21_M_deallocate_bucketsEv
FNDA:7,_ZNSt10_HashtableINSt7__cxx1112basic_stringIcSt11char_traitsIcESaIcEEES5_SaIS5_ENSt8__detail9_IdentityESt8equal_toIS5_ESt4hashIS5_ENS7_18_Mod_range_hashingENS7_20_Default_ranged_hashENS7_20_Prime_rehash_policyENS7_17_Hashtable_traitsILb1ELb1ELb1EEEE21_M_deallocate_bucketsEv
FN:462,_ZNKSt10_HashtableINSt7__cxx1112basic_stringIcSt11char_traitsIcESaIcEEESt4pairIKS5_PN7testing9TestSuiteEESaISB_ENSt8__detail10_Select1stESt8equal_toIS5_ESt4hashIS5_ENSD_18_Mod_range_hashingENSD_20_Default_ranged_hashENSD_20_Prime_rehash_policyENSD_17_Hashtable_traitsILb1ELb0ELb1EEEE8_M_beginEv
FNDA:2,_ZNKSt10_HashtableINSt7__cxx1112basic_stringIcSt11char_traitsIcESaIcEEESt4pairIKS5_PN7testing9TestSuiteEESaISB_ENSt8__detail10_Select1stESt8equal_toIS5_ESt4hashIS5_ENSD_18_Mod_range_hashingENSD_20_Default_ranged_hashENSD_20_Prime_rehash_policyENSD_17_Hashtable_traitsILb1ELb0ELb1EEEE8_M_beginEv
FN:462,_ZNKSt10_HashtableINSt7__cxx1112basic_stringIcSt11char_traitsIcESaIcEEES5_SaIS5_ENSt8__detail9_IdentityESt8equal_toIS5_ESt4hashIS5_ENS7_18_Mod_range_hashingENS7_20_Default_ranged_hashENS7_20_Prime_rehash_policyENS7_17_Hashtable_traitsILb1ELb1ELb1EEEE8_M_beginEv
FNDA:12,_ZNKSt10_HashtableINSt7__cxx1112basic_stringIcSt11char_traitsIcESaIcEEES5_SaIS5_ENSt8__detail9_IdentityESt8equal_toIS5_ESt4hashIS5_ENS7_18_Mod_range_hashingENS7_20_Default_ranged_hashENS7_20_Prime_rehash_policyENS7_17_Hashtable_traitsILb1ELb1ELb1EEEE8_M_beginEv
FN:462,_ZNKSt10_HashtableINSt7__cxx1112basic_stringIcSt11char_traitsIcESaIcEEESt4pairIKS5_mESaIS8_ENSt8__detail10_Select1stESt8equal_toIS5_ESt4hashIS5_ENSA_18_Mod_range_hashingENSA_20_Default_ranged_hashENSA_20_Prime_rehash_policyENSA_17_Hashtable_traitsILb1ELb0ELb1EEEE8_M_beginEv
FNDA:1,_ZNKSt10_HashtableINSt7__cxx1112basic_stringIcSt11char_traitsIcESaIcEEESt4pairIKS5_mESaIS8_ENSt8__detail10_Select1stESt8equal_toIS5_ESt4hashIS5_ENSA_18_Mod_range_hashingENSA_20_Default_ranged_hashENSA_20_Prime_rehash_policyENSA_17_Hashtable_traitsILb1ELb0ELb1EEEE8_M_beginEv
FN:528,_ZNSt10_HashtableINSt7__cxx1112basic_stringIcSt11char_traitsIcESaIcEEES5_SaIS5_ENSt8__detail9_IdentityESt8equal_toIS5_ESt4hashIS5_ENS7_18_Mod_range_hashingENS7_20_Default_ranged_hashENS7_20_Prime_rehash_policyENS7_17_Hashtable_traitsILb1ELb1ELb1EEEEC2Ev
FNDA:6,_ZNSt10_HashtableINSt7__cxx1112basic_stringIcSt11char_traitsIcESaIcEEES5_SaIS5_ENSt8__detail9_IdentityESt8equal_toIS5_ESt4hashIS5_ENS7_18_Mod_range_hashingENS7_20_Default_ranged_hashENS7_20_Prime_rehash_policyENS7_17_Hashtable_traitsILb1ELb1ELb1EEEEC2Ev
FN:528,_ZNSt10_HashtableINSt7__cxx1112basic_stringIcSt11char_traitsIcESaIcEEESt4pairIKS5_PN7testing9TestSuiteEESaISB_ENSt8__detail10_Select1stESt8equal_toIS5_ESt4hashIS5_ENSD_18_Mod_range_hashingENSD_20_Default_ranged_hashENSD_20_Prime_rehash_policyENSD_17_Hashtable_traitsILb1ELb0ELb1EEEEC2Ev
FNDA:1,_ZNSt10_HashtableINSt7__cxx1112basic_stringIcSt11char_traitsIcESaIcEEESt4pairIKS5_PN7testing9TestSuiteEESaISB_ENSt8__detail10_Select1stESt8equal_toIS5_ESt4hashIS5_ENSD_18_Mod_range_hashingENSD_20_Default_ranged_hashENSD_20_Prime_rehash_policyENSD_17_Hashtable_traitsILb1ELb0ELb1EEEEC2Ev
FN:528,_ZNSt10_HashtableINSt7__cxx1112basic_stringIcSt11char_traitsIcESaIcEEESt4pairIKS5_mESaIS8_ENSt8__detail10_Select1stESt8equal_toIS5_ESt4hashIS5_ENSA_18_Mod_range_hashingENSA_20_Default_ranged_hashENSA_20_Prime_rehash_policyENSA_17_Hashtable_traitsILb1ELb0ELb1EEEEC2Ev
FNDA:1,_ZNSt10_HashtableINSt7__cxx1112basic_stringIcSt11char_traitsIcESaIcEEESt4pairIKS5_mESaIS8_ENSt8__detail10_Select1stESt8equal_toIS5_ESt4hashIS5_ENSA_18_Mod_range_hashingENSA_20_Default_ranged_hashENSA_20_Prime_rehash_policyENSA_17_Hashtable_traitsILb1ELb0ELb1EEEEC2Ev
FN:582,_ZNSt10_HashtableINSt7__cxx1112basic_stringIcSt11char_traitsIcESaIcEEES5_SaIS5_ENSt8__detail9_IdentityESt8equal_toIS5_ESt4hashIS5_ENS7_18_Mod_range_hashingENS7_20_Default_ranged_hashENS7_20_Prime_rehash_policyENS7_17_Hashtable_traitsILb1ELb1ELb1EEEEaSEOSI_
FNDA:1,_ZNSt10_HashtableINSt7__cxx1112basic_stringIcSt11char_traitsIcESaIcEEES5_SaIS5_ENSt8__detail9_IdentityESt8equal_toIS5_ESt4hashIS5_ENS7_18_Mod_range_hashingENS7_20_Default_ranged_hashENS7_20_Prime_rehash_policyENS7_17_Hashtable_traitsILb1ELb1ELb1EEEEaSEOSI_
FN:621,_ZNSt10_HashtableINSt7__cxx1112basic_stringIcSt11char_traitsIcESaIcEEES5_SaIS5_ENSt8__detail9_IdentityESt8equal_toIS5_ESt4hashIS5_ENS7_18_Mod_range_hashingENS7_20_Default_ranged_hashENS7_20_Prime_rehash_policyENS7_17_Hashtable_traitsILb1ELb1ELb1EEEE5beginEv
FNDA:4,_ZNSt10_HashtableINSt7__cxx1112basic_stringIcSt11char_traitsIcESaIcEEES5_SaIS5_ENSt8__detail9_IdentityESt8equal_toIS5_ESt4hashIS5_ENS7_18_Mod_range_hashingENS7_20_Default_ranged_hashENS7_20_Prime_rehash_policyENS7_17_Hashtable_traitsILb1ELb1ELb1EEEE5beginEv
FN:629,_ZNSt10_HashtableINSt7__cxx1112basic_stringIcSt11char_traitsIcESaIcEEESt4pairIKS5_PN7testing9TestSuiteEESaISB_ENSt8__detail10_Select1stESt8equal_toIS5_ESt4hashIS5_ENSD_18_Mod_range_hashingENSD_20_Default_ranged_hashENSD_20_Prime_rehash_policyENSD_17_Hashtable_traitsILb1ELb0ELb1EEEE3endEv
FNDA:2,_ZNSt10_HashtableINSt7__cxx1112basic_stringIcSt11char_traitsIcESaIcEEESt4pairIKS5_PN7testing9TestSuiteEESaISB_ENSt8__detail10_Select1stESt8equal_toIS5_ESt4hashIS5_ENSD_18_Mod_range_hashingENSD_20_Default_ranged_hashENSD_20_Prime_rehash_policyENSD_17_Hashtable_traitsILb1ELb0ELb1EEEE3endEv
FN:633,_ZNKSt10_HashtableINSt7__cxx1112basic_stringIcSt11char_traitsIcESaIcEEES5_SaIS5_ENSt8__detail9_IdentityESt8equal_toIS5_ESt4hashIS5_ENS7_18_Mod_range_hashingENS7_20_Default_ranged_hashENS7_20_Prime_rehash_policyENS7_17_Hashtable_traitsILb1ELb1ELb1EEEE3endEv
FNDA:82,_ZNKSt10_HashtableINSt7__cxx1112basic_stringIcSt11char_traitsIcESaIcEEES5_SaIS5_ENSt8__detail9_IdentityESt8equal_toIS5_ESt4hashIS5_ENS7_18_Mod_range_hashingENS7_20_Default_ranged_hashENS7_20_Prime_rehash_policyENS7_17_Hashtable_traitsILb1ELb1ELb1EEEE3endEv
FN:790,_ZNKSt10_HashtableINSt7__cxx1112basic_stringIcSt11char_traitsIcESaIcEEES5_SaIS5_ENSt8__detail9_IdentityESt8equal_toIS5_ESt4hashIS5_ENS7_18_Mod_range_hashingENS7_20_Default_ranged_hashENS7_20_Prime_rehash_policyENS7_17_Hashtable_traitsILb1ELb1ELb1EEEE15_M_bucket_indexERKNS7_16_Hash_node_valueIS5_Lb1EEE
FNDA:0,_ZNKSt10_HashtableINSt7__cxx1112basic_stringIcSt11char_traitsIcESaIcEEES5_SaIS5_ENSt8__detail9_IdentityESt8equal_toIS5_ESt4hashIS5_ENS7_18_Mod_range_hashingENS7_20_Default_ranged_hashENS7_20_Prime_rehash_policyENS7_17_Hashtable_traitsILb1ELb1ELb1EEEE15_M_bucket_indexERKNS7_16_Hash_node_valueIS5_Lb1EEE
FN:790,_ZNKSt10_HashtableINSt7__cxx1112basic_stringIcSt11char_traitsIcESaIcEEESt4pairIKS5_PN7testing9TestSuiteEESaISB_ENSt8__detail10_Select1stESt8equal_toIS5_ESt4hashIS5_ENSD_18_Mod_range_hashingENSD_20_Default_ranged_hashENSD_20_Prime_rehash_policyENSD_17_Hashtable_traitsILb1ELb0ELb1EEEE15_M_bucket_indexERKNSD_16_Hash_node_valueISB_Lb1EEE
FNDA:1,_ZNKSt10_HashtableINSt7__cxx1112basic_stringIcSt11char_traitsIcESaIcEEESt4pairIKS5_PN7testing9TestSuiteEESaISB_ENSt8__detail10_Select1stESt8equal_toIS5_ESt4hashIS5_ENSD_18_Mod_range_hashingENSD_20_Default_ranged_hashENSD_20_Prime_rehash_policyENSD_17_Hashtable_traitsILb1ELb0ELb1EEEE15_M_bucket_indexERKNSD_16_Hash_node_valueISB_Lb1EEE
FN:794,_ZNKSt10_HashtableINSt7__cxx1112basic_stringIcSt11char_traitsIcESaIcEEESt4pairIKS5_PN7testing9TestSuiteEESaISB_ENSt8__detail10_Select1stESt8equal_toIS5_ESt4hashIS5_ENSD_18_Mod_range_hashingENSD_20_Default_ranged_hashENSD_20_Prime_rehash_policyENSD_17_Hashtable_traitsILb1ELb0ELb1EEEE15_M_bucket_indexEm
FNDA:5,_ZNKSt10_HashtableINSt7__cxx1112basic_stringIcSt11char_traitsIcESaIcEEESt4pairIKS5_PN7testing9TestSuiteEESaISB_ENSt8__detail10_Select1stESt8equal_toIS5_ESt4hashIS5_ENSD_18_Mod_range_hashingENSD_20_Default_ranged_hashENSD_20_Prime_rehash_policyENSD_17_Hashtable_traitsILb1ELb0ELb1EEEE15_M_bucket_indexEm
FN:794,_ZNKSt10_HashtableINSt7__cxx1112basic_stringIcSt11char_traitsIcESaIcEEES5_SaIS5_ENSt8__detail9_IdentityESt8equal_toIS5_ESt4hashIS5_ENS7_18_Mod_range_hashingENS7_20_Default_ranged_hashENS7_20_Prime_rehash_policyENS7_17_Hashtable_traitsILb1ELb1ELb1EEEE15_M_bucket_indexEm
FNDA:82,_ZNKSt10_HashtableINSt7__cxx1112basic_stringIcSt11char_traitsIcESaIcEEES5_SaIS5_ENSt8__detail9_IdentityESt8equal_toIS5_ESt4hashIS5_ENS7_18_Mod_range_hashingENS7_20_Default_ranged_hashENS7_20_Prime_rehash_policyENS7_17_Hashtable_traitsILb1ELb1ELb1EEEE15_M_bucket_indexEm
FN:807,_ZNKSt10_HashtableINSt7__cxx1112basic_stringIcSt11char_traitsIcESaIcEEES5_SaIS5_ENSt8__detail9_IdentityESt8equal_toIS5_ESt4hashIS5_ENS7_18_Mod_range_hashingENS7_20_Default_ranged_hashENS7_20_Prime_rehash_policyENS7_17_Hashtable_traitsILb1ELb1ELb1EEEE12_M_find_nodeEmRKS5_m
FNDA:82,_ZNKSt10_HashtableINSt7__cxx1112basic_stringIcSt11char_traitsIcESaIcEEES5_SaIS5_ENSt8__detail9_IdentityESt8equal_toIS5_ESt4hashIS5_ENS7_18_Mod_range_hashingENS7_20_Default_ranged_hashENS7_20_Prime_rehash_policyENS7_17_Hashtable_traitsILb1ELb1ELb1EEEE12_M_find_nodeEmRKS5_m
FN:807,_ZNKSt10_HashtableINSt7__cxx1112basic_stringIcSt11char_traitsIcESaIcEEESt4pairIKS5_PN7testing9TestSuiteEESaISB_ENSt8__detail10_Select1stESt8equal_toIS5_ESt4hashIS5_ENSD_18_Mod_range_hashingENSD_20_Default_ranged_hashENSD_20_Prime_rehash_policyENSD_17_Hashtable_traitsILb1ELb0ELb1EEEE12_M_find_nodeEmRS7_m
FNDA:4,_ZNKSt10_HashtableINSt7__cxx1112basic_stringIcSt11char_traitsIcESaIcEEESt4pairIKS5_PN7testing9TestSuiteEESaISB_ENSt8__detail10_Select1stESt8equal_toIS5_ESt4hashIS5_ENSD_18_Mod_range_hashingENSD_20_Default_ranged_hashENSD_20_Prime_rehash_policyENSD_17_Hashtable_traitsILb1ELb0ELb1EEEE12_M_find_nodeEmRS7_m
FN:888,_ZNSt10_HashtableINSt7__cxx1112basic_stringIcSt11char_traitsIcESaIcEEES5_SaIS5_ENSt8__detail9_IdentityESt8equal_toIS5_ESt4hashIS5_ENS7_18_Mod_range_hashingENS7_20_Default_ranged_hashENS7_20_Prime_rehash_policyENS7_17_Hashtable_traitsILb1ELb1ELb1EEEE9_M_insertIS5_NS7_10_AllocNodeISaINS7_10_Hash_nodeIS5_Lb1EEEEEEEENS7_14_Node_iteratorIS5_Lb1ELb1EEENS7_20_Node_const_iteratorIS5_Lb1ELb1EEEOT_RKT0_St17integral_constantIbLb1EE
FNDA:0,_ZNSt10_HashtableINSt7__cxx1112basic_stringIcSt11char_traitsIcESaIcEEES5_SaIS5_ENSt8__detail9_IdentityESt8equal_toIS5_ESt4hashIS5_ENS7_18_Mod_range_hashingENS7_20_Default_ranged_hashENS7_20_Prime_rehash_policyENS7_17_Hashtable_traitsILb1ELb1ELb1EEEE9_M_insertIS5_NS7_10_AllocNodeISaINS7_10_Hash_nodeIS5_Lb1EEEEEEEENS7_14_Node_iteratorIS5_Lb1ELb1EEENS7_20_Node_const_iteratorIS5_Lb1ELb1EEEOT_RKT0_St17integral_constantIbLb1EE
FN:914,_ZNSt10_HashtableINSt7__cxx1112basic_stringIcSt11char_traitsIcESaIcEEESt4pairIKS5_PN7testing9TestSuiteEESaISB_ENSt8__detail10_Select1stESt8equal_toIS5_ESt4hashIS5_ENSD_18_Mod_range_hashingENSD_20_Default_ranged_hashENSD_20_Prime_rehash_policyENSD_17_Hashtable_traitsILb1ELb0ELb1EEEE7emplaceIJRS7_RKSA_EEES6_INSD_14_Node_iteratorISB_Lb0ELb1EEEbEDpOT_
FNDA:2,_ZNSt10_HashtableINSt7__cxx1112basic_stringIcSt11char_traitsIcESaIcEEESt4pairIKS5_PN7testing9TestSuiteEESaISB_ENSt8__detail10_Select1stESt8equal_toIS5_ESt4hashIS5_ENSD_18_Mod_range_hashingENSD_20_Default_ranged_hashENSD_20_Prime_rehash_policyENSD_17_Hashtable_traitsILb1ELb0ELb1EEEE7emplaceIJRS7_RKSA_EEES6_INSD_14_Node_iteratorISB_Lb0ELb1EEEbEDpOT_
FN:1337,_ZNSt10_HashtableINSt7__cxx1112basic_stringIcSt11char_traitsIcESaIcEEES5_SaIS5_ENSt8__detail9_IdentityESt8equal_toIS5_ESt4hashIS5_ENS7_18_Mod_range_hashingENS7_20_Default_ranged_hashENS7_20_Prime_rehash_policyENS7_17_Hashtable_traitsILb1ELb1ELb1EEEE8_M_resetEv
FNDA:1,_ZNSt10_HashtableINSt7__cxx1112basic_stringIcSt11char_traitsIcESaIcEEES5_SaIS5_ENSt8__detail9_IdentityESt8equal_toIS5_ESt4hashIS5_ENS7_18_Mod_range_hashingENS7_20_Default_ranged_hashENS7_20_Prime_rehash_policyENS7_17_Hashtable_traitsILb1ELb1ELb1EEEE8_M_resetEv
FN:1354,_ZNSt10_HashtableINSt7__cxx1112basic_stringIcSt11char_traitsIcESaIcEEES5_SaIS5_ENSt8__detail9_IdentityESt8equal_toIS5_ESt4hashIS5_ENS7_18_Mod_range_hashingENS7_20_Default_ranged_hashENS7_20_Prime_rehash_policyENS7_17_Hashtable_traitsILb1ELb1ELb1EEEE14_M_move_assignEOSI_St17integral_constantIbLb1EE
FNDA:1,_ZNSt10_HashtableINSt7__cxx1112basic_stringIcSt11char_traitsIcESaIcEEES5_SaIS5_ENSt8__detail9_IdentityESt8equal_toIS5_ESt4hashIS5_ENS7_18_Mod_range_hashingENS7_20_Default_ranged_hashENS7_20_Prime_rehash_policyENS7_17_Hashtable_traitsILb1ELb1ELb1EEEE14_M_move_assignEOSI_St17integral_constantIbLb1EE
FN:1528,_ZNSt10_HashtableINSt7__cxx1112basic_stringIcSt11char_traitsIcESaIcEEESt4pairIKS5_mESaIS8_ENSt8__detail10_Select1stESt8equal_toIS5_ESt4hashIS5_ENSA_18_Mod_range_hashingENSA_20_Default_ranged_hashENSA_20_Prime_rehash_policyENSA_17_Hashtable_traitsILb1ELb0ELb1EEEED2Ev
FNDA:1,_ZNSt10_HashtableINSt7__cxx1112basic_stringIcSt11char_traitsIcESaIcEEESt4pairIKS5_mESaIS8_ENSt8__detail10_Select1stESt8equal_toIS5_ESt4hashIS5_ENSA_18_Mod_range_hashingENSA_20_Default_ranged_hashENSA_20_Prime_rehash_policyENSA_17_Hashtable_traitsILb1ELb0ELb1EEEED2Ev
FN:1528,_ZNSt10_HashtableINSt7__cxx1112basic_stringIcSt11char_traitsIcESaIcEEES5_SaIS5_ENSt8__detail9_IdentityESt8equal_toIS5_ESt4hashIS5_ENS7_18_Mod_range_hashingENS7_20_Default_ranged_hashENS7_20_Prime_rehash_policyENS7_17_Hashtable_traitsILb1ELb1ELb1EEEED2Ev
FNDA:6,_ZNSt10_HashtableINSt7__cxx1112basic_stringIcSt11char_traitsIcESaIcEEES5_SaIS5_ENSt8__detail9_IdentityESt8equal_toIS5_ESt4hashIS5_ENS7_18_Mod_range_hashingENS7_20_Default_ranged_hashENS7_20_Prime_rehash_policyENS7_17_Hashtable_traitsILb1ELb1ELb1EEEED2Ev
FN:1528,_ZNSt10_HashtableINSt7__cxx1112basic_stringIcSt11char_traitsIcESaIcEEESt4pairIKS5_PN7testing9TestSuiteEESaISB_ENSt8__detail10_Select1stESt8equal_toIS5_ESt4hashIS5_ENSD_18_Mod_range_hashingENSD_20_Default_ranged_hashENSD_20_Prime_rehash_policyENSD_17_Hashtable_traitsILb1ELb0ELb1EEEED2Ev
FNDA:1,_ZNSt10_HashtableINSt7__cxx1112basic_stringIcSt11char_traitsIcESaIcEEESt4pairIKS5_PN7testing9TestSuiteEESaISB_ENSt8__detail10_Select1stESt8equal_toIS5_ESt4hashIS5_ENSD_18_Mod_range_hashingENSD_20_Default_ranged_hashENSD_20_Prime_rehash_policyENSD_17_Hashtable_traitsILb1ELb0ELb1EEEED2Ev
FN:1588,_ZNSt10_HashtableINSt7__cxx1112basic_stringIcSt11char_traitsIcESaIcEEESt4pairIKS5_PN7testing9TestSuiteEESaISB_ENSt8__detail10_Select1stESt8equal_toIS5_ESt4hashIS5_ENSD_18_Mod_range_hashingENSD_20_Default_ranged_hashENSD_20_Prime_rehash_policyENSD_17_Hashtable_traitsILb1ELb0ELb1EEEE4findERS7_
FNDA:2,_ZNSt10_HashtableINSt7__cxx1112basic_stringIcSt11char_traitsIcESaIcEEESt4pairIKS5_PN7testing9TestSuiteEESaISB_ENSt8__detail10_Select1stESt8equal_toIS5_ESt4hashIS5_ENSD_18_Mod_range_hashingENSD_20_Default_ranged_hashENSD_20_Prime_rehash_policyENSD_17_Hashtable_traitsILb1ELb0ELb1EEEE4findERS7_
FN:1603,_ZNKSt10_HashtableINSt7__cxx1112basic_stringIcSt11char_traitsIcESaIcEEES5_SaIS5_ENSt8__detail9_IdentityESt8equal_toIS5_ESt4hashIS5_ENS7_18_Mod_range_hashingENS7_20_Default_ranged_hashENS7_20_Prime_rehash_policyENS7_17_Hashtable_traitsILb1ELb1ELb1EEEE4findERKS5_
FNDA:82,_ZNKSt10_HashtableINSt7__cxx1112basic_stringIcSt11char_traitsIcESaIcEEES5_SaIS5_ENSt8__detail9_IdentityESt8equal_toIS5_ESt4hashIS5_ENS7_18_Mod_range_hashingENS7_20_Default_ranged_hashENS7_20_Prime_rehash_policyENS7_17_Hashtable_traitsILb1ELb1ELb1EEEE4findERKS5_
FN:1827,_ZNKSt10_HashtableINSt7__cxx1112basic_stringIcSt11char_traitsIcESaIcEEES5_SaIS5_ENSt8__detail9_IdentityESt8equal_toIS5_ESt4hashIS5_ENS7_18_Mod_range_hashingENS7_20_Default_ranged_hashENS7_20_Prime_rehash_policyENS7_17_Hashtable_traitsILb1ELb1ELb1EEEE19_M_find_before_nodeEmRKS5_m
FNDA:82,_ZNKSt10_HashtableINSt7__cxx1112basic_stringIcSt11char_traitsIcESaIcEEES5_SaIS5_ENSt8__detail9_IdentityESt8equal_toIS5_ESt4hashIS5_ENS7_18_Mod_range_hashingENS7_20_Default_ranged_hashENS7_20_Prime_rehash_policyENS7_17_Hashtable_traitsILb1ELb1ELb1EEEE19_M_find_before_nodeEmRKS5_m
FN:1827,_ZNKSt10_HashtableINSt7__cxx1112basic_stringIcSt11char_traitsIcESaIcEEESt4pairIKS5_PN7testing9TestSuiteEESaISB_ENSt8__detail10_Select1stESt8equal_toIS5_ESt4hashIS5_ENSD_18_Mod_range_hashingENSD_20_Default_ranged_hashENSD_20_Prime_rehash_policyENSD_17_Hashtable_traitsILb1ELb0ELb1EEEE19_M_find_before_nodeEmRS7_m
FNDA:4,_ZNKSt10_HashtableINSt7__cxx1112basic_stringIcSt11char_traitsIcESaIcEEESt4pairIKS5_PN7testing9TestSuiteEESaISB_ENSt8__detail10_Select1stESt8equal_toIS5_ESt4hashIS5_ENSD_18_Mod_range_hashingENSD_20_Default_ranged_hashENSD_20_Prime_rehash_policyENSD_17_Hashtable_traitsILb1ELb0ELb1EEEE19_M_find_before_nodeEmRS7_m
FN:1886,_ZNSt10_HashtableINSt7__cxx1112basic_stringIcSt11char_traitsIcESaIcEEES5_SaIS5_ENSt8__detail9_IdentityESt8equal_toIS5_ESt4hashIS5_ENS7_18_Mod_range_hashingENS7_20_Default_ranged_hashENS7_20_Prime_rehash_policyENS7_17_Hashtable_traitsILb1ELb1ELb1EEEE22_M_insert_bucket_beginEmPNS7_10_Hash_nodeIS5_Lb1EEE
FNDA:0,_ZNSt10_HashtableINSt7__cxx1112basic_stringIcSt11char_traitsIcESaIcEEES5_SaIS5_ENSt8__detail9_IdentityESt8equal_toIS5_ESt4hashIS5_ENS7_18_Mod_range_hashingENS7_20_Default_ranged_hashENS7_20_Prime_rehash_policyENS7_17_Hashtable_traitsILb1ELb1ELb1EEEE22_M_insert_bucket_beginEmPNS7_10_Hash_nodeIS5_Lb1EEE
FN:1886,_ZNSt10_HashtableINSt7__cxx1112basic_stringIcSt11char_traitsIcESaIcEEESt4pairIKS5_PN7testing9TestSuiteEESaISB_ENSt8__detail10_Select1stESt8equal_toIS5_ESt4hashIS5_ENSD_18_Mod_range_hashingENSD_20_Default_ranged_hashENSD_20_Prime_rehash_policyENSD_17_Hashtable_traitsILb1ELb0ELb1EEEE22_M_insert_bucket_beginEmPNSD_10_Hash_nodeISB_Lb1EEE
FNDA:2,_ZNSt10_HashtableINSt7__cxx1112basic_stringIcSt11char_traitsIcESaIcEEESt4pairIKS5_PN7testing9TestSuiteEESaISB_ENSt8__detail10_Select1stESt8equal_toIS5_ESt4hashIS5_ENSD_18_Mod_range_hashingENSD_20_Default_ranged_hashENSD_20_Prime_rehash_policyENSD_17_Hashtable_traitsILb1ELb0ELb1EEEE22_M_insert_bucket_beginEmPNSD_10_Hash_nodeISB_Lb1EEE
FN:1960,_ZNSt10_HashtableINSt7__cxx1112basic_stringIcSt11char_traitsIcESaIcEEESt4pairIKS5_PN7testing9TestSuiteEESaISB_ENSt8__detail10_Select1stESt8equal_toIS5_ESt4hashIS5_ENSD_18_Mod_range_hashingENSD_20_Default_ranged_hashENSD_20_Prime_rehash_policyENSD_17_Hashtable_traitsILb1ELb0ELb1EEEE10_M_emplaceIJRS7_RKSA_EEES6_INSD_14_Node_iteratorISB_Lb0ELb1EEEbESt17integral_constantIbLb1EEDpOT_
FNDA:2,_ZNSt10_HashtableINSt7__cxx1112basic_stringIcSt11char_traitsIcESaIcEEESt4pairIKS5_PN7testing9TestSuiteEESaISB_ENSt8__detail10_Select1stESt8equal_toIS5_ESt4hashIS5_ENSD_18_Mod_range_hashingENSD_20_Default_ranged_hashENSD_20_Prime_rehash_policyENSD_17_Hashtable_traitsILb1ELb0ELb1EEEE10_M_emplaceIJRS7_RKSA_EEES6_INSD_14_Node_iteratorISB_Lb0ELb1EEEbESt17integral_constantIbLb1EEDpOT_
FN:2008,_ZNSt10_HashtableINSt7__cxx1112basic_stringIcSt11char_traitsIcESaIcEEES5_SaIS5_ENSt8__detail9_IdentityESt8equal_toIS5_ESt4hashIS5_ENS7_18_Mod_range_hashingENS7_20_Default_ranged_hashENS7_20_Prime_rehash_policyENS7_17_Hashtable_traitsILb1ELb1ELb1EEEE21_M_insert_unique_nodeEmmPNS7_10_Hash_nodeIS5_Lb1EEEm
FNDA:0,_ZNSt10_HashtableINSt7__cxx1112basic_stringIcSt11char_traitsIcESaIcEEES5_SaIS5_ENSt8__detail9_IdentityESt8equal_toIS5_ESt4hashIS5_ENS7_18_Mod_range_hashingENS7_20_Default_ranged_hashENS7_20_Prime_rehash_policyENS7_17_Hashtable_traitsILb1ELb1ELb1EEEE21_M_insert_unique_nodeEmmPNS7_10_Hash_nodeIS5_Lb1EEEm
FN:2008,_ZNSt10_HashtableINSt7__cxx1112basic_stringIcSt11char_traitsIcESaIcEEESt4pairIKS5_PN7testing9TestSuiteEESaISB_ENSt8__detail10_Select1stESt8equal_toIS5_ESt4hashIS5_ENSD_18_Mod_range_hashingENSD_20_Default_ranged_hashENSD_20_Prime_rehash_policyENSD_17_Hashtable_traitsILb1ELb0ELb1EEEE21_M_insert_unique_nodeEmmPNSD_10_Hash_nodeISB_Lb1EEEm
FNDA:2,_ZNSt10_HashtableINSt7__cxx1112basic_stringIcSt11char_traitsIcESaIcEEESt4pairIKS5_PN7testing9TestSuiteEESaISB_ENSt8__detail10_Select1stESt8equal_toIS5_ESt4hashIS5_ENSD_18_Mod_range_hashingENSD_20_Default_ranged_hashENSD_20_Prime_rehash_policyENSD_17_Hashtable_traitsILb1ELb0ELb1EEEE21_M_insert_unique_nodeEmmPNSD_10_Hash_nodeISB_Lb1EEEm
FN:2095,_ZNSt10_HashtableINSt7__cxx1112basic_stringIcSt11char_traitsIcESaIcEEES5_SaIS5_ENSt8__detail9_IdentityESt8equal_toIS5_ESt4hashIS5_ENS7_18_Mod_range_hashingENS7_20_Default_ranged_hashENS7_20_Prime_rehash_policyENS7_17_Hashtable_traitsILb1ELb1ELb1EEEE9_M_insertIS5_NS7_10_AllocNodeISaINS7_10_Hash_nodeIS5_Lb1EEEEEEEESt4pairINS7_14_Node_iteratorIS5_Lb1ELb1EEEbEOT_RKT0_St17integral_constantIbLb1EE
FNDA:0,_ZNSt10_HashtableINSt7__cxx1112basic_stringIcSt11char_traitsIcESaIcEEES5_SaIS5_ENSt8__detail9_IdentityESt8equal_toIS5_ESt4hashIS5_ENS7_18_Mod_range_hashingENS7_20_Default_ranged_hashENS7_20_Prime_rehash_policyENS7_17_Hashtable_traitsILb1ELb1ELb1EEEE9_M_insertIS5_NS7_10_AllocNodeISaINS7_10_Hash_nodeIS5_Lb1EEEEEEEESt4pairINS7_14_Node_iteratorIS5_Lb1ELb1EEEbEOT_RKT0_St17integral_constantIbLb1EE
FN:2316,_ZNSt10_HashtableINSt7__cxx1112basic_stringIcSt11char_traitsIcESaIcEEES5_SaIS5_ENSt8__detail9_IdentityESt8equal_toIS5_ESt4hashIS5_ENS7_18_Mod_range_hashingENS7_20_Default_ranged_hashENS7_20_Prime_rehash_policyENS7_17_Hashtable_traitsILb1ELb1ELb1EEEE5clearEv
FNDA:6,_ZNSt10_HashtableINSt7__cxx1112basic_stringIcSt11char_traitsIcESaIcEEES5_SaIS5_ENSt8__detail9_IdentityESt8equal_toIS5_ESt4hashIS5_ENS7_18_Mod_range_hashingENS7_20_Default_ranged_hashENS7_20_Prime_rehash_policyENS7_17_Hashtable_traitsILb1ELb1ELb1EEEE5clearEv
FN:2316,_ZNSt10_HashtableINSt7__cxx1112basic_stringIcSt11char_traitsIcESaIcEEESt4pairIKS5_mESaIS8_ENSt8__detail10_Select1stESt8equal_toIS5_ESt4hashIS5_ENSA_18_Mod_range_hashingENSA_20_Default_ranged_hashENSA_20_Prime_rehash_policyENSA_17_Hashtable_traitsILb1ELb0ELb1EEEE5clearEv
FNDA:1,_ZNSt10_HashtableINSt7__cxx1112basic_stringIcSt11char_traitsIcESaIcEEESt4pairIKS5_mESaIS8_ENSt8__detail10_Select1stESt8equal_toIS5_ESt4hashIS5_ENSA_18_Mod_range_hashingENSA_20_Default_ranged_hashENSA_20_Prime_rehash_policyENSA_17_Hashtable_traitsILb1ELb0ELb1EEEE5clearEv
FN:2316,_ZNSt10_HashtableINSt7__cxx1112basic_stringIcSt11char_traitsIcESaIcEEESt4pairIKS5_PN7testing9TestSuiteEESaISB_ENSt8__detail10_Select1stESt8equal_toIS5_ESt4hashIS5_ENSD_18_Mod_range_hashingENSD_20_Default_ranged_hashENSD_20_Prime_rehash_policyENSD_17_Hashtable_traitsILb1ELb0ELb1EEEE5clearEv
FNDA:1,_ZNSt10_HashtableINSt7__cxx1112basic_stringIcSt11char_traitsIcESaIcEEESt4pairIKS5_PN7testing9TestSuiteEESaISB_ENSt8__detail10_Select1stESt8equal_toIS5_ESt4hashIS5_ENSD_18_Mod_range_hashingENSD_20_Default_ranged_hashENSD_20_Prime_rehash_policyENSD_17_Hashtable_traitsILb1ELb0ELb1EEEE5clearEv
FN:2355,_ZNSt10_HashtableINSt7__cxx1112basic_stringIcSt11char_traitsIcESaIcEEESt4pairIKS5_PN7testing9TestSuiteEESaISB_ENSt8__detail10_Select1stESt8equal_toIS5_ESt4hashIS5_ENSD_18_Mod_range_hashingENSD_20_Default_ranged_hashENSD_20_Prime_rehash_policyENSD_17_Hashtable_traitsILb1ELb0ELb1EEEE9_M_rehashEmRKm
FNDA:1,_ZNSt10_HashtableINSt7__cxx1112basic_stringIcSt11char_traitsIcESaIcEEESt4pairIKS5_PN7testing9TestSuiteEESaISB_ENSt8__detail10_Select1stESt8equal_toIS5_ESt4hashIS5_ENSD_18_Mod_range_hashingENSD_20_Default_ranged_hashENSD_20_Prime_rehash_policyENSD_17_Hashtable_traitsILb1ELb0ELb1EEEE9_M_rehashEmRKm
FN:2355,_ZNSt10_HashtableINSt7__cxx1112basic_stringIcSt11char_traitsIcESaIcEEES5_SaIS5_ENSt8__detail9_IdentityESt8equal_toIS5_ESt4hashIS5_ENS7_18_Mod_range_hashingENS7_20_Default_ranged_hashENS7_20_Prime_rehash_policyENS7_17_Hashtable_traitsILb1ELb1ELb1EEEE9_M_rehashEmRKm
FNDA:0,_ZNSt10_HashtableINSt7__cxx1112basic_stringIcSt11char_traitsIcESaIcEEES5_SaIS5_ENSt8__detail9_IdentityESt8equal_toIS5_ESt4hashIS5_ENS7_18_Mod_range_hashingENS7_20_Default_ranged_hashENS7_20_Prime_rehash_policyENS7_17_Hashtable_traitsILb1ELb1ELb1EEEE9_M_rehashEmRKm
FN:2378,_ZNSt10_HashtableINSt7__cxx1112basic_stringIcSt11char_traitsIcESaIcEEES5_SaIS5_ENSt8__detail9_IdentityESt8equal_toIS5_ESt4hashIS5_ENS7_18_Mod_range_hashingENS7_20_Default_ranged_hashENS7_20_Prime_rehash_policyENS7_17_Hashtable_traitsILb1ELb1ELb1EEEE13_M_rehash_auxEmSt17integral_constantIbLb1EE
FNDA:0,_ZNSt10_HashtableINSt7__cxx1112basic_stringIcSt11char_traitsIcESaIcEEES5_SaIS5_ENSt8__detail9_IdentityESt8equal_toIS5_ESt4hashIS5_ENS7_18_Mod_range_hashingENS7_20_Default_ranged_hashENS7_20_Prime_rehash_policyENS7_17_Hashtable_traitsILb1ELb1ELb1EEEE13_M_rehash_auxEmSt17integral_constantIbLb1EE
FN:2378,_ZNSt10_HashtableINSt7__cxx1112basic_stringIcSt11char_traitsIcESaIcEEESt4pairIKS5_PN7testing9TestSuiteEESaISB_ENSt8__detail10_Select1stESt8equal_toIS5_ESt4hashIS5_ENSD_18_Mod_range_hashingENSD_20_Default_ranged_hashENSD_20_Prime_rehash_policyENSD_17_Hashtable_traitsILb1ELb0ELb1EEEE13_M_rehash_auxEmSt17integral_constantIbLb1EE
FNDA:1,_ZNSt10_HashtableINSt7__cxx1112basic_stringIcSt11char_traitsIcESaIcEEESt4pairIKS5_PN7testing9TestSuiteEESaISB_ENSt8__detail10_Select1stESt8equal_toIS5_ESt4hashIS5_ENSD_18_Mod_range_hashingENSD_20_Default_ranged_hashENSD_20_Prime_rehash_policyENSD_17_Hashtable_traitsILb1ELb0ELb1EEEE13_M_rehash_auxEmSt17integral_constantIbLb1EE
DA:297,0
DA:298,0
DA:302,2
DA:303,2
DA:304,2
DA:305,2
DA:308,0
DA:308,2
DA:407,1
DA:409,1
DA:410,0
DA:411,1
DA:421,2
DA:422,2
DA:421,8
DA:422,8
DA:421,1
DA:422,1
DA:425,1
DA:426,1
DA:432,0
DA:434,0
DA:436,0
DA:437,0
DA:440,0
DA:432,1
DA:434,1
DA:436,0
DA:437,0
DA:440,1
DA:444,2
DA:446,2
DA:447,1
DA:449,1
DA:444,7
DA:446,7
DA:447,7
DA:449,0
DA:444,1
DA:446,1
DA:447,1
DA:449,0
DA:453,2
DA:454,2
DA:453,7
DA:454,7
DA:453,1
DA:454,1
DA:462,2
DA:463,2
DA:462,12
DA:463,12
DA:462,1
DA:463,1
DA:528,1
DA:528,1
DA:528,6
DA:582,1
DA:587,1
DA:590,1
DA:591,1
DA:621,4
DA:622,4
DA:629,2
DA:630,2
DA:633,82
DA:634,82
DA:790,1
DA:791,1
DA:790,0
DA:791,0
DA:794,5
DA:795,5
DA:794,82
DA:795,82
DA:807,4
DA:810,4
DA:811,4
DA:812,0
DA:813,4
DA:807,82
DA:810,82
DA:811,82
DA:812,0
DA:813,82
DA:888,0
DA:892,0
DA:914,2
DA:915,2
DA:1337,1
DA:1341,1
DA:1342,1
DA:1343,1
DA:1344,1
DA:1345,1
DA:1346,1
DA:1347,1
DA:1354,1
DA:1358,1
DA:1359,0
DA:1361,1
DA:1362,1
DA:1363,1
DA:1364,1
DA:1365,1
DA:1366,0
DA:1369,1
DA:1370,1
DA:1373,1
DA:1374,1
DA:1375,1
DA:1376,1
DA:1379,1
DA:1380,1
DA:1528,1
DA:1532,1
DA:1533,1
DA:1534,1
DA:1528,6
DA:1532,6
DA:1533,6
DA:1534,6
DA:1528,1
DA:1532,1
DA:1533,1
DA:1534,1
DA:1588,2
DA:1593,2
DA:1594,2
DA:1595,2
DA:1603,82
DA:1608,82
DA:1609,82
DA:1610,82
DA:1827,4
DA:1833,4
DA:1834,4
DA:1835,4
DA:1837,0
DA:1838,0
DA:1840,0
DA:1841,0
DA:1843,0
DA:1844,0
DA:1845,0
DA:1848,0
DA:1827,82
DA:1833,82
DA:1834,82
DA:1835,82
DA:1837,0
DA:1838,0
DA:1840,0
DA:1841,0
DA:1843,0
DA:1844,0
DA:1845,0
DA:1848,0
DA:1886,0
DA:1890,0
DA:1894,0
DA:1895,0
DA:1902,0
DA:1903,0
DA:1905,0
DA:1908,0
DA:1910,0
DA:1912,0
DA:1886,2
DA:1890,2
DA:1894,0
DA:1895,0
DA:1902,2
DA:1903,2
DA:1905,2
DA:1908,1
DA:1910,2
DA:1912,2
DA:1960,2
DA:1966,2
DA:1967,2
DA:1968,2
DA:1969,2
DA:1970,2
DA:1972,0
DA:1975,2
DA:1976,2
DA:1977,2
DA:1978,2
DA:2008,0
DA:2014,0
DA:2016,0
DA:2019,0
DA:2021,0
DA:2022,0
DA:2025,0
DA:2028,0
DA:2029,0
DA:2030,0
DA:2008,2
DA:2014,2
DA:2016,2
DA:2019,2
DA:2021,1
DA:2022,1
DA:2025,2
DA:2028,2
DA:2029,2
DA:2030,2
DA:2095,0
DA:2101,0
DA:2102,0
DA:2103,0
DA:2105,0
DA:2106,0
DA:2108,0
DA:2110,0
DA:2111,0
DA:2112,0
DA:2113,0
DA:2316,1
DA:2320,1
DA:2321,1
DA:2322,1
DA:2323,1
DA:2324,1
DA:2325,1
DA:2316,6
DA:2320,6
DA:2321,6
DA:2322,6
DA:2323,6
DA:2324,6
DA:2325,6
DA:2316,1
DA:2320,1
DA:2321,1
DA:2322,1
DA:2323,1
DA:2324,1
DA:2325,1
DA:2355,0
DA:2361,0
DA:2363,0
DA:2367,0
DA:2368,0
DA:2370,0
DA:2355,1
DA:2361,1
DA:2363,0
DA:2367,0
DA:2368,0
DA:2370,1
DA:2378,0
DA:2382,0
DA:2383,0
DA:2384,0
DA:2385,0
DA:2386,0
DA:2388,0
DA:2390,0
DA:2391,0
DA:2393,0
DA:2394,0
DA:2395,0
DA:2396,0
DA:2397,0
DA:2398,0
DA:2402,0
DA:2403,0
DA:2406,0
DA:2409,0
DA:2410,0
DA:2411,0
DA:2412,0
DA:2378,1
DA:2382,1
DA:2383,1
DA:2384,1
DA:2385,1
DA:2386,1
DA:2388,0
DA:2390,0
DA:2391,0
DA:2393,0
DA:2394,0
DA:2395,0
DA:2396,0
DA:2397,0
DA:2398,0
DA:2402,0
DA:2403,0
DA:2406,0
DA:2409,1
DA:2410,1
DA:2411,1
DA:2412,1
end_of_record
SF:/usr/include/c++/11/bits/char_traits.h
FN:372,_ZNSt11char_traitsIcE7compareEPKcS2_m
FNDA:18,_ZNSt11char_traitsIcE7compareEPKcS2_m
FN:393,_ZNSt11char_traitsIcE6lengthEPKc
FNDA:0,_ZNSt11char_traitsIcE6lengthEPKc
FN:429,_ZNSt11char_traitsIcE4copyEPcPKcm
FNDA:0,_ZNSt11char_traitsIcE4copyEPcPKcm
FN:517,_ZNSt11char_traitsIwE6lengthEPKw
FNDA:0,_ZNSt11char_traitsIwE6lengthEPKw
DA:372,18
DA:374,18
DA:375,0
DA:389,18
DA:393,0
DA:399,0
DA:429,0
DA:431,0
DA:432,0
DA:437,0
DA:517,0
DA:523,0
end_of_record
SF:/usr/include/c++/11/bits/allocated_ptr.h
FN:53,_ZNSt15__allocated_ptrISaISt10_List_nodeISt4pairIcPKcEEEEC2ERS6_PS5_
FNDA:0,_ZNSt15__allocated_ptrISaISt10_List_nodeISt4pairIcPKcEEEEC2ERS6_PS5_
FN:71,_ZNSt15__allocated_ptrISaISt10_List_nodeISt4pairIcPKcEEEED2Ev
FNDA:0,_ZNSt15__allocated_ptrISaISt10_List_nodeISt4pairIcPKcEEEED2Ev
FN:79,_ZNSt15__allocated_ptrISaISt10_List_nodeISt4pairIcPKcEEEEaSEDn
FNDA:0,_ZNSt15__allocated_ptrISaISt10_List_nodeISt4pairIcPKcEEEEaSEDn
DA:53,0
DA:54,0
DA:55,0
DA:71,0
DA:73,0
DA:74,0
DA:75,0
DA:79,0
DA:81,0
DA:82,0
end_of_record
SF:/usr/include/c++/11/new
FN:174,_ZnwmPv
FNDA:0,_ZnwmPv
FN:180,_ZdlPvS_
FNDA:0,_ZdlPvS_
DA:174,0
DA:175,0
DA:180,0
end_of_record
SF:/usr/include/c++/11/bits/stl_vector.h
FN:97,_ZNSt12_Vector_baseIN7testing8internal9TraceInfoESaIS2_EE17_Vector_impl_dataC2Ev
FNDA:0,_ZNSt12_Vector_baseIN7testing8internal9TraceInfoESaIS2_EE17_Vector_impl_dataC2Ev
FN:97,_ZNSt12_Vector_baseIPN7testing11EnvironmentESaIS2_EE17_Vector_impl_dataC2Ev
FNDA:1,_ZNSt12_Vector_baseIPN7testing11EnvironmentESaIS2_EE17_Vector_impl_dataC2Ev
FN:97,_ZNSt12_Vector_baseIPN7testing9TestSuiteESaIS2_EE17_Vector_impl_dataC2Ev
FNDA:1,_ZNSt12_Vector_baseIPN7testing9TestSuiteESaIS2_EE17_Vector_impl_dataC2Ev
FN:97,_ZNSt12_Vector_baseIPN7testing8internal30ParameterizedTestSuiteInfoBaseESaIS3_EE17_Vector_impl_dataC2Ev
FNDA:1,_ZNSt12_Vector_baseIPN7testing8internal30ParameterizedTestSuiteInfoBaseESaIS3_EE17_Vector_impl_dataC2Ev
FN:97,_ZNSt12_Vector_baseINSt7__cxx1112basic_stringIcSt11char_traitsIcESaIcEEESaIS5_EE17_Vector_impl_dataC2Ev
FNDA:0,_ZNSt12_Vector_baseINSt7__cxx1112basic_stringIcSt11char_traitsIcESaIcEEESaIS5_EE17_Vector_impl_dataC2Ev
FN:97,_ZNSt12_Vector_baseIPN7testing17TestEventListenerESaIS2_EE17_Vector_impl_dataC2Ev
FNDA:1,_ZNSt12_Vector_baseIPN7testing17TestEventListenerESaIS2_EE17_Vector_impl_dataC2Ev
FN:97,_ZNSt12_Vector_baseIiSaIiEE17_Vector_impl_dataC2Ev
FNDA:3,_ZNSt12_Vector_baseIiSaIiEE17_Vector_impl_dataC2Ev
FN:97,_ZNSt12_Vector_baseIPN7testing8TestInfoESaIS2_EE17_Vector_impl_dataC2Ev
FNDA:2,_ZNSt12_Vector_baseIPN7testing8TestInfoESaIS2_EE17_Vector_impl_dataC2Ev
FN:97,_ZNSt12_Vector_baseIN7testing12TestPropertyESaIS1_EE17_Vector_impl_dataC2Ev
FNDA:23,_ZNSt12_Vector_baseIN7testing12TestPropertyESaIS1_EE17_Vector_impl_dataC2Ev
FN:97,_ZNSt12_Vector_baseIN7testing14TestPartResultESaIS1_EE17_Vector_impl_dataC2Ev
FNDA:23,_ZNSt12_Vector_baseIN7testing14TestPartResultESaIS1_EE17_Vector_impl_dataC2Ev
FN:97,_ZNSt12_Vector_baseISt6vectorIN7testing8internal13edit_distance8EditTypeESaIS4_EESaIS6_EE17_Vector_impl_dataC2Ev
FNDA:0,_ZNSt12_Vector_baseISt6vectorIN7testing8internal13edit_distance8EditTypeESaIS4_EESaIS6_EE17_Vector_impl_dataC2Ev
FN:97,_ZNSt12_Vector_baseISt6vectorIdSaIdEESaIS2_EE17_Vector_impl_dataC2Ev
FNDA:0,_ZNSt12_Vector_baseISt6vectorIdSaIdEESaIS2_EE17_Vector_impl_dataC2Ev
FN:97,_ZNSt12_Vector_baseIdSaIdEE17_Vector_impl_dataC2Ev
FNDA:0,_ZNSt12_Vector_baseIdSaIdEE17_Vector_impl_dataC2Ev
FN:97,_ZNSt12_Vector_baseIN7testing8internal13edit_distance8EditTypeESaIS3_EE17_Vector_impl_dataC2Ev
FNDA:0,_ZNSt12_Vector_baseIN7testing8internal13edit_distance8EditTypeESaIS3_EE17_Vector_impl_dataC2Ev
FN:97,_ZNSt12_Vector_baseImSaImEE17_Vector_impl_dataC2Ev
FNDA:0,_ZNSt12_Vector_baseImSaImEE17_Vector_impl_dataC2Ev
FN:109,_ZNSt12_Vector_baseINSt7__cxx1112basic_stringIcSt11char_traitsIcESaIcEEESaIS5_EE17_Vector_impl_data12_M_copy_dataERKS8_
FNDA:21,_ZNSt12_Vector_baseINSt7__cxx1112basic_stringIcSt11char_traitsIcESaIcEEESaIS5_EE17_Vector_impl_data12_M_copy_dataERKS8_
FN:117,_ZNSt12_Vector_baseINSt7__cxx1112basic_stringIcSt11char_traitsIcESaIcEEESaIS5_EE17_Vector_impl_data12_M_swap_dataERS8_
FNDA:7,_ZNSt12_Vector_baseINSt7__cxx1112basic_stringIcSt11char_traitsIcESaIcEEESaIS5_EE17_Vector_impl_data12_M_swap_dataERS8_
FN:131,_ZNSt12_Vector_baseIPN7testing8TestInfoESaIS2_EE12_Vector_implC2Ev
FNDA:2,_ZNSt12_Vector_baseIPN7testing8TestInfoESaIS2_EE12_Vector_implC2Ev
FN:131,_ZNSt12_Vector_baseImSaImEE12_Vector_implC2Ev
FNDA:0,_ZNSt12_Vector_baseImSaImEE12_Vector_implC2Ev
FN:131,_ZNSt12_Vector_baseIN7testing8internal13edit_distance8EditTypeESaIS3_EE12_Vector_implC2Ev
FNDA:0,_ZNSt12_Vector_baseIN7testing8internal13edit_distance8EditTypeESaIS3_EE12_Vector_implC2Ev
FN:131,_ZNSt12_Vector_baseIiSaIiEE12_Vector_implC2Ev
FNDA:3,_ZNSt12_Vector_baseIiSaIiEE12_Vector_implC2Ev
FN:131,_ZNSt12_Vector_baseIPN7testing17TestEventListenerESaIS2_EE12_Vector_implC2Ev
FNDA:1,_ZNSt12_Vector_baseIPN7testing17TestEventListenerESaIS2_EE12_Vector_implC2Ev
FN:131,_ZNSt12_Vector_baseIPN7testing11EnvironmentESaIS2_EE12_Vector_implC2Ev
FNDA:1,_ZNSt12_Vector_baseIPN7testing11EnvironmentESaIS2_EE12_Vector_implC2Ev
FN:131,_ZNSt12_Vector_baseIN7testing12TestPropertyESaIS1_EE12_Vector_implC2Ev
FNDA:23,_ZNSt12_Vector_baseIN7testing12TestPropertyESaIS1_EE12_Vector_implC2Ev
FN:131,_ZNSt12_Vector_baseIN7testing14TestPartResultESaIS1_EE12_Vector_implC2Ev
FNDA:23,_ZNSt12_Vector_baseIN7testing14TestPartResultESaIS1_EE12_Vector_implC2Ev
FN:131,_ZNSt12_Vector_baseINSt7__cxx1112basic_stringIcSt11char_traitsIcESaIcEEESaIS5_EE12_Vector_implC2Ev
FNDA:17,_ZNSt12_Vector_baseINSt7__cxx1112basic_stringIcSt11char_traitsIcESaIcEEESaIS5_EE12_Vector_implC2Ev
FN:131,_ZNSt12_Vector_baseIPN7testing9TestSuiteESaIS2_EE12_Vector_implC2Ev
FNDA:1,_ZNSt12_Vector_baseIPN7testing9TestSuiteESaIS2_EE12_Vector_implC2Ev
FN:131,_ZNSt12_Vector_baseIN7testing8internal9TraceInfoESaIS2_EE12_Vector_implC2Ev
FNDA:0,_ZNSt12_Vector_baseIN7testing8internal9TraceInfoESaIS2_EE12_Vector_implC2Ev
FN:131,_ZNSt12_Vector_baseIPN7testing8internal30ParameterizedTestSuiteInfoBaseESaIS3_EE12_Vector_implC2Ev
FNDA:1,_ZNSt12_Vector_baseIPN7testing8internal30ParameterizedTestSuiteInfoBaseESaIS3_EE12_Vector_implC2Ev
FN:136,_ZNSt12_Vector_baseISt6vectorIdSaIdEESaIS2_EE12_Vector_implC2ERKS3_
FNDA:0,_ZNSt12_Vector_baseISt6vectorIdSaIdEESaIS2_EE12_Vector_implC2ERKS3_
FN:136,_ZNSt12_Vector_baseISt6vectorIN7testing8internal13edit_distance8EditTypeESaIS4_EESaIS6_EE12_Vector_implC2ERKS7_
FNDA:0,_ZNSt12_Vector_baseISt6vectorIN7testing8internal13edit_distance8EditTypeESaIS4_EESaIS6_EE12_Vector_implC2ERKS7_
FN:136,_ZNSt12_Vector_baseIN7testing8internal13edit_distance8EditTypeESaIS3_EE12_Vector_implC2ERKS4_
FNDA:0,_ZNSt12_Vector_baseIN7testing8internal13edit_distance8EditTypeESaIS3_EE12_Vector_implC2ERKS4_
FN:136,_ZNSt12_Vector_baseIdSaIdEE12_Vector_implC2ERKS0_
FNDA:0,_ZNSt12_Vector_baseIdSaIdEE12_Vector_implC2ERKS0_
FN:136,_ZNSt12_Vector_baseINSt7__cxx1112basic_stringIcSt11char_traitsIcESaIcEEESaIS5_EE12_Vector_implC2ERKS6_
FNDA:0,_ZNSt12_Vector_baseINSt7__cxx1112basic_stringIcSt11char_traitsIcESaIcEEESaIS5_EE12_Vector_implC2ERKS6_
FN:276,_ZNSt12_Vector_baseIiSaIiEE19_M_get_Tp_allocatorEv
FNDA:25,_ZNSt12_Vector_baseIiSaIiEE19_M_get_Tp_allocatorEv
FN:276,_ZNSt12_Vector_baseIPN7testing17TestEventListenerESaIS2_EE19_M_get_Tp_allocatorEv
FNDA:3,_ZNSt12_Vector_baseIPN7testing17TestEventListenerESaIS2_EE19_M_get_Tp_allocatorEv
FN:276,_ZNSt12_Vector_baseIPN7testing8TestInfoESaIS2_EE19_M_get_Tp_allocatorEv
FNDA:20,_ZNSt12_Vector_baseIPN7testing8TestInfoESaIS2_EE19_M_get_Tp_allocatorEv
FN:276,_ZNSt12_Vector_baseIPN7testing11EnvironmentESaIS2_EE19_M_get_Tp_allocatorEv
FNDA:1,_ZNSt12_Vector_baseIPN7testing11EnvironmentESaIS2_EE19_M_get_Tp_allocatorEv
FN:276,_ZNSt12_Vector_baseINSt7__cxx1112basic_stringIcSt11char_traitsIcESaIcEEESaIS5_EE19_M_get_Tp_allocatorEv
FNDA:0,_ZNSt12_Vector_baseINSt7__cxx1112basic_stringIcSt11char_traitsIcESaIcEEESaIS5_EE19_M_get_Tp_allocatorEv
FN:276,_ZNSt12_Vector_baseIPN7testing8internal30ParameterizedTestSuiteInfoBaseESaIS3_EE19_M_get_Tp_allocatorEv
FNDA:1,_ZNSt12_Vector_baseIPN7testing8internal30ParameterizedTestSuiteInfoBaseESaIS3_EE19_M_get_Tp_allocatorEv
FN:276,_ZNSt12_Vector_baseIdSaIdEE19_M_get_Tp_allocatorEv
FNDA:0,_ZNSt12_Vector_baseIdSaIdEE19_M_get_Tp_allocatorEv
FN:276,_ZNSt12_Vector_baseIN7testing12TestPropertyESaIS1_EE19_M_get_Tp_allocatorEv
FNDA:23,_ZNSt12_Vector_baseIN7testing12TestPropertyESaIS1_EE19_M_get_Tp_allocatorEv
FN:276,_ZNSt12_Vector_baseIN7testing14TestPartResultESaIS1_EE19_M_get_Tp_allocatorEv
FNDA:23,_ZNSt12_Vector_baseIN7testing14TestPartResultESaIS1_EE19_M_get_Tp_allocatorEv
FN:276,_ZNSt12_Vector_baseImSaImEE19_M_get_Tp_allocatorEv
FNDA:0,_ZNSt12_Vector_baseImSaImEE19_M_get_Tp_allocatorEv
FN:276,_ZNSt12_Vector_baseIN7testing8internal9TraceInfoESaIS2_EE19_M_get_Tp_allocatorEv
FNDA:0,_ZNSt12_Vector_baseIN7testing8internal9TraceInfoESaIS2_EE19_M_get_Tp_allocatorEv
FN:276,_ZNSt12_Vector_baseISt6vectorIN7testing8internal13edit_distance8EditTypeESaIS4_EESaIS6_EE19_M_get_Tp_allocatorEv
FNDA:0,_ZNSt12_Vector_baseISt6vectorIN7testing8internal13edit_distance8EditTypeESaIS4_EESaIS6_EE19_M_get_Tp_allocatorEv
FN:276,_ZNSt12_Vector_baseIPN7testing9TestSuiteESaIS2_EE19_M_get_Tp_allocatorEv
FNDA:5,_ZNSt12_Vector_baseIPN7testing9TestSuiteESaIS2_EE19_M_get_Tp_allocatorEv
FN:276,_ZNSt12_Vector_baseISt6vectorIdSaIdEESaIS2_EE19_M_get_Tp_allocatorEv
FNDA:0,_ZNSt12_Vector_baseISt6vectorIdSaIdEESaIS2_EE19_M_get_Tp_allocatorEv
FN:276,_ZNSt12_Vector_baseIN7testing8internal13edit_distance8EditTypeESaIS3_EE19_M_get_Tp_allocatorEv
FNDA:0,_ZNSt12_Vector_baseIN7testing8internal13edit_distance8EditTypeESaIS3_EE19_M_get_Tp_allocatorEv
FN:280,_ZNKSt12_Vector_baseIiSaIiEE19_M_get_Tp_allocatorEv
FNDA:22,_ZNKSt12_Vector_baseIiSaIiEE19_M_get_Tp_allocatorEv
FN:280,_ZNKSt12_Vector_baseIPN7testing17TestEventListenerESaIS2_EE19_M_get_Tp_allocatorEv
FNDA:2,_ZNKSt12_Vector_baseIPN7testing17TestEventListenerESaIS2_EE19_M_get_Tp_allocatorEv
FN:280,_ZNKSt12_Vector_baseIPN7testing8TestInfoESaIS2_EE19_M_get_Tp_allocatorEv
FNDA:18,_ZNKSt12_Vector_baseIPN7testing8TestInfoESaIS2_EE19_M_get_Tp_allocatorEv
FN:280,_ZNKSt12_Vector_baseIN7testing12TestPropertyESaIS1_EE19_M_get_Tp_allocatorEv
FNDA:0,_ZNKSt12_Vector_baseIN7testing12TestPropertyESaIS1_EE19_M_get_Tp_allocatorEv
FN:280,_ZNKSt12_Vector_baseIN7testing14TestPartResultESaIS1_EE19_M_get_Tp_allocatorEv
FNDA:0,_ZNKSt12_Vector_baseIN7testing14TestPartResultESaIS1_EE19_M_get_Tp_allocatorEv
FN:280,_ZNKSt12_Vector_baseIPN7testing11EnvironmentESaIS2_EE19_M_get_Tp_allocatorEv
FNDA:0,_ZNKSt12_Vector_baseIPN7testing11EnvironmentESaIS2_EE19_M_get_Tp_allocatorEv
FN:280,_ZNKSt12_Vector_baseIN7testing8internal9TraceInfoESaIS2_EE19_M_get_Tp_allocatorEv
FNDA:0,_ZNKSt12_Vector_baseIN7testing8internal9TraceInfoESaIS2_EE19_M_get_Tp_allocatorEv
FN:280,_ZNKSt12_Vector_baseIPN7testing9TestSuiteESaIS2_EE19_M_get_Tp_allocatorEv
FNDA:4,_ZNKSt12_Vector_baseIPN7testing9TestSuiteESaIS2_EE19_M_get_Tp_allocatorEv
FN:280,_ZNKSt12_Vector_baseIN7testing8internal13edit_distance8EditTypeESaIS3_EE19_M_get_Tp_allocatorEv
FNDA:0,_ZNKSt12_Vector_baseIN7testing8internal13edit_distance8EditTypeESaIS3_EE19_M_get_Tp_allocatorEv
FN:280,_ZNKSt12_Vector_baseImSaImEE19_M_get_Tp_allocatorEv
FNDA:0,_ZNKSt12_Vector_baseImSaImEE19_M_get_Tp_allocatorEv
FN:280,_ZNKSt12_Vector_baseINSt7__cxx1112basic_stringIcSt11char_traitsIcESaIcEEESaIS5_EE19_M_get_Tp_allocatorEv
FNDA:0,_ZNKSt12_Vector_baseINSt7__cxx1112basic_stringIcSt11char_traitsIcESaIcEEESaIS5_EE19_M_get_Tp_allocatorEv
FN:280,_ZNKSt12_Vector_baseIdSaIdEE19_M_get_Tp_allocatorEv
FNDA:0,_ZNKSt12_Vector_baseIdSaIdEE19_M_get_Tp_allocatorEv
FN:284,_ZNKSt12_Vector_baseINSt7__cxx1112basic_stringIcSt11char_traitsIcESaIcEEESaIS5_EE13get_allocatorEv
FNDA:1,_ZNKSt12_Vector_baseINSt7__cxx1112basic_stringIcSt11char_traitsIcESaIcEEESaIS5_EE13get_allocatorEv
FN:288,_ZNSt12_Vector_baseINSt7__cxx1112basic_stringIcSt11char_traitsIcESaIcEEESaIS5_EEC2Ev
FNDA:17,_ZNSt12_Vector_baseINSt7__cxx1112basic_stringIcSt11char_traitsIcESaIcEEESaIS5_EEC2Ev
FN:288,_ZNSt12_Vector_baseImSaImEEC2Ev
FNDA:0,_ZNSt12_Vector_baseImSaImEEC2Ev
FN:288,_ZNSt12_Vector_baseIPN7testing9TestSuiteESaIS2_EEC2Ev
FNDA:1,_ZNSt12_Vector_baseIPN7testing9TestSuiteESaIS2_EEC2Ev
FN:288,_ZNSt12_Vector_baseIN7testing14TestPartResultESaIS1_EEC2Ev
FNDA:23,_ZNSt12_Vector_baseIN7testing14TestPartResultESaIS1_EEC2Ev
FN:288,_ZNSt12_Vector_baseIPN7testing11EnvironmentESaIS2_EEC2Ev
FNDA:1,_ZNSt12_Vector_baseIPN7testing11EnvironmentESaIS2_EEC2Ev
FN:288,_ZNSt12_Vector_baseIN7testing8internal9TraceInfoESaIS2_EEC2Ev
FNDA:0,_ZNSt12_Vector_baseIN7testing8internal9TraceInfoESaIS2_EEC2Ev
FN:288,_ZNSt12_Vector_baseIN7testing8internal13edit_distance8EditTypeESaIS3_EEC2Ev
FNDA:0,_ZNSt12_Vector_baseIN7testing8internal13edit_distance8EditTypeESaIS3_EEC2Ev
FN:288,_ZNSt12_Vector_baseIPN7testing8internal30ParameterizedTestSuiteInfoBaseESaIS3_EEC2Ev
FNDA:1,_ZNSt12_Vector_baseIPN7testing8internal30ParameterizedTestSuiteInfoBaseESaIS3_EEC2Ev
FN:288,_ZNSt12_Vector_baseIN7testing12TestPropertyESaIS1_EEC2Ev
FNDA:23,_ZNSt12_Vector_baseIN7testing12TestPropertyESaIS1_EEC2Ev
FN:288,_ZNSt12_Vector_baseIPN7testing17TestEventListenerESaIS2_EEC2Ev
FNDA:1,_ZNSt12_Vector_baseIPN7testing17TestEventListenerESaIS2_EEC2Ev
FN:288,_ZNSt12_Vector_baseIiSaIiEEC2Ev
FNDA:3,_ZNSt12_Vector_baseIiSaIiEEC2Ev
FN:288,_ZNSt12_Vector_baseIPN7testing8TestInfoESaIS2_EEC2Ev
FNDA:2,_ZNSt12_Vector_baseIPN7testing8TestInfoESaIS2_EEC2Ev
FN:293,_ZNSt12_Vector_baseINSt7__cxx1112basic_stringIcSt11char_traitsIcESaIcEEESaIS5_EEC2ERKS6_
FNDA:0,_ZNSt12_Vector_baseINSt7__cxx1112basic_stringIcSt11char_traitsIcESaIcEEESaIS5_EEC2ERKS6_
FN:303,_ZNSt12_Vector_baseISt6vectorIN7testing8internal13edit_distance8EditTypeESaIS4_EESaIS6_EEC2EmRKS7_
FNDA:0,_ZNSt12_Vector_baseISt6vectorIN7testing8internal13edit_distance8EditTypeESaIS4_EESaIS6_EEC2EmRKS7_
FN:303,_ZNSt12_Vector_baseINSt7__cxx1112basic_stringIcSt11char_traitsIcESaIcEEESaIS5_EEC2EmRKS6_
FNDA:0,_ZNSt12_Vector_baseINSt7__cxx1112basic_stringIcSt11char_traitsIcESaIcEEESaIS5_EEC2EmRKS6_
FN:303,_ZNSt12_Vector_baseIN7testing8internal13edit_distance8EditTypeESaIS3_EEC2EmRKS4_
FNDA:0,_ZNSt12_Vector_baseIN7testing8internal13edit_distance8EditTypeESaIS3_EEC2EmRKS4_
FN:303,_ZNSt12_Vector_baseIdSaIdEEC2EmRKS0_
FNDA:0,_ZNSt12_Vector_baseIdSaIdEEC2EmRKS0_
FN:303,_ZNSt12_Vector_baseISt6vectorIdSaIdEESaIS2_EEC2EmRKS3_
FNDA:0,_ZNSt12_Vector_baseISt6vectorIdSaIdEESaIS2_EEC2EmRKS3_
FN:333,_ZNSt12_Vector_baseIdSaIdEED2Ev
FNDA:0,_ZNSt12_Vector_baseIdSaIdEED2Ev
FN:333,_ZNSt12_Vector_baseIPN7testing8TestInfoESaIS2_EED2Ev
FNDA:2,_ZNSt12_Vector_baseIPN7testing8TestInfoESaIS2_EED2Ev
FN:333,_ZNSt12_Vector_baseIN7testing12TestPropertyESaIS1_EED2Ev
FNDA:23,_ZNSt12_Vector_baseIN7testing12TestPropertyESaIS1_EED2Ev
FN:333,_ZNSt12_Vector_baseINSt7__cxx1112basic_stringIcSt11char_traitsIcESaIcEEESaIS5_EED2Ev
FNDA:0,_ZNSt12_Vector_baseINSt7__cxx1112basic_stringIcSt11char_traitsIcESaIcEEESaIS5_EED2Ev
FN:333,_ZNSt12_Vector_baseIN7testing8internal9TraceInfoESaIS2_EED2Ev
FNDA:0,_ZNSt12_Vector_baseIN7testing8internal9TraceInfoESaIS2_EED2Ev
FN:333,_ZNSt12_Vector_baseIiSaIiEED2Ev
FNDA:3,_ZNSt12_Vector_baseIiSaIiEED2Ev
FN:333,_ZNSt12_Vector_baseIPN7testing17TestEventListenerESaIS2_EED2Ev
FNDA:1,_ZNSt12_Vector_baseIPN7testing17TestEventListenerESaIS2_EED2Ev
FN:333,_ZNSt12_Vector_baseIN7testing14TestPartResultESaIS1_EED2Ev
FNDA:23,_ZNSt12_Vector_baseIN7testing14TestPartResultESaIS1_EED2Ev
FN:333,_ZNSt12_Vector_baseIPN7testing8internal30ParameterizedTestSuiteInfoBaseESaIS3_EED2Ev
FNDA:1,_ZNSt12_Vector_baseIPN7testing8internal30ParameterizedTestSuiteInfoBaseESaIS3_EED2Ev
FN:333,_ZNSt12_Vector_baseISt6vectorIN7testing8internal13edit_distance8EditTypeESaIS4_EESaIS6_EED2Ev
FNDA:0,_ZNSt12_Vector_baseISt6vectorIN7testing8internal13edit_distance8EditTypeESaIS4_EESaIS6_EED2Ev
FN:333,_ZNSt12_Vector_baseIPN7testing11EnvironmentESaIS2_EED2Ev
FNDA:1,_ZNSt12_Vector_baseIPN7testing11EnvironmentESaIS2_EED2Ev
FN:333,_ZNSt12_Vector_baseISt6vectorIdSaIdEESaIS2_EED2Ev
FNDA:0,_ZNSt12_Vector_baseISt6vectorIdSaIdEESaIS2_EED2Ev
FN:333,_ZNSt12_Vector_baseImSaImEED2Ev
FNDA:0,_ZNSt12_Vector_baseImSaImEED2Ev
FN:333,_ZNSt12_Vector_baseIN7testing8internal13edit_distance8EditTypeESaIS3_EED2Ev
FNDA:0,_ZNSt12_Vector_baseIN7testing8internal13edit_distance8EditTypeESaIS3_EED2Ev
FN:333,_ZNSt12_Vector_baseIPN7testing9TestSuiteESaIS2_EED2Ev
FNDA:1,_ZNSt12_Vector_baseIPN7testing9TestSuiteESaIS2_EED2Ev
FN:343,_ZNSt12_Vector_baseIPN7testing17TestEventListenerESaIS2_EE11_M_allocateEm
FNDA:1,_ZNSt12_Vector_baseIPN7testing17TestEventListenerESaIS2_EE11_M_allocateEm
FN:343,_ZNSt12_Vector_baseISt6vectorIN7testing8internal13edit_distance8EditTypeESaIS4_EESaIS6_EE11_M_allocateEm
FNDA:0,_ZNSt12_Vector_baseISt6vectorIN7testing8internal13edit_distance8EditTypeESaIS4_EESaIS6_EE11_M_allocateEm
FN:343,_ZNSt12_Vector_baseIPN7testing9TestSuiteESaIS2_EE11_M_allocateEm
FNDA:2,_ZNSt12_Vector_baseIPN7testing9TestSuiteESaIS2_EE11_M_allocateEm
FN:343,_ZNSt12_Vector_baseIdSaIdEE11_M_allocateEm
FNDA:0,_ZNSt12_Vector_baseIdSaIdEE11_M_allocateEm
FN:343,_ZNSt12_Vector_baseIPN7testing11EnvironmentESaIS2_EE11_M_allocateEm
FNDA:0,_ZNSt12_Vector_baseIPN7testing11EnvironmentESaIS2_EE11_M_allocateEm
FN:343,_ZNSt12_Vector_baseIN7testing8internal13edit_distance8EditTypeESaIS3_EE11_M_allocateEm
FNDA:0,_ZNSt12_Vector_baseIN7testing8internal13edit_distance8EditTypeESaIS3_EE11_M_allocateEm
FN:343,_ZNSt12_Vector_baseImSaImEE11_M_allocateEm
FNDA:0,_ZNSt12_Vector_baseImSaImEE11_M_allocateEm
FN:343,_ZNSt12_Vector_baseIN7testing8internal9TraceInfoESaIS2_EE11_M_allocateEm
FNDA:0,_ZNSt12_Vector_baseIN7testing8internal9TraceInfoESaIS2_EE11_M_allocateEm
FN:343,_ZNSt12_Vector_baseIiSaIiEE11_M_allocateEm
FNDA:11,_ZNSt12_Vector_baseIiSaIiEE11_M_allocateEm
FN:343,_ZNSt12_Vector_baseIN7testing14TestPartResultESaIS1_EE11_M_allocateEm
FNDA:0,_ZNSt12_Vector_baseIN7testing14TestPartResultESaIS1_EE11_M_allocateEm
FN:343,_ZNSt12_Vector_baseISt6vectorIdSaIdEESaIS2_EE11_M_allocateEm
FNDA:0,_ZNSt12_Vector_baseISt6vectorIdSaIdEESaIS2_EE11_M_allocateEm
FN:343,_ZNSt12_Vector_baseIN7testing12TestPropertyESaIS1_EE11_M_allocateEm
FNDA:0,_ZNSt12_Vector_baseIN7testing12TestPropertyESaIS1_EE11_M_allocateEm
FN:343,_ZNSt12_Vector_baseINSt7__cxx1112basic_stringIcSt11char_traitsIcESaIcEEESaIS5_EE11_M_allocateEm
FNDA:0,_ZNSt12_Vector_baseINSt7__cxx1112basic_stringIcSt11char_traitsIcESaIcEEESaIS5_EE11_M_allocateEm
FN:343,_ZNSt12_Vector_baseIPN7testing8TestInfoESaIS2_EE11_M_allocateEm
FNDA:9,_ZNSt12_Vector_baseIPN7testing8TestInfoESaIS2_EE11_M_allocateEm
FN:350,_ZNSt12_Vector_baseIdSaIdEE13_M_deallocateEPdm
FNDA:0,_ZNSt12_Vector_baseIdSaIdEE13_M_deallocateEPdm
FN:350,_ZNSt12_Vector_baseIN7testing8internal13edit_distance8EditTypeESaIS3_EE13_M_deallocateEPS3_m
FNDA:0,_ZNSt12_Vector_baseIN7testing8internal13edit_distance8EditTypeESaIS3_EE13_M_deallocateEPS3_m
FN:350,_ZNSt12_Vector_baseISt6vectorIdSaIdEESaIS2_EE13_M_deallocateEPS2_m
FNDA:0,_ZNSt12_Vector_baseISt6vectorIdSaIdEESaIS2_EE13_M_deallocateEPS2_m
FN:350,_ZNSt12_Vector_baseIPN7testing17TestEventListenerESaIS2_EE13_M_deallocateEPS2_m
FNDA:2,_ZNSt12_Vector_baseIPN7testing17TestEventListenerESaIS2_EE13_M_deallocateEPS2_m
FN:350,_ZNSt12_Vector_baseIN7testing14TestPartResultESaIS1_EE13_M_deallocateEPS1_m
FNDA:23,_ZNSt12_Vector_baseIN7testing14TestPartResultESaIS1_EE13_M_deallocateEPS1_m
FN:350,_ZNSt12_Vector_baseImSaImEE13_M_deallocateEPmm
FNDA:0,_ZNSt12_Vector_baseImSaImEE13_M_deallocateEPmm
FN:350,_ZNSt12_Vector_baseIPN7testing11EnvironmentESaIS2_EE13_M_deallocateEPS2_m
FNDA:1,_ZNSt12_Vector_baseIPN7testing11EnvironmentESaIS2_EE13_M_deallocateEPS2_m
FN:350,_ZNSt12_Vector_baseIPN7testing9TestSuiteESaIS2_EE13_M_deallocateEPS2_m
FNDA:3,_ZNSt12_Vector_baseIPN7testing9TestSuiteESaIS2_EE13_M_deallocateEPS2_m
FN:350,_ZNSt12_Vector_baseIPN7testing8internal30ParameterizedTestSuiteInfoBaseESaIS3_EE13_M_deallocateEPS3_m
FNDA:1,_ZNSt12_Vector_baseIPN7testing8internal30ParameterizedTestSuiteInfoBaseESaIS3_EE13_M_deallocateEPS3_m
FN:350,_ZNSt12_Vector_baseISt6vectorIN7testing8internal13edit_distance8EditTypeESaIS4_EESaIS6_EE13_M_deallocateEPS6_m
FNDA:0,_ZNSt12_Vector_baseISt6vectorIN7testing8internal13edit_distance8EditTypeESaIS4_EESaIS6_EE13_M_deallocateEPS6_m
FN:350,_ZNSt12_Vector_baseINSt7__cxx1112basic_stringIcSt11char_traitsIcESaIcEEESaIS5_EE13_M_deallocateEPS5_m
FNDA:0,_ZNSt12_Vector_baseINSt7__cxx1112basic_stringIcSt11char_traitsIcESaIcEEESaIS5_EE13_M_deallocateEPS5_m
FN:350,_ZNSt12_Vector_baseIN7testing8internal9TraceInfoESaIS2_EE13_M_deallocateEPS2_m
FNDA:0,_ZNSt12_Vector_baseIN7testing8internal9TraceInfoESaIS2_EE13_M_deallocateEPS2_m
FN:350,_ZNSt12_Vector_baseIPN7testing8TestInfoESaIS2_EE13_M_deallocateEPS2_m
FNDA:11,_ZNSt12_Vector_baseIPN7testing8TestInfoESaIS2_EE13_M_deallocateEPS2_m
FN:350,_ZNSt12_Vector_baseIiSaIiEE13_M_deallocateEPim
FNDA:14,_ZNSt12_Vector_baseIiSaIiEE13_M_deallocateEPim
FN:350,_ZNSt12_Vector_baseIN7testing12TestPropertyESaIS1_EE13_M_deallocateEPS1_m
FNDA:23,_ZNSt12_Vector_baseIN7testing12TestPropertyESaIS1_EE13_M_deallocateEPS1_m
FN:359,_ZNSt12_Vector_baseIN7testing8internal13edit_distance8EditTypeESaIS3_EE17_M_create_storageEm
FNDA:0,_ZNSt12_Vector_baseIN7testing8internal13edit_distance8EditTypeESaIS3_EE17_M_create_storageEm
FN:359,_ZNSt12_Vector_baseISt6vectorIN7testing8internal13edit_distance8EditTypeESaIS4_EESaIS6_EE17_M_create_storageEm
FNDA:0,_ZNSt12_Vector_baseISt6vectorIN7testing8internal13edit_distance8EditTypeESaIS4_EESaIS6_EE17_M_create_storageEm
FN:359,_ZNSt12_Vector_baseINSt7__cxx1112basic_stringIcSt11char_traitsIcESaIcEEESaIS5_EE17_M_create_storageEm
FNDA:0,_ZNSt12_Vector_baseINSt7__cxx1112basic_stringIcSt11char_traitsIcESaIcEEESaIS5_EE17_M_create_storageEm
FN:359,_ZNSt12_Vector_baseISt6vectorIdSaIdEESaIS2_EE17_M_create_storageEm
FNDA:0,_ZNSt12_Vector_baseISt6vectorIdSaIdEESaIS2_EE17_M_create_storageEm
FN:359,_ZNSt12_Vector_baseIdSaIdEE17_M_create_storageEm
FNDA:0,_ZNSt12_Vector_baseIdSaIdEE17_M_create_storageEm
FN:431,_ZNSt6vectorIN7testing14TestPartResultESaIS1_EE19_S_nothrow_relocateESt17integral_constantIbLb1EE
FNDA:0,_ZNSt6vectorIN7testing14TestPartResultESaIS1_EE19_S_nothrow_relocateESt17integral_constantIbLb1EE
FN:431,_ZNSt6vectorIPN7testing17TestEventListenerESaIS2_EE19_S_nothrow_relocateESt17integral_constantIbLb1EE
FNDA:2,_ZNSt6vectorIPN7testing17TestEventListenerESaIS2_EE19_S_nothrow_relocateESt17integral_constantIbLb1EE
FN:431,_ZNSt6vectorIN7testing8internal9TraceInfoESaIS2_EE19_S_nothrow_relocateESt17integral_constantIbLb1EE
FNDA:0,_ZNSt6vectorIN7testing8internal9TraceInfoESaIS2_EE19_S_nothrow_relocateESt17integral_constantIbLb1EE
FN:431,_ZNSt6vectorIPN7testing11EnvironmentESaIS2_EE19_S_nothrow_relocateESt17integral_constantIbLb1EE
FNDA:0,_ZNSt6vectorIPN7testing11EnvironmentESaIS2_EE19_S_nothrow_relocateESt17integral_constantIbLb1EE
FN:431,_ZNSt6vectorIN7testing12TestPropertyESaIS1_EE19_S_nothrow_relocateESt17integral_constantIbLb1EE
FNDA:0,_ZNSt6vectorIN7testing12TestPropertyESaIS1_EE19_S_nothrow_relocateESt17integral_constantIbLb1EE
FN:431,_ZNSt6vectorIiSaIiEE19_S_nothrow_relocateESt17integral_constantIbLb1EE
FNDA:22,_ZNSt6vectorIiSaIiEE19_S_nothrow_relocateESt17integral_constantIbLb1EE
FN:431,_ZNSt6vectorIN7testing8internal13edit_distance8EditTypeESaIS3_EE19_S_nothrow_relocateESt17integral_constantIbLb1EE
FNDA:0,_ZNSt6vectorIN7testing8internal13edit_distance8EditTypeESaIS3_EE19_S_nothrow_relocateESt17integral_constantIbLb1EE
FN:431,_ZNSt6vectorImSaImEE19_S_nothrow_relocateESt17integral_constantIbLb1EE
FNDA:0,_ZNSt6vectorImSaImEE19_S_nothrow_relocateESt17integral_constantIbLb1EE
FN:431,_ZNSt6vectorIPN7testing9TestSuiteESaIS2_EE19_S_nothrow_relocateESt17integral_constantIbLb1EE
FNDA:4,_ZNSt6vectorIPN7testing9TestSuiteESaIS2_EE19_S_nothrow_relocateESt17integral_constantIbLb1EE
FN:431,_ZNSt6vectorINSt7__cxx1112basic_stringIcSt11char_traitsIcESaIcEEESaIS5_EE19_S_nothrow_relocateESt17integral_constantIbLb1EE
FNDA:22,_ZNSt6vectorINSt7__cxx1112basic_stringIcSt11char_traitsIcESaIcEEESaIS5_EE19_S_nothrow_relocateESt17integral_constantIbLb1EE
FN:431,_ZNSt6vectorIPN7testing8TestInfoESaIS2_EE19_S_nothrow_relocateESt17integral_constantIbLb1EE
FNDA:18,_ZNSt6vectorIPN7testing8TestInfoESaIS2_EE19_S_nothrow_relocateESt17integral_constantIbLb1EE
FN:444,_ZNSt6vectorIN7testing8internal13edit_distance8EditTypeESaIS3_EE15_S_use_relocateEv
FNDA:0,_ZNSt6vectorIN7testing8internal13edit_distance8EditTypeESaIS3_EE15_S_use_relocateEv
FN:444,_ZNSt6vectorINSt7__cxx1112basic_stringIcSt11char_traitsIcESaIcEEESaIS5_EE15_S_use_relocateEv
FNDA:22,_ZNSt6vectorINSt7__cxx1112basic_stringIcSt11char_traitsIcESaIcEEESaIS5_EE15_S_use_relocateEv
FN:444,_ZNSt6vectorIPN7testing11EnvironmentESaIS2_EE15_S_use_relocateEv
FNDA:0,_ZNSt6vectorIPN7testing11EnvironmentESaIS2_EE15_S_use_relocateEv
FN:444,_ZNSt6vectorIPN7testing9TestSuiteESaIS2_EE15_S_use_relocateEv
FNDA:4,_ZNSt6vectorIPN7testing9TestSuiteESaIS2_EE15_S_use_relocateEv
FN:444,_ZNSt6vectorIiSaIiEE15_S_use_relocateEv
FNDA:22,_ZNSt6vectorIiSaIiEE15_S_use_relocateEv
FN:444,_ZNSt6vectorIPN7testing17TestEventListenerESaIS2_EE15_S_use_relocateEv
FNDA:2,_ZNSt6vectorIPN7testing17TestEventListenerESaIS2_EE15_S_use_relocateEv
FN:444,_ZNSt6vectorImSaImEE15_S_use_relocateEv
FNDA:0,_ZNSt6vectorImSaImEE15_S_use_relocateEv
FN:444,_ZNSt6vectorIN7testing12TestPropertyESaIS1_EE15_S_use_relocateEv
FNDA:0,_ZNSt6vectorIN7testing12TestPropertyESaIS1_EE15_S_use_relocateEv
FN:444,_ZNSt6vectorIN7testing14TestPartResultESaIS1_EE15_S_use_relocateEv
FNDA:0,_ZNSt6vectorIN7testing14TestPartResultESaIS1_EE15_S_use_relocateEv
FN:444,_ZNSt6vectorIPN7testing8TestInfoESaIS2_EE15_S_use_relocateEv
FNDA:18,_ZNSt6vectorIPN7testing8TestInfoESaIS2_EE15_S_use_relocateEv
FN:444,_ZNSt6vectorIN7testing8internal9TraceInfoESaIS2_EE15_S_use_relocateEv
FNDA:0,_ZNSt6vectorIN7testing8internal9TraceInfoESaIS2_EE15_S_use_relocateEv
FN:453,_ZNSt6vectorIPN7testing8TestInfoESaIS2_EE14_S_do_relocateEPS2_S5_S5_RS3_St17integral_constantIbLb1EE
FNDA:18,_ZNSt6vectorIPN7testing8TestInfoESaIS2_EE14_S_do_relocateEPS2_S5_S5_RS3_St17integral_constantIbLb1EE
FN:453,_ZNSt6vectorIiSaIiEE14_S_do_relocateEPiS2_S2_RS0_St17integral_constantIbLb1EE
FNDA:22,_ZNSt6vectorIiSaIiEE14_S_do_relocateEPiS2_S2_RS0_St17integral_constantIbLb1EE
FN:453,_ZNSt6vectorIN7testing14TestPartResultESaIS1_EE14_S_do_relocateEPS1_S4_S4_RS2_St17integral_constantIbLb1EE
FNDA:0,_ZNSt6vectorIN7testing14TestPartResultESaIS1_EE14_S_do_relocateEPS1_S4_S4_RS2_St17integral_constantIbLb1EE
FN:453,_ZNSt6vectorIPN7testing11EnvironmentESaIS2_EE14_S_do_relocateEPS2_S5_S5_RS3_St17integral_constantIbLb1EE
FNDA:0,_ZNSt6vectorIPN7testing11EnvironmentESaIS2_EE14_S_do_relocateEPS2_S5_S5_RS3_St17integral_constantIbLb1EE
FN:453,_ZNSt6vectorIN7testing8internal9TraceInfoESaIS2_EE14_S_do_relocateEPS2_S5_S5_RS3_St17integral_constantIbLb1EE
FNDA:0,_ZNSt6vectorIN7testing8internal9TraceInfoESaIS2_EE14_S_do_relocateEPS2_S5_S5_RS3_St17integral_constantIbLb1EE
FN:453,_ZNSt6vectorIPN7testing9TestSuiteESaIS2_EE14_S_do_relocateEPS2_S5_S5_RS3_St17integral_constantIbLb1EE
FNDA:4,_ZNSt6vectorIPN7testing9TestSuiteESaIS2_EE14_S_do_relocateEPS2_S5_S5_RS3_St17integral_constantIbLb1EE
FN:453,_ZNSt6vectorImSaImEE14_S_do_relocateEPmS2_S2_RS0_St17integral_constantIbLb1EE
FNDA:0,_ZNSt6vectorImSaImEE14_S_do_relocateEPmS2_S2_RS0_St17integral_constantIbLb1EE
FN:453,_ZNSt6vectorINSt7__cxx1112basic_stringIcSt11char_traitsIcESaIcEEESaIS5_EE14_S_do_relocateEPS5_S8_S8_RS6_St17integral_constantIbLb1EE
FNDA:22,_ZNSt6vectorINSt7__cxx1112basic_stringIcSt11char_traitsIcESaIcEEESaIS5_EE14_S_do_relocateEPS5_S8_S8_RS6_St17integral_constantIbLb1EE
FN:453,_ZNSt6vectorIN7testing12TestPropertyESaIS1_EE14_S_do_relocateEPS1_S4_S4_RS2_St17integral_constantIbLb1EE
FNDA:0,_ZNSt6vectorIN7testing12TestPropertyESaIS1_EE14_S_do_relocateEPS1_S4_S4_RS2_St17integral_constantIbLb1EE
FN:453,_ZNSt6vectorIN7testing8internal13edit_distance8EditTypeESaIS3_EE14_S_do_relocateEPS3_S6_S6_RS4_St17integral_constantIbLb1EE
FNDA:0,_ZNSt6vectorIN7testing8internal13edit_distance8EditTypeESaIS3_EE14_S_do_relocateEPS3_S6_S6_RS4_St17integral_constantIbLb1EE
FN:453,_ZNSt6vectorIPN7testing17TestEventListenerESaIS2_EE14_S_do_relocateEPS2_S5_S5_RS3_St17integral_constantIbLb1EE
FNDA:2,_ZNSt6vectorIPN7testing17TestEventListenerESaIS2_EE14_S_do_relocateEPS2_S5_S5_RS3_St17integral_constantIbLb1EE
FN:465,_ZNSt6vectorIPN7testing11EnvironmentESaIS2_EE11_S_relocateEPS2_S5_S5_RS3_
FNDA:0,_ZNSt6vectorIPN7testing11EnvironmentESaIS2_EE11_S_relocateEPS2_S5_S5_RS3_
FN:465,_ZNSt6vectorImSaImEE11_S_relocateEPmS2_S2_RS0_
FNDA:0,_ZNSt6vectorImSaImEE11_S_relocateEPmS2_S2_RS0_
FN:465,_ZNSt6vectorIPN7testing17TestEventListenerESaIS2_EE11_S_relocateEPS2_S5_S5_RS3_
FNDA:2,_ZNSt6vectorIPN7testing17TestEventListenerESaIS2_EE11_S_relocateEPS2_S5_S5_RS3_
FN:465,_ZNSt6vectorIN7testing8internal9TraceInfoESaIS2_EE11_S_relocateEPS2_S5_S5_RS3_
FNDA:0,_ZNSt6vectorIN7testing8internal9TraceInfoESaIS2_EE11_S_relocateEPS2_S5_S5_RS3_
FN:465,_ZNSt6vectorINSt7__cxx1112basic_stringIcSt11char_traitsIcESaIcEEESaIS5_EE11_S_relocateEPS5_S8_S8_RS6_
FNDA:22,_ZNSt6vectorINSt7__cxx1112basic_stringIcSt11char_traitsIcESaIcEEESaIS5_EE11_S_relocateEPS5_S8_S8_RS6_
FN:465,_ZNSt6vectorIPN7testing8TestInfoESaIS2_EE11_S_relocateEPS2_S5_S5_RS3_
FNDA:18,_ZNSt6vectorIPN7testing8TestInfoESaIS2_EE11_S_relocateEPS2_S5_S5_RS3_
FN:465,_ZNSt6vectorIPN7testing9TestSuiteESaIS2_EE11_S_relocateEPS2_S5_S5_RS3_
FNDA:4,_ZNSt6vectorIPN7testing9TestSuiteESaIS2_EE11_S_relocateEPS2_S5_S5_RS3_
FN:465,_ZNSt6vectorIN7testing12TestPropertyESaIS1_EE11_S_relocateEPS1_S4_S4_RS2_
FNDA:0,_ZNSt6vectorIN7testing12TestPropertyESaIS1_EE11_S_relocateEPS1_S4_S4_RS2_
FN:465,_ZNSt6vectorIiSaIiEE11_S_relocateEPiS2_S2_RS0_
FNDA:22,_ZNSt6vectorIiSaIiEE11_S_relocateEPiS2_S2_RS0_
FN:465,_ZNSt6vectorIN7testing14TestPartResultESaIS1_EE11_S_relocateEPS1_S4_S4_RS2_
FNDA:0,_ZNSt6vectorIN7testing14TestPartResultESaIS1_EE11_S_relocateEPS1_S4_S4_RS2_
FN:465,_ZNSt6vectorIN7testing8internal13edit_distance8EditTypeESaIS3_EE11_S_relocateEPS3_S6_S6_RS4_
FNDA:0,_ZNSt6vectorIN7testing8internal13edit_distance8EditTypeESaIS3_EE11_S_relocateEPS3_S6_S6_RS4_
FN:487,_ZNSt6vectorINSt7__cxx1112basic_stringIcSt11char_traitsIcESaIcEEESaIS5_EEC2Ev
FNDA:17,_ZNSt6vectorINSt7__cxx1112basic_stringIcSt11char_traitsIcESaIcEEESaIS5_EEC2Ev
FN:487,_ZNSt6vectorImSaImEEC2Ev
FNDA:0,_ZNSt6vectorImSaImEEC2Ev
FN:487,_ZNSt6vectorIPN7testing8TestInfoESaIS2_EEC2Ev
FNDA:2,_ZNSt6vectorIPN7testing8TestInfoESaIS2_EEC2Ev
FN:487,_ZNSt6vectorIN7testing8internal13edit_distance8EditTypeESaIS3_EEC2Ev
FNDA:0,_ZNSt6vectorIN7testing8internal13edit_distance8EditTypeESaIS3_EEC2Ev
FN:487,_ZNSt6vectorIN7testing12TestPropertyESaIS1_EEC2Ev
FNDA:23,_ZNSt6vectorIN7testing12TestPropertyESaIS1_EEC2Ev
FN:487,_ZNSt6vectorIiSaIiEEC2Ev
FNDA:3,_ZNSt6vectorIiSaIiEEC2Ev
FN:487,_ZNSt6vectorIPN7testing8internal30ParameterizedTestSuiteInfoBaseESaIS3_EEC2Ev
FNDA:1,_ZNSt6vectorIPN7testing8internal30ParameterizedTestSuiteInfoBaseESaIS3_EEC2Ev
FN:487,_ZNSt6vectorIN7testing14TestPartResultESaIS1_EEC2Ev
FNDA:23,_ZNSt6vectorIN7testing14TestPartResultESaIS1_EEC2Ev
FN:487,_ZNSt6vectorIPN7testing9TestSuiteESaIS2_EEC2Ev
FNDA:1,_ZNSt6vectorIPN7testing9TestSuiteESaIS2_EEC2Ev
FN:487,_ZNSt6vectorIPN7testing17TestEventListenerESaIS2_EEC2Ev
FNDA:1,_ZNSt6vectorIPN7testing17TestEventListenerESaIS2_EEC2Ev
FN:487,_ZNSt6vectorIN7testing8internal9TraceInfoESaIS2_EEC2Ev
FNDA:0,_ZNSt6vectorIN7testing8internal9TraceInfoESaIS2_EEC2Ev
FN:487,_ZNSt6vectorIPN7testing11EnvironmentESaIS2_EEC2Ev
FNDA:1,_ZNSt6vectorIPN7testing11EnvironmentESaIS2_EEC2Ev
FN:497,_ZNSt6vectorINSt7__cxx1112basic_stringIcSt11char_traitsIcESaIcEEESaIS5_EEC2ERKS6_
FNDA:1,_ZNSt6vectorINSt7__cxx1112basic_stringIcSt11char_traitsIcESaIcEEESaIS5_EEC2ERKS6_
FN:510,_ZNSt6vectorIN7testing8internal13edit_distance8EditTypeESaIS3_EEC2EmRKS4_
FNDA:0,_ZNSt6vectorIN7testing8internal13edit_distance8EditTypeESaIS3_EEC2EmRKS4_
FN:510,_ZNSt6vectorIdSaIdEEC2EmRKS0_
FNDA:0,_ZNSt6vectorIdSaIdEEC2EmRKS0_
FN:522,_ZNSt6vectorIS_IN7testing8internal13edit_distance8EditTypeESaIS3_EESaIS5_EEC2EmRKS5_RKS6_
FNDA:0,_ZNSt6vectorIS_IN7testing8internal13edit_distance8EditTypeESaIS3_EESaIS5_EEC2EmRKS5_RKS6_
FN:522,_ZNSt6vectorIS_IdSaIdEESaIS1_EEC2EmRKS1_RKS2_
FNDA:0,_ZNSt6vectorIS_IdSaIdEESaIS1_EEC2EmRKS1_RKS2_
FN:553,_ZNSt6vectorIdSaIdEEC2ERKS1_
FNDA:0,_ZNSt6vectorIdSaIdEEC2ERKS1_
FN:553,_ZNSt6vectorIN7testing8internal13edit_distance8EditTypeESaIS3_EEC2ERKS5_
FNDA:0,_ZNSt6vectorIN7testing8internal13edit_distance8EditTypeESaIS3_EEC2ERKS5_
FN:553,_ZNSt6vectorINSt7__cxx1112basic_stringIcSt11char_traitsIcESaIcEEESaIS5_EEC2ERKS7_
FNDA:0,_ZNSt6vectorINSt7__cxx1112basic_stringIcSt11char_traitsIcESaIcEEESaIS5_EEC2ERKS7_
FN:653,_ZNSt6vectorINSt7__cxx1112basic_stringIcSt11char_traitsIcESaIcEEESaIS5_EEC2IPKPKcvEET_SD_RKS6_
FNDA:0,_ZNSt6vectorINSt7__cxx1112basic_stringIcSt11char_traitsIcESaIcEEESaIS5_EEC2IPKPKcvEET_SD_RKS6_
FN:678,_ZNSt6vectorINSt7__cxx1112basic_stringIcSt11char_traitsIcESaIcEEESaIS5_EED2Ev
FNDA:0,_ZNSt6vectorINSt7__cxx1112basic_stringIcSt11char_traitsIcESaIcEEESaIS5_EED2Ev
FN:678,_ZNSt6vectorIPN7testing8internal30ParameterizedTestSuiteInfoBaseESaIS3_EED2Ev
FNDA:1,_ZNSt6vectorIPN7testing8internal30ParameterizedTestSuiteInfoBaseESaIS3_EED2Ev
FN:678,_ZNSt6vectorIN7testing8internal9TraceInfoESaIS2_EED2Ev
FNDA:0,_ZNSt6vectorIN7testing8internal9TraceInfoESaIS2_EED2Ev
FN:678,_ZNSt6vectorIdSaIdEED2Ev
FNDA:0,_ZNSt6vectorIdSaIdEED2Ev
FN:678,_ZNSt6vectorIS_IdSaIdEESaIS1_EED2Ev
FNDA:0,_ZNSt6vectorIS_IdSaIdEESaIS1_EED2Ev
FN:678,_ZNSt6vectorIN7testing8internal13edit_distance8EditTypeESaIS3_EED2Ev
FNDA:0,_ZNSt6vectorIN7testing8internal13edit_distance8EditTypeESaIS3_EED2Ev
FN:678,_ZNSt6vectorIS_IN7testing8internal13edit_distance8EditTypeESaIS3_EESaIS5_EED2Ev
FNDA:0,_ZNSt6vectorIS_IN7testing8internal13edit_distance8EditTypeESaIS3_EESaIS5_EED2Ev
FN:678,_ZNSt6vectorImSaImEED2Ev
FNDA:0,_ZNSt6vectorImSaImEED2Ev
FN:678,_ZNSt6vectorIN7testing14TestPartResultESaIS1_EED2Ev
FNDA:23,_ZNSt6vectorIN7testing14TestPartResultESaIS1_EED2Ev
FN:678,_ZNSt6vectorIN7testing12TestPropertyESaIS1_EED2Ev
FNDA:23,_ZNSt6vectorIN7testing12TestPropertyESaIS1_EED2Ev
FN:678,_ZNSt6vectorIPN7testing8TestInfoESaIS2_EED2Ev
FNDA:2,_ZNSt6vectorIPN7testing8TestInfoESaIS2_EED2Ev
FN:678,_ZNSt6vectorIiSaIiEED2Ev
FNDA:3,_ZNSt6vectorIiSaIiEED2Ev
FN:678,_ZNSt6vectorIPN7testing17TestEventListenerESaIS2_EED2Ev
FNDA:1,_ZNSt6vectorIPN7testing17TestEventListenerESaIS2_EED2Ev
FN:678,_ZNSt6vectorIPN7testing11EnvironmentESaIS2_EED2Ev
FNDA:1,_ZNSt6vectorIPN7testing11EnvironmentESaIS2_EED2Ev
FN:678,_ZNSt6vectorIPN7testing9TestSuiteESaIS2_EED2Ev
FNDA:1,_ZNSt6vectorIPN7testing9TestSuiteESaIS2_EED2Ev
FN:709,_ZNSt6vectorINSt7__cxx1112basic_stringIcSt11char_traitsIcESaIcEEESaIS5_EEaSEOS7_
FNDA:1,_ZNSt6vectorINSt7__cxx1112basic_stringIcSt11char_traitsIcESaIcEEESaIS5_EEaSEOS7_
FN:811,_ZNSt6vectorIN7testing8internal9TraceInfoESaIS2_EE5beginEv
FNDA:0,_ZNSt6vectorIN7testing8internal9TraceInfoESaIS2_EE5beginEv
FN:811,_ZNSt6vectorIPN7testing11EnvironmentESaIS2_EE5beginEv
FNDA:1,_ZNSt6vectorIPN7testing11EnvironmentESaIS2_EE5beginEv
FN:811,_ZNSt6vectorImSaImEE5beginEv
FNDA:0,_ZNSt6vectorImSaImEE5beginEv
FN:811,_ZNSt6vectorINSt7__cxx1112basic_stringIcSt11char_traitsIcESaIcEEESaIS5_EE5beginEv
FNDA:26,_ZNSt6vectorINSt7__cxx1112basic_stringIcSt11char_traitsIcESaIcEEESaIS5_EE5beginEv
FN:811,_ZNSt6vectorIPN7testing8TestInfoESaIS2_EE5beginEv
FNDA:13,_ZNSt6vectorIPN7testing8TestInfoESaIS2_EE5beginEv
FN:811,_ZNSt6vectorIN7testing12TestPropertyESaIS1_EE5beginEv
FNDA:0,_ZNSt6vectorIN7testing12TestPropertyESaIS1_EE5beginEv
FN:811,_ZNSt6vectorIPN7testing17TestEventListenerESaIS2_EE5beginEv
FNDA:1,_ZNSt6vectorIPN7testing17TestEventListenerESaIS2_EE5beginEv
FN:811,_ZNSt6vectorIN7testing14TestPartResultESaIS1_EE5beginEv
FNDA:0,_ZNSt6vectorIN7testing14TestPartResultESaIS1_EE5beginEv
FN:811,_ZNSt6vectorIiSaIiEE5beginEv
FNDA:11,_ZNSt6vectorIiSaIiEE5beginEv
FN:811,_ZNSt6vectorIPN7testing8internal30ParameterizedTestSuiteInfoBaseESaIS3_EE5beginEv
FNDA:2,_ZNSt6vectorIPN7testing8internal30ParameterizedTestSuiteInfoBaseESaIS3_EE5beginEv
FN:811,_ZNSt6vectorIPN7testing9TestSuiteESaIS2_EE5beginEv
FNDA:3,_ZNSt6vectorIPN7testing9TestSuiteESaIS2_EE5beginEv
FN:811,_ZNSt6vectorIN7testing8internal13edit_distance8EditTypeESaIS3_EE5beginEv
FNDA:0,_ZNSt6vectorIN7testing8internal13edit_distance8EditTypeESaIS3_EE5beginEv
FN:820,_ZNKSt6vectorIN7testing8internal9TraceInfoESaIS2_EE5beginEv
FNDA:0,_ZNKSt6vectorIN7testing8internal9TraceInfoESaIS2_EE5beginEv
FN:820,_ZNKSt6vectorIPN7testing17TestEventListenerESaIS2_EE5beginEv
FNDA:1,_ZNKSt6vectorIPN7testing17TestEventListenerESaIS2_EE5beginEv
FN:820,_ZNKSt6vectorIPN7testing9TestSuiteESaIS2_EE5beginEv
FNDA:26,_ZNKSt6vectorIPN7testing9TestSuiteESaIS2_EE5beginEv
FN:820,_ZNKSt6vectorIPN7testing8TestInfoESaIS2_EE5beginEv
FNDA:22,_ZNKSt6vectorIPN7testing8TestInfoESaIS2_EE5beginEv
FN:820,_ZNKSt6vectorIPN7testing11EnvironmentESaIS2_EE5beginEv
FNDA:3,_ZNKSt6vectorIPN7testing11EnvironmentESaIS2_EE5beginEv
FN:820,_ZNKSt6vectorIN7testing14TestPartResultESaIS1_EE5beginEv
FNDA:144,_ZNKSt6vectorIN7testing14TestPartResultESaIS1_EE5beginEv
FN:820,_ZNKSt6vectorINSt7__cxx1112basic_stringIcSt11char_traitsIcESaIcEEESaIS5_EE5beginEv
FNDA:0,_ZNKSt6vectorINSt7__cxx1112basic_stringIcSt11char_traitsIcESaIcEEESaIS5_EE5beginEv
FN:820,_ZNKSt6vectorIdSaIdEE5beginEv
FNDA:0,_ZNKSt6vectorIdSaIdEE5beginEv
FN:820,_ZNKSt6vectorIN7testing8internal13edit_distance8EditTypeESaIS3_EE5beginEv
FNDA:0,_ZNKSt6vectorIN7testing8internal13edit_distance8EditTypeESaIS3_EE5beginEv
FN:829,_ZNSt6vectorIN7testing8internal13edit_distance8EditTypeESaIS3_EE3endEv
FNDA:0,_ZNSt6vectorIN7testing8internal13edit_distance8EditTypeESaIS3_EE3endEv
FN:829,_ZNSt6vectorIN7testing8internal9TraceInfoESaIS2_EE3endEv
FNDA:0,_ZNSt6vectorIN7testing8internal9TraceInfoESaIS2_EE3endEv
FN:829,_ZNSt6vectorIiSaIiEE3endEv
FNDA:11,_ZNSt6vectorIiSaIiEE3endEv
FN:829,_ZNSt6vectorIPN7testing8internal30ParameterizedTestSuiteInfoBaseESaIS3_EE3endEv
FNDA:2,_ZNSt6vectorIPN7testing8internal30ParameterizedTestSuiteInfoBaseESaIS3_EE3endEv
FN:829,_ZNSt6vectorIPN7testing11EnvironmentESaIS2_EE3endEv
FNDA:1,_ZNSt6vectorIPN7testing11EnvironmentESaIS2_EE3endEv
FN:829,_ZNSt6vectorIPN7testing9TestSuiteESaIS2_EE3endEv
FNDA:40,_ZNSt6vectorIPN7testing9TestSuiteESaIS2_EE3endEv
FN:829,_ZNSt6vectorIPN7testing17TestEventListenerESaIS2_EE3endEv
FNDA:1,_ZNSt6vectorIPN7testing17TestEventListenerESaIS2_EE3endEv
FN:829,_ZNSt6vectorImSaImEE3endEv
FNDA:0,_ZNSt6vectorImSaImEE3endEv
FN:829,_ZNSt6vectorIPN7testing8TestInfoESaIS2_EE3endEv
FNDA:13,_ZNSt6vectorIPN7testing8TestInfoESaIS2_EE3endEv
FN:829,_ZNSt6vectorIN7testing12TestPropertyESaIS1_EE3endEv
FNDA:0,_ZNSt6vectorIN7testing12TestPropertyESaIS1_EE3endEv
FN:829,_ZNSt6vectorIN7testing14TestPartResultESaIS1_EE3endEv
FNDA:0,_ZNSt6vectorIN7testing14TestPartResultESaIS1_EE3endEv
FN:829,_ZNSt6vectorINSt7__cxx1112basic_stringIcSt11char_traitsIcESaIcEEESaIS5_EE3endEv
FNDA:17,_ZNSt6vectorINSt7__cxx1112basic_stringIcSt11char_traitsIcESaIcEEESaIS5_EE3endEv
FN:838,_ZNKSt6vectorIPN7testing9TestSuiteESaIS2_EE3endEv
FNDA:34,_ZNKSt6vectorIPN7testing9TestSuiteESaIS2_EE3endEv
FN:838,_ZNKSt6vectorIPN7testing11EnvironmentESaIS2_EE3endEv
FNDA:3,_ZNKSt6vectorIPN7testing11EnvironmentESaIS2_EE3endEv
FN:838,_ZNKSt6vectorIN7testing8internal13edit_distance8EditTypeESaIS3_EE3endEv
FNDA:0,_ZNKSt6vectorIN7testing8internal13edit_distance8EditTypeESaIS3_EE3endEv
FN:838,_ZNKSt6vectorINSt7__cxx1112basic_stringIcSt11char_traitsIcESaIcEEESaIS5_EE3endEv
FNDA:0,_ZNKSt6vectorINSt7__cxx1112basic_stringIcSt11char_traitsIcESaIcEEESaIS5_EE3endEv
FN:838,_ZNKSt6vectorIN7testing8internal9TraceInfoESaIS2_EE3endEv
FNDA:0,_ZNKSt6vectorIN7testing8internal9TraceInfoESaIS2_EE3endEv
FN:838,_ZNKSt6vectorIdSaIdEE3endEv
FNDA:0,_ZNKSt6vectorIdSaIdEE3endEv
FN:838,_ZNKSt6vectorIN7testing14TestPartResultESaIS1_EE3endEv
FNDA:144,_ZNKSt6vectorIN7testing14TestPartResultESaIS1_EE3endEv
FN:838,_ZNKSt6vectorIPN7testing8TestInfoESaIS2_EE3endEv
FNDA:202,_ZNKSt6vectorIPN7testing8TestInfoESaIS2_EE3endEv
FN:838,_ZNKSt6vectorIPN7testing17TestEventListenerESaIS2_EE3endEv
FNDA:1,_ZNKSt6vectorIPN7testing17TestEventListenerESaIS2_EE3endEv
FN:847,_ZNSt6vectorIPN7testing9TestSuiteESaIS2_EE6rbeginEv
FNDA:37,_ZNSt6vectorIPN7testing9TestSuiteESaIS2_EE6rbeginEv
FN:847,_ZNSt6vectorIPN7testing11EnvironmentESaIS2_EE6rbeginEv
FNDA:1,_ZNSt6vectorIPN7testing11EnvironmentESaIS2_EE6rbeginEv
FN:865,_ZNSt6vectorIPN7testing11EnvironmentESaIS2_EE4rendEv
FNDA:1,_ZNSt6vectorIPN7testing11EnvironmentESaIS2_EE4rendEv
FN:884,_ZNKSt6vectorIPN7testing17TestEventListenerESaIS2_EE6cbeginEv
FNDA:0,_ZNKSt6vectorIPN7testing17TestEventListenerESaIS2_EE6cbeginEv
FN:884,_ZNKSt6vectorIPN7testing9TestSuiteESaIS2_EE6cbeginEv
FNDA:0,_ZNKSt6vectorIPN7testing9TestSuiteESaIS2_EE6cbeginEv
FN:884,_ZNKSt6vectorINSt7__cxx1112basic_stringIcSt11char_traitsIcESaIcEEESaIS5_EE6cbeginEv
FNDA:7,_ZNKSt6vectorINSt7__cxx1112basic_stringIcSt11char_traitsIcESaIcEEESaIS5_EE6cbeginEv
FN:893,_ZNKSt6vectorINSt7__cxx1112basic_stringIcSt11char_traitsIcESaIcEEESaIS5_EE4cendEv
FNDA:7,_ZNKSt6vectorINSt7__cxx1112basic_stringIcSt11char_traitsIcESaIcEEESaIS5_EE4cendEv
FN:918,_ZNKSt6vectorIN7testing8internal13edit_distance8EditTypeESaIS3_EE4sizeEv
FNDA:0,_ZNKSt6vectorIN7testing8internal13edit_distance8EditTypeESaIS3_EE4sizeEv
FN:918,_ZNKSt6vectorIPN7testing11EnvironmentESaIS2_EE4sizeEv
FNDA:0,_ZNKSt6vectorIPN7testing11EnvironmentESaIS2_EE4sizeEv
FN:918,_ZNKSt6vectorINSt7__cxx1112basic_stringIcSt11char_traitsIcESaIcEEESaIS5_EE4sizeEv
FNDA:0,_ZNKSt6vectorINSt7__cxx1112basic_stringIcSt11char_traitsIcESaIcEEESaIS5_EE4sizeEv
FN:918,_ZNKSt6vectorIPN7testing8TestInfoESaIS2_EE4sizeEv
FNDA:58,_ZNKSt6vectorIPN7testing8TestInfoESaIS2_EE4sizeEv
FN:918,_ZNKSt6vectorIN7testing12TestPropertyESaIS1_EE4sizeEv
FNDA:0,_ZNKSt6vectorIN7testing12TestPropertyESaIS1_EE4sizeEv
FN:918,_ZNKSt6vectorIN7testing8internal9TraceInfoESaIS2_EE4sizeEv
FNDA:0,_ZNKSt6vectorIN7testing8internal9TraceInfoESaIS2_EE4sizeEv
FN:918,_ZNKSt6vectorIiSaIiEE4sizeEv
FNDA:110,_ZNKSt6vectorIiSaIiEE4sizeEv
FN:918,_ZNKSt6vectorIN7testing14TestPartResultESaIS1_EE4sizeEv
FNDA:211,_ZNKSt6vectorIN7testing14TestPartResultESaIS1_EE4sizeEv
FN:918,_ZNKSt6vectorImSaImEE4sizeEv
FNDA:0,_ZNKSt6vectorImSaImEE4sizeEv
FN:918,_ZNKSt6vectorIPN7testing9TestSuiteESaIS2_EE4sizeEv
FNDA:29,_ZNKSt6vectorIPN7testing9TestSuiteESaIS2_EE4sizeEv
FN:918,_ZNKSt6vectorIS_IdSaIdEESaIS1_EE4sizeEv
FNDA:0,_ZNKSt6vectorIS_IdSaIdEESaIS1_EE4sizeEv
FN:918,_ZNKSt6vectorIPN7testing17TestEventListenerESaIS2_EE4sizeEv
FNDA:89,_ZNKSt6vectorIPN7testing17TestEventListenerESaIS2_EE4sizeEv
FN:918,_ZNKSt6vectorIdSaIdEE4sizeEv
FNDA:0,_ZNKSt6vectorIdSaIdEE4sizeEv
FN:923,_ZNKSt6vectorIPN7testing9TestSuiteESaIS2_EE8max_sizeEv
FNDA:4,_ZNKSt6vectorIPN7testing9TestSuiteESaIS2_EE8max_sizeEv
FN:923,_ZNKSt6vectorIN7testing8internal13edit_distance8EditTypeESaIS3_EE8max_sizeEv
FNDA:0,_ZNKSt6vectorIN7testing8internal13edit_distance8EditTypeESaIS3_EE8max_sizeEv
FN:923,_ZNKSt6vectorIN7testing8internal9TraceInfoESaIS2_EE8max_sizeEv
FNDA:0,_ZNKSt6vectorIN7testing8internal9TraceInfoESaIS2_EE8max_sizeEv
FN:923,_ZNKSt6vectorImSaImEE8max_sizeEv
FNDA:0,_ZNKSt6vectorImSaImEE8max_sizeEv
FN:923,_ZNKSt6vectorIiSaIiEE8max_sizeEv
FNDA:22,_ZNKSt6vectorIiSaIiEE8max_sizeEv
FN:923,_ZNKSt6vectorIPN7testing8TestInfoESaIS2_EE8max_sizeEv
FNDA:18,_ZNKSt6vectorIPN7testing8TestInfoESaIS2_EE8max_sizeEv
FN:923,_ZNKSt6vectorIPN7testing17TestEventListenerESaIS2_EE8max_sizeEv
FNDA:2,_ZNKSt6vectorIPN7testing17TestEventListenerESaIS2_EE8max_sizeEv
FN:923,_ZNKSt6vectorINSt7__cxx1112basic_stringIcSt11char_traitsIcESaIcEEESaIS5_EE8max_sizeEv
FNDA:22,_ZNKSt6vectorINSt7__cxx1112basic_stringIcSt11char_traitsIcESaIcEEESaIS5_EE8max_sizeEv
FN:923,_ZNKSt6vectorIPN7testing11EnvironmentESaIS2_EE8max_sizeEv
FNDA:0,_ZNKSt6vectorIPN7testing11EnvironmentESaIS2_EE8max_sizeEv
FN:923,_ZNKSt6vectorIN7testing12TestPropertyESaIS1_EE8max_sizeEv
FNDA:0,_ZNKSt6vectorIN7testing12TestPropertyESaIS1_EE8max_sizeEv
FN:923,_ZNKSt6vectorIN7testing14TestPartResultESaIS1_EE8max_sizeEv
FNDA:0,_ZNKSt6vectorIN7testing14TestPartResultESaIS1_EE8max_sizeEv
FN:998,_ZNKSt6vectorINSt7__cxx1112basic_stringIcSt11char_traitsIcESaIcEEESaIS5_EE8capacityEv
FNDA:4,_ZNKSt6vectorINSt7__cxx1112basic_stringIcSt11char_traitsIcESaIcEEESaIS5_EE8capacityEv
FN:1007,_ZNKSt6vectorIPN7testing9TestSuiteESaIS2_EE5emptyEv
FNDA:20,_ZNKSt6vectorIPN7testing9TestSuiteESaIS2_EE5emptyEv
FN:1007,_ZNKSt6vectorINSt7__cxx1112basic_stringIcSt11char_traitsIcESaIcEEESaIS5_EE5emptyEv
FNDA:2,_ZNKSt6vectorINSt7__cxx1112basic_stringIcSt11char_traitsIcESaIcEEESaIS5_EE5emptyEv
FN:1007,_ZNKSt6vectorIN7testing8internal9TraceInfoESaIS2_EE5emptyEv
FNDA:0,_ZNKSt6vectorIN7testing8internal9TraceInfoESaIS2_EE5emptyEv
FN:1043,_ZNSt6vectorIiSaIiEEixEm
FNDA:22,_ZNSt6vectorIiSaIiEEixEm
FN:1043,_ZNSt6vectorIN7testing8internal9TraceInfoESaIS2_EEixEm
FNDA:0,_ZNSt6vectorIN7testing8internal9TraceInfoESaIS2_EEixEm
FN:1043,_ZNSt6vectorIPN7testing17TestEventListenerESaIS2_EEixEm
FNDA:56,_ZNSt6vectorIPN7testing17TestEventListenerESaIS2_EEixEm
FN:1043,_ZNSt6vectorIN7testing8internal13edit_distance8EditTypeESaIS3_EEixEm
FNDA:0,_ZNSt6vectorIN7testing8internal13edit_distance8EditTypeESaIS3_EEixEm
FN:1043,_ZNSt6vectorIS_IN7testing8internal13edit_distance8EditTypeESaIS3_EESaIS5_EEixEm
FNDA:0,_ZNSt6vectorIS_IN7testing8internal13edit_distance8EditTypeESaIS3_EESaIS5_EEixEm
FN:1043,_ZNSt6vectorIdSaIdEEixEm
FNDA:0,_ZNSt6vectorIdSaIdEEixEm
FN:1043,_ZNSt6vectorIS_IdSaIdEESaIS1_EEixEm
FNDA:0,_ZNSt6vectorIS_IdSaIdEESaIS1_EEixEm
FN:1043,_ZNSt6vectorIPN7testing8TestInfoESaIS2_EEixEm
FNDA:20,_ZNSt6vectorIPN7testing8TestInfoESaIS2_EEixEm
FN:1043,_ZNSt6vectorINSt7__cxx1112basic_stringIcSt11char_traitsIcESaIcEEESaIS5_EEixEm
FNDA:0,_ZNSt6vectorINSt7__cxx1112basic_stringIcSt11char_traitsIcESaIcEEESaIS5_EEixEm
FN:1043,_ZNSt6vectorIPN7testing9TestSuiteESaIS2_EEixEm
FNDA:4,_ZNSt6vectorIPN7testing9TestSuiteESaIS2_EEixEm
FN:1061,_ZNKSt6vectorIN7testing12TestPropertyESaIS1_EEixEm
FNDA:0,_ZNKSt6vectorIN7testing12TestPropertyESaIS1_EEixEm
FN:1061,_ZNKSt6vectorIiSaIiEEixEm
FNDA:22,_ZNKSt6vectorIiSaIiEEixEm
FN:1061,_ZNKSt6vectorIN7testing14TestPartResultESaIS1_EEixEm
FNDA:0,_ZNKSt6vectorIN7testing14TestPartResultESaIS1_EEixEm
FN:1061,_ZNKSt6vectorIN7testing8internal13edit_distance8EditTypeESaIS3_EEixEm
FNDA:0,_ZNKSt6vectorIN7testing8internal13edit_distance8EditTypeESaIS3_EEixEm
FN:1061,_ZNKSt6vectorImSaImEEixEm
FNDA:0,_ZNKSt6vectorImSaImEEixEm
FN:1061,_ZNKSt6vectorINSt7__cxx1112basic_stringIcSt11char_traitsIcESaIcEEESaIS5_EEixEm
FNDA:0,_ZNKSt6vectorINSt7__cxx1112basic_stringIcSt11char_traitsIcESaIcEEESaIS5_EEixEm
FN:1061,_ZNKSt6vectorIPN7testing9TestSuiteESaIS2_EEixEm
FNDA:10,_ZNKSt6vectorIPN7testing9TestSuiteESaIS2_EEixEm
FN:1061,_ZNKSt6vectorIPN7testing8TestInfoESaIS2_EEixEm
FNDA:20,_ZNKSt6vectorIPN7testing8TestInfoESaIS2_EEixEm
FN:1070,_ZNKSt6vectorIN7testing12TestPropertyESaIS1_EE14_M_range_checkEm
FNDA:0,_ZNKSt6vectorIN7testing12TestPropertyESaIS1_EE14_M_range_checkEm
FN:1070,_ZNKSt6vectorIN7testing14TestPartResultESaIS1_EE14_M_range_checkEm
FNDA:0,_ZNKSt6vectorIN7testing14TestPartResultESaIS1_EE14_M_range_checkEm
FN:1110,_ZNKSt6vectorIN7testing12TestPropertyESaIS1_EE2atEm
FNDA:0,_ZNKSt6vectorIN7testing12TestPropertyESaIS1_EE2atEm
FN:1110,_ZNKSt6vectorIN7testing14TestPartResultESaIS1_EE2atEm
FNDA:0,_ZNKSt6vectorIN7testing14TestPartResultESaIS1_EE2atEm
FN:1121,_ZNSt6vectorINSt7__cxx1112basic_stringIcSt11char_traitsIcESaIcEEESaIS5_EE5frontEv
FNDA:1,_ZNSt6vectorINSt7__cxx1112basic_stringIcSt11char_traitsIcESaIcEEESaIS5_EE5frontEv
FN:1187,_ZNSt6vectorIPN7testing8TestInfoESaIS2_EE9push_backERKS2_
FNDA:20,_ZNSt6vectorIPN7testing8TestInfoESaIS2_EE9push_backERKS2_
FN:1187,_ZNSt6vectorIPN7testing17TestEventListenerESaIS2_EE9push_backERKS2_
FNDA:1,_ZNSt6vectorIPN7testing17TestEventListenerESaIS2_EE9push_backERKS2_
FN:1187,_ZNSt6vectorIPN7testing11EnvironmentESaIS2_EE9push_backERKS2_
FNDA:0,_ZNSt6vectorIPN7testing11EnvironmentESaIS2_EE9push_backERKS2_
FN:1187,_ZNSt6vectorIN7testing8internal9TraceInfoESaIS2_EE9push_backERKS2_
FNDA:0,_ZNSt6vectorIN7testing8internal9TraceInfoESaIS2_EE9push_backERKS2_
FN:1187,_ZNSt6vectorIN7testing14TestPartResultESaIS1_EE9push_backERKS1_
FNDA:0,_ZNSt6vectorIN7testing14TestPartResultESaIS1_EE9push_backERKS1_
FN:1187,_ZNSt6vectorIPN7testing9TestSuiteESaIS2_EE9push_backERKS2_
FNDA:2,_ZNSt6vectorIPN7testing9TestSuiteESaIS2_EE9push_backERKS2_
FN:1187,_ZNSt6vectorIN7testing12TestPropertyESaIS1_EE9push_backERKS1_
FNDA:0,_ZNSt6vectorIN7testing12TestPropertyESaIS1_EE9push_backERKS1_
FN:1187,_ZNSt6vectorIN7testing8internal13edit_distance8EditTypeESaIS3_EE9push_backERKS3_
FNDA:0,_ZNSt6vectorIN7testing8internal13edit_distance8EditTypeESaIS3_EE9push_backERKS3_
FN:1203,_ZNSt6vectorINSt7__cxx1112basic_stringIcSt11char_traitsIcESaIcEEESaIS5_EE9push_backEOS5_
FNDA:9,_ZNSt6vectorINSt7__cxx1112basic_stringIcSt11char_traitsIcESaIcEEESaIS5_EE9push_backEOS5_
FN:1203,_ZNSt6vectorImSaImEE9push_backEOm
FNDA:0,_ZNSt6vectorImSaImEE9push_backEOm
FN:1203,_ZNSt6vectorIiSaIiEE9push_backEOi
FNDA:22,_ZNSt6vectorIiSaIiEE9push_backEOi
FN:1225,_ZNSt6vectorIN7testing8internal9TraceInfoESaIS2_EE8pop_backEv
FNDA:0,_ZNSt6vectorIN7testing8internal9TraceInfoESaIS2_EE8pop_backEv
FN:1293,_ZNSt6vectorINSt7__cxx1112basic_stringIcSt11char_traitsIcESaIcEEESaIS5_EE6insertEN9__gnu_cxx17__normal_iteratorIPKS5_S7_EEOS5_
FNDA:7,_ZNSt6vectorINSt7__cxx1112basic_stringIcSt11char_traitsIcESaIcEEESaIS5_EE6insertEN9__gnu_cxx17__normal_iteratorIPKS5_S7_EEOS5_
FN:1430,_ZNSt6vectorIPN7testing17TestEventListenerESaIS2_EE5eraseEN9__gnu_cxx17__normal_iteratorIPKS2_S4_EE
FNDA:0,_ZNSt6vectorIPN7testing17TestEventListenerESaIS2_EE5eraseEN9__gnu_cxx17__normal_iteratorIPKS2_S4_EE
FN:1480,_ZNSt6vectorINSt7__cxx1112basic_stringIcSt11char_traitsIcESaIcEEESaIS5_EE4swapERS7_
FNDA:5,_ZNSt6vectorINSt7__cxx1112basic_stringIcSt11char_traitsIcESaIcEEESaIS5_EE4swapERS7_
FN:1498,_ZNSt6vectorIN7testing12TestPropertyESaIS1_EE5clearEv
FNDA:22,_ZNSt6vectorIN7testing12TestPropertyESaIS1_EE5clearEv
FN:1498,_ZNSt6vectorINSt7__cxx1112basic_stringIcSt11char_traitsIcESaIcEEESaIS5_EE5clearEv
FNDA:1,_ZNSt6vectorINSt7__cxx1112basic_stringIcSt11char_traitsIcESaIcEEESaIS5_EE5clearEv
FN:1498,_ZNSt6vectorIN7testing14TestPartResultESaIS1_EE5clearEv
FNDA:22,_ZNSt6vectorIN7testing14TestPartResultESaIS1_EE5clearEv
FN:1498,_ZNSt6vectorIPN7testing11EnvironmentESaIS2_EE5clearEv
FNDA:1,_ZNSt6vectorIPN7testing11EnvironmentESaIS2_EE5clearEv
FN:1508,_ZNSt6vectorINSt7__cxx1112basic_stringIcSt11char_traitsIcESaIcEEESaIS5_EE20_M_allocate_and_copyISt13move_iteratorIPS5_EEESA_mT_SC_
FNDA:0,_ZNSt6vectorINSt7__cxx1112basic_stringIcSt11char_traitsIcESaIcEEESaIS5_EE20_M_allocate_and_copyISt13move_iteratorIPS5_EEESA_mT_SC_
FN:1577,_ZNSt6vectorINSt7__cxx1112basic_stringIcSt11char_traitsIcESaIcEEESaIS5_EE19_M_range_initializeIPKPKcEEvT_SD_St20forward_iterator_tag
FNDA:0,_ZNSt6vectorINSt7__cxx1112basic_stringIcSt11char_traitsIcESaIcEEESaIS5_EE19_M_range_initializeIPKPKcEEvT_SD_St20forward_iterator_tag
FN:1593,_ZNSt6vectorIS_IdSaIdEESaIS1_EE18_M_fill_initializeEmRKS1_
FNDA:0,_ZNSt6vectorIS_IdSaIdEESaIS1_EE18_M_fill_initializeEmRKS1_
FN:1593,_ZNSt6vectorIS_IN7testing8internal13edit_distance8EditTypeESaIS3_EESaIS5_EE18_M_fill_initializeEmRKS5_
FNDA:0,_ZNSt6vectorIS_IN7testing8internal13edit_distance8EditTypeESaIS3_EESaIS5_EE18_M_fill_initializeEmRKS5_
FN:1603,_ZNSt6vectorIN7testing8internal13edit_distance8EditTypeESaIS3_EE21_M_default_initializeEm
FNDA:0,_ZNSt6vectorIN7testing8internal13edit_distance8EditTypeESaIS3_EE21_M_default_initializeEm
FN:1603,_ZNSt6vectorIdSaIdEE21_M_default_initializeEm
FNDA:0,_ZNSt6vectorIdSaIdEE21_M_default_initializeEm
FN:1709,_ZNSt6vectorIPN7testing9TestSuiteESaIS2_EE16_Temporary_valueC2IJRKS2_EEEPS4_DpOT_
FNDA:0,_ZNSt6vectorIPN7testing9TestSuiteESaIS2_EE16_Temporary_valueC2IJRKS2_EEEPS4_DpOT_
FN:1715,_ZNSt6vectorIPN7testing9TestSuiteESaIS2_EE16_Temporary_valueD2Ev
FNDA:0,_ZNSt6vectorIPN7testing9TestSuiteESaIS2_EE16_Temporary_valueD2Ev
FN:1719,_ZNSt6vectorIPN7testing9TestSuiteESaIS2_EE16_Temporary_value6_M_valEv
FNDA:0,_ZNSt6vectorIPN7testing9TestSuiteESaIS2_EE16_Temporary_value6_M_valEv
FN:1723,_ZNSt6vectorIPN7testing9TestSuiteESaIS2_EE16_Temporary_value6_M_ptrEv
FNDA:0,_ZNSt6vectorIPN7testing9TestSuiteESaIS2_EE16_Temporary_value6_M_ptrEv
FN:1756,_ZNKSt6vectorImSaImEE12_M_check_lenEmPKc
FNDA:0,_ZNKSt6vectorImSaImEE12_M_check_lenEmPKc
FN:1756,_ZNKSt6vectorIPN7testing8TestInfoESaIS2_EE12_M_check_lenEmPKc
FNDA:9,_ZNKSt6vectorIPN7testing8TestInfoESaIS2_EE12_M_check_lenEmPKc
FN:1756,_ZNKSt6vectorIN7testing12TestPropertyESaIS1_EE12_M_check_lenEmPKc
FNDA:0,_ZNKSt6vectorIN7testing12TestPropertyESaIS1_EE12_M_check_lenEmPKc
FN:1756,_ZNKSt6vectorIPN7testing17TestEventListenerESaIS2_EE12_M_check_lenEmPKc
FNDA:1,_ZNKSt6vectorIPN7testing17TestEventListenerESaIS2_EE12_M_check_lenEmPKc
FN:1756,_ZNKSt6vectorIN7testing14TestPartResultESaIS1_EE12_M_check_lenEmPKc
FNDA:0,_ZNKSt6vectorIN7testing14TestPartResultESaIS1_EE12_M_check_lenEmPKc
FN:1756,_ZNKSt6vectorINSt7__cxx1112basic_stringIcSt11char_traitsIcESaIcEEESaIS5_EE12_M_check_lenEmPKc
FNDA:9,_ZNKSt6vectorINSt7__cxx1112basic_stringIcSt11char_traitsIcESaIcEEESaIS5_EE12_M_check_lenEmPKc
FN:1756,_ZNKSt6vectorIPN7testing9TestSuiteESaIS2_EE12_M_check_lenEmPKc
FNDA:2,_ZNKSt6vectorIPN7testing9TestSuiteESaIS2_EE12_M_check_lenEmPKc
FN:1756,_ZNKSt6vectorIN7testing8internal9TraceInfoESaIS2_EE12_M_check_lenEmPKc
FNDA:0,_ZNKSt6vectorIN7testing8internal9TraceInfoESaIS2_EE12_M_check_lenEmPKc
FN:1756,_ZNKSt6vectorIPN7testing11EnvironmentESaIS2_EE12_M_check_lenEmPKc
FNDA:0,_ZNKSt6vectorIPN7testing11EnvironmentESaIS2_EE12_M_check_lenEmPKc
FN:1756,_ZNKSt6vectorIiSaIiEE12_M_check_lenEmPKc
FNDA:11,_ZNKSt6vectorIiSaIiEE12_M_check_lenEmPKc
FN:1756,_ZNKSt6vectorIN7testing8internal13edit_distance8EditTypeESaIS3_EE12_M_check_lenEmPKc
FNDA:0,_ZNKSt6vectorIN7testing8internal13edit_distance8EditTypeESaIS3_EE12_M_check_lenEmPKc
FN:1767,_ZNSt6vectorIS_IN7testing8internal13edit_distance8EditTypeESaIS3_EESaIS5_EE17_S_check_init_lenEmRKS6_
FNDA:0,_ZNSt6vectorIS_IN7testing8internal13edit_distance8EditTypeESaIS3_EESaIS5_EE17_S_check_init_lenEmRKS6_
FN:1767,_ZNSt6vectorIN7testing8internal13edit_distance8EditTypeESaIS3_EE17_S_check_init_lenEmRKS4_
FNDA:0,_ZNSt6vectorIN7testing8internal13edit_distance8EditTypeESaIS3_EE17_S_check_init_lenEmRKS4_
FN:1767,_ZNSt6vectorIS_IdSaIdEESaIS1_EE17_S_check_init_lenEmRKS2_
FNDA:0,_ZNSt6vectorIS_IdSaIdEESaIS1_EE17_S_check_init_lenEmRKS2_
FN:1767,_ZNSt6vectorIdSaIdEE17_S_check_init_lenEmRKS0_
FNDA:0,_ZNSt6vectorIdSaIdEE17_S_check_init_lenEmRKS0_
FN:1767,_ZNSt6vectorINSt7__cxx1112basic_stringIcSt11char_traitsIcESaIcEEESaIS5_EE17_S_check_init_lenEmRKS6_
FNDA:0,_ZNSt6vectorINSt7__cxx1112basic_stringIcSt11char_traitsIcESaIcEEESaIS5_EE17_S_check_init_lenEmRKS6_
FN:1776,_ZNSt6vectorIS_IN7testing8internal13edit_distance8EditTypeESaIS3_EESaIS5_EE11_S_max_sizeERKS6_
FNDA:0,_ZNSt6vectorIS_IN7testing8internal13edit_distance8EditTypeESaIS3_EESaIS5_EE11_S_max_sizeERKS6_
FN:1776,_ZNSt6vectorINSt7__cxx1112basic_stringIcSt11char_traitsIcESaIcEEESaIS5_EE11_S_max_sizeERKS6_
FNDA:0,_ZNSt6vectorINSt7__cxx1112basic_stringIcSt11char_traitsIcESaIcEEESaIS5_EE11_S_max_sizeERKS6_
FN:1776,_ZNSt6vectorIdSaIdEE11_S_max_sizeERKS0_
FNDA:0,_ZNSt6vectorIdSaIdEE11_S_max_sizeERKS0_
FN:1776,_ZNSt6vectorIN7testing8internal13edit_distance8EditTypeESaIS3_EE11_S_max_sizeERKS4_
FNDA:0,_ZNSt6vectorIN7testing8internal13edit_distance8EditTypeESaIS3_EE11_S_max_sizeERKS4_
FN:1776,_ZNSt6vectorIN7testing14TestPartResultESaIS1_EE11_S_max_sizeERKS2_
FNDA:0,_ZNSt6vectorIN7testing14TestPartResultESaIS1_EE11_S_max_sizeERKS2_
FN:1776,_ZNSt6vectorIN7testing12TestPropertyESaIS1_EE11_S_max_sizeERKS2_
FNDA:0,_ZNSt6vectorIN7testing12TestPropertyESaIS1_EE11_S_max_sizeERKS2_
FN:1776,_ZNSt6vectorIPN7testing8TestInfoESaIS2_EE11_S_max_sizeERKS3_
FNDA:18,_ZNSt6vectorIPN7testing8TestInfoESaIS2_EE11_S_max_sizeERKS3_
FN:1776,_ZNSt6vectorIPN7testing17TestEventListenerESaIS2_EE11_S_max_sizeERKS3_
FNDA:2,_ZNSt6vectorIPN7testing17TestEventListenerESaIS2_EE11_S_max_sizeERKS3_
FN:1776,_ZNSt6vectorIPN7testing11EnvironmentESaIS2_EE11_S_max_sizeERKS3_
FNDA:0,_ZNSt6vectorIPN7testing11EnvironmentESaIS2_EE11_S_max_sizeERKS3_
FN:1776,_ZNSt6vectorIN7testing8internal9TraceInfoESaIS2_EE11_S_max_sizeERKS3_
FNDA:0,_ZNSt6vectorIN7testing8internal9TraceInfoESaIS2_EE11_S_max_sizeERKS3_
FN:1776,_ZNSt6vectorIPN7testing9TestSuiteESaIS2_EE11_S_max_sizeERKS3_
FNDA:4,_ZNSt6vectorIPN7testing9TestSuiteESaIS2_EE11_S_max_sizeERKS3_
FN:1776,_ZNSt6vectorImSaImEE11_S_max_sizeERKS0_
FNDA:0,_ZNSt6vectorImSaImEE11_S_max_sizeERKS0_
FN:1776,_ZNSt6vectorIiSaIiEE11_S_max_sizeERKS0_
FNDA:22,_ZNSt6vectorIiSaIiEE11_S_max_sizeERKS0_
FN:1776,_ZNSt6vectorIS_IdSaIdEESaIS1_EE11_S_max_sizeERKS2_
FNDA:0,_ZNSt6vectorIS_IdSaIdEESaIS1_EE11_S_max_sizeERKS2_
FN:1792,_ZNSt6vectorIPN7testing11EnvironmentESaIS2_EE15_M_erase_at_endEPS2_
FNDA:1,_ZNSt6vectorIPN7testing11EnvironmentESaIS2_EE15_M_erase_at_endEPS2_
FN:1792,_ZNSt6vectorINSt7__cxx1112basic_stringIcSt11char_traitsIcESaIcEEESaIS5_EE15_M_erase_at_endEPS5_
FNDA:1,_ZNSt6vectorINSt7__cxx1112basic_stringIcSt11char_traitsIcESaIcEEESaIS5_EE15_M_erase_at_endEPS5_
FN:1792,_ZNSt6vectorIN7testing14TestPartResultESaIS1_EE15_M_erase_at_endEPS1_
FNDA:22,_ZNSt6vectorIN7testing14TestPartResultESaIS1_EE15_M_erase_at_endEPS1_
FN:1792,_ZNSt6vectorIN7testing12TestPropertyESaIS1_EE15_M_erase_at_endEPS1_
FNDA:22,_ZNSt6vectorIN7testing12TestPropertyESaIS1_EE15_M_erase_at_endEPS1_
FN:1815,_ZNSt6vectorINSt7__cxx1112basic_stringIcSt11char_traitsIcESaIcEEESaIS5_EE14_M_move_assignEOS7_St17integral_constantIbLb1EE
FNDA:1,_ZNSt6vectorINSt7__cxx1112basic_stringIcSt11char_traitsIcESaIcEEESaIS5_EE14_M_move_assignEOS7_St17integral_constantIbLb1EE
DA:97,0
DA:98,0
DA:99,0
DA:97,0
DA:98,0
DA:99,0
DA:97,0
DA:98,0
DA:99,0
DA:97,0
DA:98,0
DA:99,0
DA:97,1
DA:98,1
DA:99,1
DA:97,1
DA:98,1
DA:99,1
DA:97,1
DA:98,1
DA:99,1
DA:97,1
DA:98,1
DA:99,1
DA:97,3
DA:98,3
DA:99,3
DA:97,2
DA:98,2
DA:99,2
DA:97,23
DA:98,23
DA:99,23
DA:97,23
DA:98,23
DA:99,23
DA:97,0
DA:98,0
DA:99,0
DA:97,0
DA:98,0
DA:99,0
DA:97,0
DA:98,0
DA:99,0
DA:109,21
DA:111,21
DA:112,21
DA:113,21
DA:114,21
DA:117,7
DA:121,7
DA:122,7
DA:123,7
DA:124,7
DA:125,7
DA:131,0
DA:133,0
DA:134,0
DA:131,1
DA:133,1
DA:134,1
DA:131,1
DA:133,1
DA:134,1
DA:131,1
DA:133,1
DA:134,1
DA:131,1
DA:133,1
DA:134,1
DA:131,3
DA:133,3
DA:134,3
DA:131,2
DA:133,2
DA:134,2
DA:131,23
DA:133,23
DA:134,23
DA:131,23
DA:133,23
DA:134,23
DA:131,0
DA:133,0
DA:134,0
DA:131,0
DA:133,0
DA:134,0
DA:131,17
DA:133,17
DA:134,17
DA:136,0
DA:137,0
DA:138,0
DA:136,0
DA:137,0
DA:138,0
DA:136,0
DA:137,0
DA:138,0
DA:136,0
DA:137,0
DA:138,0
DA:136,0
DA:137,0
DA:138,0
DA:276,0
DA:277,0
DA:276,5
DA:277,5
DA:276,1
DA:277,1
DA:276,3
DA:277,3
DA:276,25
DA:277,25
DA:276,20
DA:277,20
DA:276,23
DA:277,23
DA:276,23
DA:277,23
DA:276,0
DA:277,0
DA:276,0
DA:277,0
DA:276,0
DA:277,0
DA:276,0
DA:277,0
DA:276,0
DA:277,0
DA:276,0
DA:277,0
DA:276,1
DA:277,1
DA:280,0
DA:281,0
DA:280,22
DA:281,22
DA:280,0
DA:281,0
DA:280,4
DA:281,4
DA:280,0
DA:281,0
DA:280,0
DA:281,0
DA:280,2
DA:281,2
DA:280,18
DA:281,18
DA:280,0
DA:281,0
DA:280,0
DA:281,0
DA:280,0
DA:281,0
DA:280,0
DA:281,0
DA:284,1
DA:285,1
DA:288,0
DA:288,1
DA:288,1
DA:288,1
DA:288,1
DA:288,3
DA:288,2
DA:288,23
DA:288,23
DA:288,0
DA:288,0
DA:288,17
DA:293,0
DA:294,0
DA:303,0
DA:304,0
DA:305,0
DA:303,0
DA:304,0
DA:305,0
DA:303,0
DA:304,0
DA:305,0
DA:303,0
DA:304,0
DA:305,0
DA:303,0
DA:304,0
DA:305,0
DA:333,0
DA:335,0
DA:336,0
DA:337,0
DA:333,0
DA:335,0
DA:336,0
DA:337,0
DA:333,0
DA:335,0
DA:336,0
DA:337,0
DA:333,0
DA:335,0
DA:336,0
DA:337,0
DA:333,1
DA:335,1
DA:336,1
DA:337,1
DA:333,1
DA:335,1
DA:336,1
DA:337,1
DA:333,1
DA:335,1
DA:336,1
DA:337,1
DA:333,1
DA:335,1
DA:336,1
DA:337,1
DA:333,3
DA:335,3
DA:336,3
DA:337,3
DA:333,2
DA:335,2
DA:336,2
DA:337,2
DA:333,23
DA:335,23
DA:336,23
DA:337,23
DA:333,23
DA:335,23
DA:336,23
DA:337,23
DA:333,0
DA:335,0
DA:336,0
DA:337,0
DA:333,0
DA:335,0
DA:336,0
DA:337,0
DA:333,0
DA:335,0
DA:336,0
DA:337,0
DA:343,11
DA:346,11
DA:343,0
DA:346,0
DA:343,0
DA:346,0
DA:343,0
DA:346,0
DA:343,0
DA:346,0
DA:343,2
DA:346,2
DA:343,0
DA:346,0
DA:343,0
DA:346,0
DA:343,1
DA:346,1
DA:343,9
DA:346,9
DA:343,0
DA:346,0
DA:343,0
DA:346,0
DA:343,0
DA:346,0
DA:343,0
DA:346,0
DA:350,0
DA:353,0
DA:354,0
DA:355,0
DA:350,0
DA:353,0
DA:354,0
DA:355,0
DA:350,0
DA:353,0
DA:354,0
DA:355,0
DA:350,0
DA:353,0
DA:354,0
DA:355,0
DA:350,1
DA:353,1
DA:354,0
DA:355,1
DA:350,3
DA:353,3
DA:354,2
DA:355,3
DA:350,1
DA:353,1
DA:354,0
DA:355,1
DA:350,2
DA:353,2
DA:354,1
DA:355,2
DA:350,14
DA:353,14
DA:354,11
DA:355,14
DA:350,11
DA:353,11
DA:354,9
DA:355,11
DA:350,23
DA:353,23
DA:354,0
DA:355,23
DA:350,23
DA:353,23
DA:354,0
DA:355,23
DA:350,0
DA:353,0
DA:354,0
DA:355,0
DA:350,0
DA:353,0
DA:354,0
DA:355,0
DA:350,0
DA:353,0
DA:354,0
DA:355,0
DA:359,0
DA:361,0
DA:362,0
DA:363,0
DA:364,0
DA:359,0
DA:361,0
DA:362,0
DA:363,0
DA:364,0
DA:359,0
DA:361,0
DA:362,0
DA:363,0
DA:364,0
DA:359,0
DA:361,0
DA:362,0
DA:363,0
DA:364,0
DA:359,0
DA:361,0
DA:362,0
DA:363,0
DA:364,0
DA:431,22
DA:436,22
DA:431,0
DA:436,0
DA:431,4
DA:436,4
DA:431,0
DA:436,0
DA:431,0
DA:436,0
DA:431,2
DA:436,2
DA:431,18
DA:436,18
DA:431,0
DA:436,0
DA:431,0
DA:436,0
DA:431,0
DA:436,0
DA:431,22
DA:436,22
DA:444,22
DA:449,22
DA:444,0
DA:449,0
DA:444,4
DA:449,4
DA:444,0
DA:449,0
DA:444,0
DA:449,0
DA:444,2
DA:449,2
DA:444,18
DA:449,18
DA:444,0
DA:449,0
DA:444,0
DA:449,0
DA:444,0
DA:449,0
DA:444,22
DA:449,22
DA:453,22
DA:456,22
DA:453,0
DA:456,0
DA:453,4
DA:456,4
DA:453,0
DA:456,0
DA:453,0
DA:456,0
DA:453,2
DA:456,2
DA:453,18
DA:456,18
DA:453,0
DA:456,0
DA:453,0
DA:456,0
DA:453,0
DA:456,0
DA:453,22
DA:456,22
DA:465,22
DA:469,22
DA:465,0
DA:469,0
DA:465,4
DA:469,4
DA:465,0
DA:469,0
DA:465,0
DA:469,0
DA:465,2
DA:469,2
DA:465,18
DA:469,18
DA:465,0
DA:469,0
DA:465,0
DA:469,0
DA:465,0
DA:469,0
DA:465,22
DA:469,22
DA:487,0
DA:487,1
DA:487,1
DA:487,1
DA:487,1
DA:487,3
DA:487,2
DA:487,23
DA:487,23
DA:487,0
DA:487,0
DA:487,17
DA:497,1
DA:498,1
DA:510,0
DA:511,0
DA:512,0
DA:510,0
DA:511,0
DA:512,0
DA:522,0
DA:524,0
DA:525,0
DA:522,0
DA:524,0
DA:525,0
DA:553,0
DA:555,0
DA:557,0
DA:558,0
DA:560,0
DA:561,0
DA:553,0
DA:555,0
DA:557,0
DA:558,0
DA:560,0
DA:561,0
DA:553,0
DA:555,0
DA:557,0
DA:558,0
DA:560,0
DA:561,0
DA:653,0
DA:655,0
DA:657,0
DA:658,0
DA:659,0
DA:678,0
DA:680,0
DA:681,0
DA:683,0
DA:678,1
DA:680,1
DA:681,1
DA:683,1
DA:678,1
DA:680,1
DA:681,1
DA:683,1
DA:678,1
DA:680,1
DA:681,1
DA:683,1
DA:678,3
DA:680,3
DA:681,3
DA:683,3
DA:678,2
DA:680,2
DA:681,2
DA:683,2
DA:678,23
DA:680,23
DA:681,23
DA:683,23
DA:678,23
DA:680,23
DA:681,23
DA:683,23
DA:678,0
DA:680,0
DA:681,0
DA:683,0
DA:678,0
DA:680,0
DA:681,0
DA:683,0
DA:678,0
DA:680,0
DA:681,0
DA:683,0
DA:678,0
DA:680,0
DA:681,0
DA:683,0
DA:678,0
DA:680,0
DA:681,0
DA:683,0
DA:678,0
DA:680,0
DA:681,0
DA:683,0
DA:678,1
DA:680,1
DA:681,1
DA:683,1
DA:709,1
DA:711,1
DA:714,1
DA:715,1
DA:811,11
DA:812,11
DA:811,0
DA:812,0
DA:811,0
DA:812,0
DA:811,0
DA:812,0
DA:811,1
DA:812,1
DA:811,3
DA:812,3
DA:811,1
DA:812,1
DA:811,13
DA:812,13
DA:811,0
DA:812,0
DA:811,0
DA:812,0
DA:811,26
DA:812,26
DA:811,2
DA:812,2
DA:820,0
DA:821,0
DA:820,3
DA:821,3
DA:820,0
DA:821,0
DA:820,1
DA:821,1
DA:820,22
DA:821,22
DA:820,144
DA:821,144
DA:820,26
DA:821,26
DA:820,0
DA:821,0
DA:820,0
DA:821,0
DA:829,11
DA:830,11
DA:829,0
DA:830,0
DA:829,0
DA:830,0
DA:829,1
DA:830,1
DA:829,1
DA:830,1
DA:829,0
DA:830,0
DA:829,40
DA:830,40
DA:829,13
DA:830,13
DA:829,0
DA:830,0
DA:829,0
DA:830,0
DA:829,17
DA:830,17
DA:829,2
DA:830,2
DA:838,0
DA:839,0
DA:838,3
DA:839,3
DA:838,0
DA:839,0
DA:838,1
DA:839,1
DA:838,202
DA:839,202
DA:838,144
DA:839,144
DA:838,34
DA:839,34
DA:838,0
DA:839,0
DA:838,0
DA:839,0
DA:847,1
DA:848,1
DA:847,37
DA:848,37
DA:865,1
DA:866,1
DA:884,7
DA:885,7
DA:884,0
DA:885,0
DA:884,0
DA:885,0
DA:893,7
DA:894,7
DA:918,0
DA:919,0
DA:918,0
DA:919,0
DA:918,89
DA:919,89
DA:918,110
DA:919,110
DA:918,58
DA:919,58
DA:918,0
DA:919,0
DA:918,211
DA:919,211
DA:918,0
DA:919,0
DA:918,0
DA:919,0
DA:918,0
DA:919,0
DA:918,0
DA:919,0
DA:918,0
DA:919,0
DA:918,29
DA:919,29
DA:923,22
DA:924,22
DA:923,0
DA:924,0
DA:923,4
DA:924,4
DA:923,0
DA:924,0
DA:923,0
DA:924,0
DA:923,2
DA:924,2
DA:923,18
DA:924,18
DA:923,0
DA:924,0
DA:923,0
DA:924,0
DA:923,0
DA:924,0
DA:923,22
DA:924,22
DA:998,4
DA:999,4
DA:1000,4
DA:1007,20
DA:1008,20
DA:1007,0
DA:1008,0
DA:1007,2
DA:1008,2
DA:1043,0
DA:1046,0
DA:1043,56
DA:1046,56
DA:1043,22
DA:1046,22
DA:1043,20
DA:1046,20
DA:1043,0
DA:1046,0
DA:1043,0
DA:1046,0
DA:1043,0
DA:1046,0
DA:1043,0
DA:1046,0
DA:1043,0
DA:1046,0
DA:1043,4
DA:1046,4
DA:1061,0
DA:1064,0
DA:1061,0
DA:1064,0
DA:1061,22
DA:1064,22
DA:1061,20
DA:1064,20
DA:1061,0
DA:1064,0
DA:1061,0
DA:1064,0
DA:1061,0
DA:1064,0
DA:1061,10
DA:1064,10
DA:1070,0
DA:1072,0
DA:1073,0
DA:1077,0
DA:1070,0
DA:1072,0
DA:1073,0
DA:1077,0
DA:1110,0
DA:1112,0
DA:1113,0
DA:1110,0
DA:1112,0
DA:1113,0
DA:1121,1
DA:1124,1
DA:1187,2
DA:1189,2
DA:1192,0
DA:1194,0
DA:1198,2
DA:1199,2
DA:1187,0
DA:1189,0
DA:1192,0
DA:1194,0
DA:1198,0
DA:1199,0
DA:1187,0
DA:1189,0
DA:1192,0
DA:1194,0
DA:1198,0
DA:1199,0
DA:1187,1
DA:1189,1
DA:1192,0
DA:1194,0
DA:1198,1
DA:1199,1
DA:1187,20
DA:1189,20
DA:1192,11
DA:1194,11
DA:1198,9
DA:1199,20
DA:1187,0
DA:1189,0
DA:1192,0
DA:1194,0
DA:1198,0
DA:1199,0
DA:1187,0
DA:1189,0
DA:1192,0
DA:1194,0
DA:1198,0
DA:1199,0
DA:1187,0
DA:1189,0
DA:1192,0
DA:1194,0
DA:1198,0
DA:1199,0
DA:1203,22
DA:1204,22
DA:1203,0
DA:1204,0
DA:1203,9
DA:1204,9
DA:1225,0
DA:1228,0
DA:1229,0
DA:1231,0
DA:1293,7
DA:1294,7
DA:1430,0
DA:1431,0
DA:1480,5
DA:1483,5
DA:1486,5
DA:1487,5
DA:1488,5
DA:1489,5
DA:1498,1
DA:1499,1
DA:1498,1
DA:1499,1
DA:1498,22
DA:1499,22
DA:1498,22
DA:1499,22
DA:1508,0
DA:1511,0
DA:1514,0
DA:1515,0
DA:1516,0
DA:1518,0
DA:1520,0
DA:1521,0
DA:1577,0
DA:1580,0
DA:1582,0
DA:1583,0
DA:1584,0
DA:1585,0
DA:1587,0
DA:1588,0
DA:1593,0
DA:1595,0
DA:1596,0
DA:1597,0
DA:1598,0
DA:1593,0
DA:1595,0
DA:1596,0
DA:1597,0
DA:1598,0
DA:1603,0
DA:1605,0
DA:1606,0
DA:1607,0
DA:1608,0
DA:1603,0
DA:1605,0
DA:1606,0
DA:1607,0
DA:1608,0
DA:1709,0
DA:1711,0
DA:1713,0
DA:1715,0
DA:1716,0
DA:1719,0
DA:1723,0
DA:1756,11
DA:1758,11
DA:1759,0
DA:1761,11
DA:1762,11
DA:1756,0
DA:1758,0
DA:1759,0
DA:1761,0
DA:1762,0
DA:1756,9
DA:1758,9
DA:1759,0
DA:1761,9
DA:1762,9
DA:1756,2
DA:1758,2
DA:1759,0
DA:1761,2
DA:1762,2
DA:1756,0
DA:1758,0
DA:1759,0
DA:1761,0
DA:1762,0
DA:1756,0
DA:1758,0
DA:1759,0
DA:1761,0
DA:1762,0
DA:1756,1
DA:1758,1
DA:1759,0
DA:1761,1
DA:1762,1
DA:1756,9
DA:1758,9
DA:1759,0
DA:1761,9
DA:1762,9
DA:1756,0
DA:1758,0
DA:1759,0
DA:1761,0
DA:1762,0
DA:1756,0
DA:1758,0
DA:1759,0
DA:1761,0
DA:1762,0
DA:1756,0
DA:1758,0
DA:1759,0
DA:1761,0
DA:1762,0
DA:1767,0
DA:1769,0
DA:1770,0
DA:1772,0
DA:1767,0
DA:1769,0
DA:1770,0
DA:1772,0
DA:1767,0
DA:1769,0
DA:1770,0
DA:1772,0
DA:1767,0
DA:1769,0
DA:1770,0
DA:1772,0
DA:1767,0
DA:1769,0
DA:1770,0
DA:1772,0
DA:1776,22
DA:1781,22
DA:1783,22
DA:1784,22
DA:1776,0
DA:1781,0
DA:1783,0
DA:1784,0
DA:1776,4
DA:1781,4
DA:1783,4
DA:1784,4
DA:1776,0
DA:1781,0
DA:1783,0
DA:1784,0
DA:1776,0
DA:1781,0
DA:1783,0
DA:1784,0
DA:1776,2
DA:1781,2
DA:1783,2
DA:1784,2
DA:1776,18
DA:1781,18
DA:1783,18
DA:1784,18
DA:1776,0
DA:1781,0
DA:1783,0
DA:1784,0
DA:1776,0
DA:1781,0
DA:1783,0
DA:1784,0
DA:1776,0
DA:1781,0
DA:1783,0
DA:1784,0
DA:1776,0
DA:1781,0
DA:1783,0
DA:1784,0
DA:1776,0
DA:1781,0
DA:1783,0
DA:1784,0
DA:1776,0
DA:1781,0
DA:1783,0
DA:1784,0
DA:1776,0
DA:1781,0
DA:1783,0
DA:1784,0
DA:1792,1
DA:1794,1
DA:1796,0
DA:1797,0
DA:1798,0
DA:1801,1
DA:1792,1
DA:1794,1
DA:1796,0
DA:1797,0
DA:1798,0
DA:1801,1
DA:1792,22
DA:1794,22
DA:1796,0
DA:1797,0
DA:1798,0
DA:1801,22
DA:1792,22
DA:1794,22
DA:1796,0
DA:1797,0
DA:1798,0
DA:1801,22
DA:1815,1
DA:1817,1
DA:1818,1
DA:1819,1
DA:1820,1
DA:1821,1
end_of_record
SF:/usr/include/c++/11/bits/stl_algobase.h
FN:152,_ZSt9iter_swapIN9__gnu_cxx17__normal_iteratorIPPN7testing8TestInfoESt6vectorIS4_SaIS4_EEEES9_EvT_T0_
FNDA:0,_ZSt9iter_swapIN9__gnu_cxx17__normal_iteratorIPPN7testing8TestInfoESt6vectorIS4_SaIS4_EEEES9_EvT_T0_
FN:152,_ZSt9iter_swapIN9__gnu_cxx17__normal_iteratorIPN7testing8internal13edit_distance8EditTypeESt6vectorIS5_SaIS5_EEEESA_EvT_T0_
FNDA:0,_ZSt9iter_swapIN9__gnu_cxx17__normal_iteratorIPN7testing8internal13edit_distance8EditTypeESt6vectorIS5_SaIS5_EEEESA_EvT_T0_
FN:152,_ZSt9iter_swapIN9__gnu_cxx17__normal_iteratorIPNSt7__cxx1112basic_stringIcSt11char_traitsIcESaIcEEESt6vectorIS7_SaIS7_EEEESC_EvT_T0_
FNDA:0,_ZSt9iter_swapIN9__gnu_cxx17__normal_iteratorIPNSt7__cxx1112basic_stringIcSt11char_traitsIcESaIcEEESt6vectorIS7_SaIS7_EEEESC_EvT_T0_
FN:201,_ZSt11swap_rangesIN9__gnu_cxx17__normal_iteratorIPPN7testing8TestInfoESt6vectorIS4_SaIS4_EEEES9_ET0_T_SB_SA_
FNDA:0,_ZSt11swap_rangesIN9__gnu_cxx17__normal_iteratorIPPN7testing8TestInfoESt6vectorIS4_SaIS4_EEEES9_ET0_T_SB_SA_
FN:230,_ZSt3minImERKT_S2_S2_
FNDA:0,_ZSt3minImERKT_S2_S2_
FN:230,_ZSt3minIlERKT_S2_S2_
FNDA:0,_ZSt3minIlERKT_S2_S2_
FN:230,_ZSt3minIdERKT_S2_S2_
FNDA:0,_ZSt3minIdERKT_S2_S2_
FN:254,_ZSt3maxImERKT_S2_S2_
FNDA:32,_ZSt3maxImERKT_S2_S2_
FN:313,_ZSt12__niter_baseIPPN7testing17TestEventListenerEET_S4_
FNDA:6,_ZSt12__niter_baseIPPN7testing17TestEventListenerEET_S4_
FN:313,_ZSt12__niter_baseIPN7testing8internal9TraceInfoEET_S4_
FNDA:0,_ZSt12__niter_baseIPN7testing8internal9TraceInfoEET_S4_
FN:313,_ZSt12__niter_baseIPPN7testing8TestInfoEET_S4_
FNDA:56,_ZSt12__niter_baseIPPN7testing8TestInfoEET_S4_
FN:313,_ZSt12__niter_baseIPN7testing12TestPropertyEET_S3_
FNDA:0,_ZSt12__niter_baseIPN7testing12TestPropertyEET_S3_
FN:313,_ZSt12__niter_baseIPN7testing14TestPartResultEET_S3_
FNDA:0,_ZSt12__niter_baseIPN7testing14TestPartResultEET_S3_
FN:313,_ZSt12__niter_baseIPN7testing8internal13edit_distance8EditTypeEET_S5_
FNDA:0,_ZSt12__niter_baseIPN7testing8internal13edit_distance8EditTypeEET_S5_
FN:313,_ZSt12__niter_baseIPmET_S1_
FNDA:0,_ZSt12__niter_baseIPmET_S1_
FN:313,_ZSt12__niter_baseIPPN7testing9TestSuiteEET_S4_
FNDA:12,_ZSt12__niter_baseIPPN7testing9TestSuiteEET_S4_
FN:313,_ZSt12__niter_baseIPPN7testing11EnvironmentEET_S4_
FNDA:0,_ZSt12__niter_baseIPPN7testing11EnvironmentEET_S4_
FN:313,_ZSt12__niter_baseIPiET_S1_
FNDA:66,_ZSt12__niter_baseIPiET_S1_
FN:313,_ZSt12__niter_baseIPNSt7__cxx1112basic_stringIcSt11char_traitsIcESaIcEEEET_S7_
FNDA:66,_ZSt12__niter_baseIPNSt7__cxx1112basic_stringIcSt11char_traitsIcESaIcEEEET_S7_
FN:313,_ZSt12__niter_baseISt15insert_iteratorISt13unordered_setINSt7__cxx1112basic_stringIcSt11char_traitsIcESaIcEEESt4hashIS7_ESt8equal_toIS7_ESaIS7_EEEET_SF_
FNDA:4,_ZSt12__niter_baseISt15insert_iteratorISt13unordered_setINSt7__cxx1112basic_stringIcSt11char_traitsIcESaIcEEESt4hashIS7_ESt8equal_toIS7_ESaIS7_EEEET_SF_
FN:313,_ZSt12__niter_baseIPdET_S1_
FNDA:0,_ZSt12__niter_baseIPdET_S1_
FN:313,_ZSt12__niter_baseISt15insert_iteratorISt6vectorINSt7__cxx1112basic_stringIcSt11char_traitsIcESaIcEEESaIS7_EEEET_SB_
FNDA:4,_ZSt12__niter_baseISt15insert_iteratorISt6vectorINSt7__cxx1112basic_stringIcSt11char_traitsIcESaIcEEESaIS7_EEEET_SB_
FN:328,_ZSt12__niter_wrapIN9__gnu_cxx17__normal_iteratorIPPN7testing17TestEventListenerESt6vectorIS4_SaIS4_EEEES5_ET_SA_T0_
FNDA:0,_ZSt12__niter_wrapIN9__gnu_cxx17__normal_iteratorIPPN7testing17TestEventListenerESt6vectorIS4_SaIS4_EEEES5_ET_SA_T0_
FN:328,_ZSt12__niter_wrapIN9__gnu_cxx17__normal_iteratorIPPN7testing8TestInfoESt6vectorIS4_SaIS4_EEEES5_ET_SA_T0_
FNDA:0,_ZSt12__niter_wrapIN9__gnu_cxx17__normal_iteratorIPPN7testing8TestInfoESt6vectorIS4_SaIS4_EEEES5_ET_SA_T0_
FN:335,_ZSt12__niter_wrapIPPN7testing11EnvironmentEET_RKS4_S4_
FNDA:0,_ZSt12__niter_wrapIPPN7testing11EnvironmentEET_RKS4_S4_
FN:335,_ZSt12__niter_wrapIPPN7testing17TestEventListenerEET_RKS4_S4_
FNDA:0,_ZSt12__niter_wrapIPPN7testing17TestEventListenerEET_RKS4_S4_
FN:335,_ZSt12__niter_wrapIPPN7testing8TestInfoEET_RKS4_S4_
FNDA:2,_ZSt12__niter_wrapIPPN7testing8TestInfoEET_RKS4_S4_
FN:335,_ZSt12__niter_wrapIPN7testing8internal13edit_distance8EditTypeEET_RKS5_S5_
FNDA:0,_ZSt12__niter_wrapIPN7testing8internal13edit_distance8EditTypeEET_RKS5_S5_
FN:335,_ZSt12__niter_wrapIPmET_RKS1_S1_
FNDA:0,_ZSt12__niter_wrapIPmET_RKS1_S1_
FN:335,_ZSt12__niter_wrapIPiET_RKS1_S1_
FNDA:0,_ZSt12__niter_wrapIPiET_RKS1_S1_
FN:335,_ZSt12__niter_wrapIPPN7testing9TestSuiteEET_RKS4_S4_
FNDA:0,_ZSt12__niter_wrapIPPN7testing9TestSuiteEET_RKS4_S4_
FN:335,_ZSt12__niter_wrapIPNSt7__cxx1112basic_stringIcSt11char_traitsIcESaIcEEEET_RKS7_S7_
FNDA:0,_ZSt12__niter_wrapIPNSt7__cxx1112basic_stringIcSt11char_traitsIcESaIcEEEET_RKS7_S7_
FN:335,_ZSt12__niter_wrapISt15insert_iteratorISt13unordered_setINSt7__cxx1112basic_stringIcSt11char_traitsIcESaIcEEESt4hashIS7_ESt8equal_toIS7_ESaIS7_EEEET_RKSF_SF_
FNDA:4,_ZSt12__niter_wrapISt15insert_iteratorISt13unordered_setINSt7__cxx1112basic_stringIcSt11char_traitsIcESaIcEEESt4hashIS7_ESt8equal_toIS7_ESaIS7_EEEET_RKSF_SF_
FN:335,_ZSt12__niter_wrapISt15insert_iteratorISt6vectorINSt7__cxx1112basic_stringIcSt11char_traitsIcESaIcEEESaIS7_EEEET_RKSB_SB_
FNDA:4,_ZSt12__niter_wrapISt15insert_iteratorISt6vectorINSt7__cxx1112basic_stringIcSt11char_traitsIcESaIcEEESaIS7_EEEET_RKSB_SB_
FN:335,_ZSt12__niter_wrapIPdET_RKS1_S1_
FNDA:0,_ZSt12__niter_wrapIPdET_RKS1_S1_
FN:400,_ZNSt11__copy_moveILb1ELb0ESt26random_access_iterator_tagE8__copy_mIPNSt7__cxx1112basic_stringIcSt11char_traitsIcESaIcEEESt15insert_iteratorISt13unordered_setIS8_St4hashIS8_ESt8equal_toIS8_ESaIS8_EEEEET0_T_SK_SJ_
FNDA:4,_ZNSt11__copy_moveILb1ELb0ESt26random_access_iterator_tagE8__copy_mIPNSt7__cxx1112basic_stringIcSt11char_traitsIcESaIcEEESt15insert_iteratorISt13unordered_setIS8_St4hashIS8_ESt8equal_toIS8_ESaIS8_EEEEET0_T_SK_SJ_
FN:400,_ZNSt11__copy_moveILb1ELb0ESt26random_access_iterator_tagE8__copy_mIPNSt7__cxx1112basic_stringIcSt11char_traitsIcESaIcEEESt15insert_iteratorISt6vectorIS8_SaIS8_EEEEET0_T_SG_SF_
FNDA:4,_ZNSt11__copy_moveILb1ELb0ESt26random_access_iterator_tagE8__copy_mIPNSt7__cxx1112basic_stringIcSt11char_traitsIcESaIcEEESt15insert_iteratorISt6vectorIS8_SaIS8_EEEEET0_T_SG_SF_
FN:420,_ZNSt11__copy_moveILb1ELb1ESt26random_access_iterator_tagE8__copy_mIPN7testing17TestEventListenerEEEPT_PKS6_S9_S7_
FNDA:0,_ZNSt11__copy_moveILb1ELb1ESt26random_access_iterator_tagE8__copy_mIPN7testing17TestEventListenerEEEPT_PKS6_S9_S7_
FN:420,_ZNSt11__copy_moveILb0ELb1ESt26random_access_iterator_tagE8__copy_mIdEEPT_PKS3_S6_S4_
FNDA:0,_ZNSt11__copy_moveILb0ELb1ESt26random_access_iterator_tagE8__copy_mIdEEPT_PKS3_S6_S4_
FN:420,_ZNSt11__copy_moveILb1ELb1ESt26random_access_iterator_tagE8__copy_mIPN7testing9TestSuiteEEEPT_PKS6_S9_S7_
FNDA:0,_ZNSt11__copy_moveILb1ELb1ESt26random_access_iterator_tagE8__copy_mIPN7testing9TestSuiteEEEPT_PKS6_S9_S7_
FN:420,_ZNSt11__copy_moveILb0ELb1ESt26random_access_iterator_tagE8__copy_mIN7testing8internal13edit_distance8EditTypeEEEPT_PKS7_SA_S8_
FNDA:0,_ZNSt11__copy_moveILb0ELb1ESt26random_access_iterator_tagE8__copy_mIN7testing8internal13edit_distance8EditTypeEEEPT_PKS7_SA_S8_
FN:420,_ZNSt11__copy_moveILb1ELb1ESt26random_access_iterator_tagE8__copy_mImEEPT_PKS3_S6_S4_
FNDA:0,_ZNSt11__copy_moveILb1ELb1ESt26random_access_iterator_tagE8__copy_mImEEPT_PKS3_S6_S4_
FN:420,_ZNSt11__copy_moveILb1ELb1ESt26random_access_iterator_tagE8__copy_mIN7testing8internal13edit_distance8EditTypeEEEPT_PKS7_SA_S8_
FNDA:0,_ZNSt11__copy_moveILb1ELb1ESt26random_access_iterator_tagE8__copy_mIN7testing8internal13edit_distance8EditTypeEEEPT_PKS7_SA_S8_
FN:420,_ZNSt11__copy_moveILb1ELb1ESt26random_access_iterator_tagE8__copy_mIiEEPT_PKS3_S6_S4_
FNDA:0,_ZNSt11__copy_moveILb1ELb1ESt26random_access_iterator_tagE8__copy_mIiEEPT_PKS3_S6_S4_
FN:420,_ZNSt11__copy_moveILb1ELb1ESt26random_access_iterator_tagE8__copy_mIPN7testing8TestInfoEEEPT_PKS6_S9_S7_
FNDA:2,_ZNSt11__copy_moveILb1ELb1ESt26random_access_iterator_tagE8__copy_mIPN7testing8TestInfoEEEPT_PKS6_S9_S7_
FN:420,_ZNSt11__copy_moveILb1ELb1ESt26random_access_iterator_tagE8__copy_mIPN7testing11EnvironmentEEEPT_PKS6_S9_S7_
FNDA:0,_ZNSt11__copy_moveILb1ELb1ESt26random_access_iterator_tagE8__copy_mIPN7testing11EnvironmentEEEPT_PKS6_S9_S7_
FN:486,_ZSt14__copy_move_a2ILb1EPPN7testing11EnvironmentES3_ET1_T0_S5_S4_
FNDA:0,_ZSt14__copy_move_a2ILb1EPPN7testing11EnvironmentES3_ET1_T0_S5_S4_
FN:486,_ZSt14__copy_move_a2ILb1EPNSt7__cxx1112basic_stringIcSt11char_traitsIcESaIcEEESt15insert_iteratorISt13unordered_setIS5_St4hashIS5_ESt8equal_toIS5_ESaIS5_EEEET1_T0_SH_SG_
FNDA:4,_ZSt14__copy_move_a2ILb1EPNSt7__cxx1112basic_stringIcSt11char_traitsIcESaIcEEESt15insert_iteratorISt13unordered_setIS5_St4hashIS5_ESt8equal_toIS5_ESaIS5_EEEET1_T0_SH_SG_
FN:486,_ZSt14__copy_move_a2ILb1EPiS0_ET1_T0_S2_S1_
FNDA:0,_ZSt14__copy_move_a2ILb1EPiS0_ET1_T0_S2_S1_
FN:486,_ZSt14__copy_move_a2ILb1EPNSt7__cxx1112basic_stringIcSt11char_traitsIcESaIcEEESt15insert_iteratorISt6vectorIS5_SaIS5_EEEET1_T0_SD_SC_
FNDA:4,_ZSt14__copy_move_a2ILb1EPNSt7__cxx1112basic_stringIcSt11char_traitsIcESaIcEEESt15insert_iteratorISt6vectorIS5_SaIS5_EEEET1_T0_SD_SC_
FN:486,_ZSt14__copy_move_a2ILb1EPPN7testing17TestEventListenerES3_ET1_T0_S5_S4_
FNDA:0,_ZSt14__copy_move_a2ILb1EPPN7testing17TestEventListenerES3_ET1_T0_S5_S4_
FN:486,_ZSt14__copy_move_a2ILb1EPmS0_ET1_T0_S2_S1_
FNDA:0,_ZSt14__copy_move_a2ILb1EPmS0_ET1_T0_S2_S1_
FN:486,_ZSt14__copy_move_a2ILb0EPKdPdET1_T0_S4_S3_
FNDA:0,_ZSt14__copy_move_a2ILb0EPKdPdET1_T0_S4_S3_
FN:486,_ZSt14__copy_move_a2ILb1EPPN7testing8TestInfoES3_ET1_T0_S5_S4_
FNDA:2,_ZSt14__copy_move_a2ILb1EPPN7testing8TestInfoES3_ET1_T0_S5_S4_
FN:486,_ZSt14__copy_move_a2ILb1EPPN7testing9TestSuiteES3_ET1_T0_S5_S4_
FNDA:0,_ZSt14__copy_move_a2ILb1EPPN7testing9TestSuiteES3_ET1_T0_S5_S4_
FN:486,_ZSt14__copy_move_a2ILb0EPKN7testing8internal13edit_distance8EditTypeEPS3_ET1_T0_S8_S7_
FNDA:0,_ZSt14__copy_move_a2ILb0EPKN7testing8internal13edit_distance8EditTypeEPS3_ET1_T0_S8_S7_
FN:486,_ZSt14__copy_move_a2ILb1EPN7testing8internal13edit_distance8EditTypeES4_ET1_T0_S6_S5_
FNDA:0,_ZSt14__copy_move_a2ILb1EPN7testing8internal13edit_distance8EditTypeES4_ET1_T0_S6_S5_
FN:521,_ZSt14__copy_move_a1ILb0EPKdPdET1_T0_S4_S3_
FNDA:0,_ZSt14__copy_move_a1ILb0EPKdPdET1_T0_S4_S3_
FN:521,_ZSt14__copy_move_a1ILb1EPPN7testing9TestSuiteES3_ET1_T0_S5_S4_
FNDA:0,_ZSt14__copy_move_a1ILb1EPPN7testing9TestSuiteES3_ET1_T0_S5_S4_
FN:521,_ZSt14__copy_move_a1ILb1EPPN7testing11EnvironmentES3_ET1_T0_S5_S4_
FNDA:0,_ZSt14__copy_move_a1ILb1EPPN7testing11EnvironmentES3_ET1_T0_S5_S4_
FN:521,_ZSt14__copy_move_a1ILb1EPPN7testing8TestInfoES3_ET1_T0_S5_S4_
FNDA:2,_ZSt14__copy_move_a1ILb1EPPN7testing8TestInfoES3_ET1_T0_S5_S4_
FN:521,_ZSt14__copy_move_a1ILb1EPPN7testing17TestEventListenerES3_ET1_T0_S5_S4_
FNDA:0,_ZSt14__copy_move_a1ILb1EPPN7testing17TestEventListenerES3_ET1_T0_S5_S4_
FN:521,_ZSt14__copy_move_a1ILb1EPmS0_ET1_T0_S2_S1_
FNDA:0,_ZSt14__copy_move_a1ILb1EPmS0_ET1_T0_S2_S1_
FN:521,_ZSt14__copy_move_a1ILb1EPNSt7__cxx1112basic_stringIcSt11char_traitsIcESaIcEEESt15insert_iteratorISt13unordered_setIS5_St4hashIS5_ESt8equal_toIS5_ESaIS5_EEEET1_T0_SH_SG_
FNDA:4,_ZSt14__copy_move_a1ILb1EPNSt7__cxx1112basic_stringIcSt11char_traitsIcESaIcEEESt15insert_iteratorISt13unordered_setIS5_St4hashIS5_ESt8equal_toIS5_ESaIS5_EEEET1_T0_SH_SG_
FN:521,_ZSt14__copy_move_a1ILb1EPNSt7__cxx1112basic_stringIcSt11char_traitsIcESaIcEEESt15insert_iteratorISt6vectorIS5_SaIS5_EEEET1_T0_SD_SC_
FNDA:4,_ZSt14__copy_move_a1ILb1EPNSt7__cxx1112basic_stringIcSt11char_traitsIcESaIcEEESt15insert_iteratorISt6vectorIS5_SaIS5_EEEET1_T0_SD_SC_
FN:521,_ZSt14__copy_move_a1ILb0EPKN7testing8internal13edit_distance8EditTypeEPS3_ET1_T0_S8_S7_
FNDA:0,_ZSt14__copy_move_a1ILb0EPKN7testing8internal13edit_distance8EditTypeEPS3_ET1_T0_S8_S7_
FN:521,_ZSt14__copy_move_a1ILb1EPiS0_ET1_T0_S2_S1_
FNDA:0,_ZSt14__copy_move_a1ILb1EPiS0_ET1_T0_S2_S1_
FN:521,_ZSt14__copy_move_a1ILb1EPN7testing8internal13edit_distance8EditTypeES4_ET1_T0_S6_S5_
FNDA:0,_ZSt14__copy_move_a1ILb1EPN7testing8internal13edit_distance8EditTypeES4_ET1_T0_S6_S5_
FN:527,_ZSt13__copy_move_aILb1EPPN7testing8TestInfoEN9__gnu_cxx17__normal_iteratorIS3_St6vectorIS2_SaIS2_EEEEET1_T0_SB_SA_
FNDA:0,_ZSt13__copy_move_aILb1EPPN7testing8TestInfoEN9__gnu_cxx17__normal_iteratorIS3_St6vectorIS2_SaIS2_EEEEET1_T0_SB_SA_
FN:527,_ZSt13__copy_move_aILb1EN9__gnu_cxx17__normal_iteratorIPPN7testing8TestInfoESt6vectorIS4_SaIS4_EEEES5_ET1_T0_SB_SA_
FNDA:2,_ZSt13__copy_move_aILb1EN9__gnu_cxx17__normal_iteratorIPPN7testing8TestInfoESt6vectorIS4_SaIS4_EEEES5_ET1_T0_SB_SA_
FN:527,_ZSt13__copy_move_aILb1EPmS0_ET1_T0_S2_S1_
FNDA:0,_ZSt13__copy_move_aILb1EPmS0_ET1_T0_S2_S1_
FN:527,_ZSt13__copy_move_aILb0EN9__gnu_cxx17__normal_iteratorIPKdSt6vectorIdSaIdEEEEPdET1_T0_SA_S9_
FNDA:0,_ZSt13__copy_move_aILb0EN9__gnu_cxx17__normal_iteratorIPKdSt6vectorIdSaIdEEEEPdET1_T0_SA_S9_
FN:527,_ZSt13__copy_move_aILb0EN9__gnu_cxx17__normal_iteratorIPKN7testing8internal13edit_distance8EditTypeESt6vectorIS5_SaIS5_EEEEPS5_ET1_T0_SE_SD_
FNDA:0,_ZSt13__copy_move_aILb0EN9__gnu_cxx17__normal_iteratorIPKN7testing8internal13edit_distance8EditTypeESt6vectorIS5_SaIS5_EEEEPS5_ET1_T0_SE_SD_
FN:527,_ZSt13__copy_move_aILb1EN9__gnu_cxx17__normal_iteratorIPPN7testing17TestEventListenerESt6vectorIS4_SaIS4_EEEES9_ET1_T0_SB_SA_
FNDA:0,_ZSt13__copy_move_aILb1EN9__gnu_cxx17__normal_iteratorIPPN7testing17TestEventListenerESt6vectorIS4_SaIS4_EEEES9_ET1_T0_SB_SA_
FN:527,_ZSt13__copy_move_aILb1EN9__gnu_cxx17__normal_iteratorIPPN7testing8TestInfoESt6vectorIS4_SaIS4_EEEES9_ET1_T0_SB_SA_
FNDA:0,_ZSt13__copy_move_aILb1EN9__gnu_cxx17__normal_iteratorIPPN7testing8TestInfoESt6vectorIS4_SaIS4_EEEES9_ET1_T0_SB_SA_
FN:527,_ZSt13__copy_move_aILb1EPN7testing8internal13edit_distance8EditTypeES4_ET1_T0_S6_S5_
FNDA:0,_ZSt13__copy_move_aILb1EPN7testing8internal13edit_distance8EditTypeES4_ET1_T0_S6_S5_
FN:527,_ZSt13__copy_move_aILb1EN9__gnu_cxx17__normal_iteratorIPNSt7__cxx1112basic_stringIcSt11char_traitsIcESaIcEEESt6vectorIS7_SaIS7_EEEESt15insert_iteratorISt13unordered_setIS7_St4hashIS7_ESt8equal_toIS7_ESA_EEET1_T0_SM_SL_
FNDA:4,_ZSt13__copy_move_aILb1EN9__gnu_cxx17__normal_iteratorIPNSt7__cxx1112basic_stringIcSt11char_traitsIcESaIcEEESt6vectorIS7_SaIS7_EEEESt15insert_iteratorISt13unordered_setIS7_St4hashIS7_ESt8equal_toIS7_ESA_EEET1_T0_SM_SL_
FN:527,_ZSt13__copy_move_aILb1EPPN7testing8TestInfoES3_ET1_T0_S5_S4_
FNDA:0,_ZSt13__copy_move_aILb1EPPN7testing8TestInfoES3_ET1_T0_S5_S4_
FN:527,_ZSt13__copy_move_aILb1EN9__gnu_cxx17__normal_iteratorIPNSt7__cxx1112basic_stringIcSt11char_traitsIcESaIcEEESt6vectorIS7_SaIS7_EEEESt15insert_iteratorISB_EET1_T0_SG_SF_
FNDA:4,_ZSt13__copy_move_aILb1EN9__gnu_cxx17__normal_iteratorIPNSt7__cxx1112basic_stringIcSt11char_traitsIcESaIcEEESt6vectorIS7_SaIS7_EEEESt15insert_iteratorISB_EET1_T0_SG_SF_
FN:527,_ZSt13__copy_move_aILb1EPPN7testing17TestEventListenerES3_ET1_T0_S5_S4_
FNDA:0,_ZSt13__copy_move_aILb1EPPN7testing17TestEventListenerES3_ET1_T0_S5_S4_
FN:527,_ZSt13__copy_move_aILb1EPPN7testing11EnvironmentES3_ET1_T0_S5_S4_
FNDA:0,_ZSt13__copy_move_aILb1EPPN7testing11EnvironmentES3_ET1_T0_S5_S4_
FN:527,_ZSt13__copy_move_aILb1EPPN7testing9TestSuiteES3_ET1_T0_S5_S4_
FNDA:0,_ZSt13__copy_move_aILb1EPPN7testing9TestSuiteES3_ET1_T0_S5_S4_
FN:527,_ZSt13__copy_move_aILb1EPiS0_ET1_T0_S2_S1_
FNDA:0,_ZSt13__copy_move_aILb1EPiS0_ET1_T0_S2_S1_
FN:611,_ZSt4copyIN9__gnu_cxx17__normal_iteratorIPKdSt6vectorIdSaIdEEEEPdET0_T_SA_S9_
FNDA:0,_ZSt4copyIN9__gnu_cxx17__normal_iteratorIPKdSt6vectorIdSaIdEEEEPdET0_T_SA_S9_
FN:611,_ZSt4copyIN9__gnu_cxx17__normal_iteratorIPKN7testing8internal13edit_distance8EditTypeESt6vectorIS5_SaIS5_EEEEPS5_ET0_T_SE_SD_
FNDA:0,_ZSt4copyIN9__gnu_cxx17__normal_iteratorIPKN7testing8internal13edit_distance8EditTypeESt6vectorIS5_SaIS5_EEEEPS5_ET0_T_SE_SD_
FN:611,_ZSt4copyISt13move_iteratorIPPN7testing17TestEventListenerEES4_ET0_T_S7_S6_
FNDA:0,_ZSt4copyISt13move_iteratorIPPN7testing17TestEventListenerEES4_ET0_T_S7_S6_
FN:611,_ZSt4copyISt13move_iteratorIPPN7testing11EnvironmentEES4_ET0_T_S7_S6_
FNDA:0,_ZSt4copyISt13move_iteratorIPPN7testing11EnvironmentEES4_ET0_T_S7_S6_
FN:611,_ZSt4copyISt13move_iteratorIPPN7testing8TestInfoEES4_ET0_T_S7_S6_
FNDA:0,_ZSt4copyISt13move_iteratorIPPN7testing8TestInfoEES4_ET0_T_S7_S6_
FN:611,_ZSt4copyISt13move_iteratorIPiES1_ET0_T_S4_S3_
FNDA:0,_ZSt4copyISt13move_iteratorIPiES1_ET0_T_S4_S3_
FN:611,_ZSt4copyISt13move_iteratorIPN7testing8internal13edit_distance8EditTypeEES5_ET0_T_S8_S7_
FNDA:0,_ZSt4copyISt13move_iteratorIPN7testing8internal13edit_distance8EditTypeEES5_ET0_T_S8_S7_
FN:611,_ZSt4copyISt13move_iteratorIPPN7testing9TestSuiteEES4_ET0_T_S7_S6_
FNDA:0,_ZSt4copyISt13move_iteratorIPPN7testing9TestSuiteEES4_ET0_T_S7_S6_
FN:611,_ZSt4copyISt13move_iteratorIPmES1_ET0_T_S4_S3_
FNDA:0,_ZSt4copyISt13move_iteratorIPmES1_ET0_T_S4_S3_
FN:644,_ZSt4moveIN9__gnu_cxx17__normal_iteratorIPPN7testing8TestInfoESt6vectorIS4_SaIS4_EEEES5_ET0_T_SB_SA_
FNDA:2,_ZSt4moveIN9__gnu_cxx17__normal_iteratorIPPN7testing8TestInfoESt6vectorIS4_SaIS4_EEEES5_ET0_T_SB_SA_
FN:644,_ZSt4moveIN9__gnu_cxx17__normal_iteratorIPPN7testing17TestEventListenerESt6vectorIS4_SaIS4_EEEES9_ET0_T_SB_SA_
FNDA:0,_ZSt4moveIN9__gnu_cxx17__normal_iteratorIPPN7testing17TestEventListenerESt6vectorIS4_SaIS4_EEEES9_ET0_T_SB_SA_
FN:644,_ZSt4moveIN9__gnu_cxx17__normal_iteratorIPPN7testing8TestInfoESt6vectorIS4_SaIS4_EEEES9_ET0_T_SB_SA_
FNDA:0,_ZSt4moveIN9__gnu_cxx17__normal_iteratorIPPN7testing8TestInfoESt6vectorIS4_SaIS4_EEEES9_ET0_T_SB_SA_
FN:644,_ZSt4moveIN9__gnu_cxx17__normal_iteratorIPNSt7__cxx1112basic_stringIcSt11char_traitsIcESaIcEEESt6vectorIS7_SaIS7_EEEESt15insert_iteratorISt13unordered_setIS7_St4hashIS7_ESt8equal_toIS7_ESA_EEET0_T_SM_SL_
FNDA:4,_ZSt4moveIN9__gnu_cxx17__normal_iteratorIPNSt7__cxx1112basic_stringIcSt11char_traitsIcESaIcEEESt6vectorIS7_SaIS7_EEEESt15insert_iteratorISt13unordered_setIS7_St4hashIS7_ESt8equal_toIS7_ESA_EEET0_T_SM_SL_
FN:644,_ZSt4moveIN9__gnu_cxx17__normal_iteratorIPNSt7__cxx1112basic_stringIcSt11char_traitsIcESaIcEEESt6vectorIS7_SaIS7_EEEESt15insert_iteratorISB_EET0_T_SG_SF_
FNDA:4,_ZSt4moveIN9__gnu_cxx17__normal_iteratorIPNSt7__cxx1112basic_stringIcSt11char_traitsIcESaIcEEESt6vectorIS7_SaIS7_EEEESt15insert_iteratorISB_EET0_T_SG_SF_
FN:644,_ZSt4moveIPPN7testing8TestInfoEN9__gnu_cxx17__normal_iteratorIS3_St6vectorIS2_SaIS2_EEEEET0_T_SB_SA_
FNDA:0,_ZSt4moveIPPN7testing8TestInfoEN9__gnu_cxx17__normal_iteratorIS3_St6vectorIS2_SaIS2_EEEEET0_T_SB_SA_
FN:714,_ZNSt20__copy_move_backwardILb1ELb0ESt26random_access_iterator_tagE13__copy_move_bIPNSt7__cxx1112basic_stringIcSt11char_traitsIcESaIcEEES9_EET0_T_SB_SA_
FNDA:0,_ZNSt20__copy_move_backwardILb1ELb0ESt26random_access_iterator_tagE13__copy_move_bIPNSt7__cxx1112basic_stringIcSt11char_traitsIcESaIcEEES9_EET0_T_SB_SA_
FN:731,_ZNSt20__copy_move_backwardILb1ELb1ESt26random_access_iterator_tagE13__copy_move_bIPN7testing9TestSuiteEEEPT_PKS6_S9_S7_
FNDA:0,_ZNSt20__copy_move_backwardILb1ELb1ESt26random_access_iterator_tagE13__copy_move_bIPN7testing9TestSuiteEEEPT_PKS6_S9_S7_
FN:731,_ZNSt20__copy_move_backwardILb1ELb1ESt26random_access_iterator_tagE13__copy_move_bIPN7testing8TestInfoEEEPT_PKS6_S9_S7_
FNDA:0,_ZNSt20__copy_move_backwardILb1ELb1ESt26random_access_iterator_tagE13__copy_move_bIPN7testing8TestInfoEEEPT_PKS6_S9_S7_
FN:750,_ZSt23__copy_move_backward_a2ILb1EPPN7testing9TestSuiteES3_ET1_T0_S5_S4_
FNDA:0,_ZSt23__copy_move_backward_a2ILb1EPPN7testing9TestSuiteES3_ET1_T0_S5_S4_
FN:750,_ZSt23__copy_move_backward_a2ILb1EPNSt7__cxx1112basic_stringIcSt11char_traitsIcESaIcEEES6_ET1_T0_S8_S7_
FNDA:0,_ZSt23__copy_move_backward_a2ILb1EPNSt7__cxx1112basic_stringIcSt11char_traitsIcESaIcEEES6_ET1_T0_S8_S7_
FN:750,_ZSt23__copy_move_backward_a2ILb1EPPN7testing8TestInfoES3_ET1_T0_S5_S4_
FNDA:0,_ZSt23__copy_move_backward_a2ILb1EPPN7testing8TestInfoES3_ET1_T0_S5_S4_
FN:768,_ZSt23__copy_move_backward_a1ILb1EPPN7testing9TestSuiteES3_ET1_T0_S5_S4_
FNDA:0,_ZSt23__copy_move_backward_a1ILb1EPPN7testing9TestSuiteES3_ET1_T0_S5_S4_
FN:768,_ZSt23__copy_move_backward_a1ILb1EPNSt7__cxx1112basic_stringIcSt11char_traitsIcESaIcEEES6_ET1_T0_S8_S7_
FNDA:0,_ZSt23__copy_move_backward_a1ILb1EPNSt7__cxx1112basic_stringIcSt11char_traitsIcESaIcEEES6_ET1_T0_S8_S7_
FN:768,_ZSt23__copy_move_backward_a1ILb1EPPN7testing8TestInfoES3_ET1_T0_S5_S4_
FNDA:0,_ZSt23__copy_move_backward_a1ILb1EPPN7testing8TestInfoES3_ET1_T0_S5_S4_
FN:796,_ZSt22__copy_move_backward_aILb1EN9__gnu_cxx17__normal_iteratorIPPN7testing8TestInfoESt6vectorIS4_SaIS4_EEEES9_ET1_T0_SB_SA_
FNDA:0,_ZSt22__copy_move_backward_aILb1EN9__gnu_cxx17__normal_iteratorIPPN7testing8TestInfoESt6vectorIS4_SaIS4_EEEES9_ET1_T0_SB_SA_
FN:796,_ZSt22__copy_move_backward_aILb1EPPN7testing8TestInfoEN9__gnu_cxx17__normal_iteratorIS3_St6vectorIS2_SaIS2_EEEEET1_T0_SB_SA_
FNDA:0,_ZSt22__copy_move_backward_aILb1EPPN7testing8TestInfoEN9__gnu_cxx17__normal_iteratorIS3_St6vectorIS2_SaIS2_EEEEET1_T0_SB_SA_
FN:796,_ZSt22__copy_move_backward_aILb1EPPN7testing9TestSuiteES3_ET1_T0_S5_S4_
FNDA:0,_ZSt22__copy_move_backward_aILb1EPPN7testing9TestSuiteES3_ET1_T0_S5_S4_
FN:796,_ZSt22__copy_move_backward_aILb1EPNSt7__cxx1112basic_stringIcSt11char_traitsIcESaIcEEES6_ET1_T0_S8_S7_
FNDA:0,_ZSt22__copy_move_backward_aILb1EPNSt7__cxx1112basic_stringIcSt11char_traitsIcESaIcEEES6_ET1_T0_S8_S7_
FN:884,_ZSt13move_backwardIPPN7testing9TestSuiteES3_ET0_T_S5_S4_
FNDA:0,_ZSt13move_backwardIPPN7testing9TestSuiteES3_ET0_T_S5_S4_
FN:884,_ZSt13move_backwardIPPN7testing8TestInfoEN9__gnu_cxx17__normal_iteratorIS3_St6vectorIS2_SaIS2_EEEEET0_T_SB_SA_
FNDA:0,_ZSt13move_backwardIPPN7testing8TestInfoEN9__gnu_cxx17__normal_iteratorIS3_St6vectorIS2_SaIS2_EEEEET0_T_SB_SA_
FN:884,_ZSt13move_backwardIPNSt7__cxx1112basic_stringIcSt11char_traitsIcESaIcEEES6_ET0_T_S8_S7_
FNDA:0,_ZSt13move_backwardIPNSt7__cxx1112basic_stringIcSt11char_traitsIcESaIcEEES6_ET0_T_S8_S7_
FN:884,_ZSt13move_backwardIN9__gnu_cxx17__normal_iteratorIPPN7testing8TestInfoESt6vectorIS4_SaIS4_EEEES9_ET0_T_SB_SA_
FNDA:0,_ZSt13move_backwardIN9__gnu_cxx17__normal_iteratorIPPN7testing8TestInfoESt6vectorIS4_SaIS4_EEEES9_ET0_T_SB_SA_
FN:908,_ZSt9__fill_a1IPN7testing8internal13edit_distance8EditTypeES3_EN9__gnu_cxx11__enable_ifIXntsrSt11__is_scalarIT0_E7__valueEvE6__typeET_SC_RKS8_
FNDA:0,_ZSt9__fill_a1IPN7testing8internal13edit_distance8EditTypeES3_EN9__gnu_cxx11__enable_ifIXntsrSt11__is_scalarIT0_E7__valueEvE6__typeET_SC_RKS8_
FN:919,_ZSt9__fill_a1IPddEN9__gnu_cxx11__enable_ifIXsrSt11__is_scalarIT0_E7__valueEvE6__typeET_S8_RKS4_
FNDA:0,_ZSt9__fill_a1IPddEN9__gnu_cxx11__enable_ifIXsrSt11__is_scalarIT0_E7__valueEvE6__typeET_S8_RKS4_
FN:968,_ZSt8__fill_aIPN7testing8internal13edit_distance8EditTypeES3_EvT_S5_RKT0_
FNDA:0,_ZSt8__fill_aIPN7testing8internal13edit_distance8EditTypeES3_EvT_S5_RKT0_
FN:968,_ZSt8__fill_aIPddEvT_S1_RKT0_
FNDA:0,_ZSt8__fill_aIPddEvT_S1_RKT0_
FN:1010,_ZSt17__size_to_integerm
FNDA:0,_ZSt17__size_to_integerm
FN:1109,_ZSt10__fill_n_aIPN7testing8internal13edit_distance8EditTypeEmS3_ET_S5_T0_RKT1_St26random_access_iterator_tag
FNDA:0,_ZSt10__fill_n_aIPN7testing8internal13edit_distance8EditTypeEmS3_ET_S5_T0_RKT1_St26random_access_iterator_tag
FN:1109,_ZSt10__fill_n_aIPdmdET_S1_T0_RKT1_St26random_access_iterator_tag
FNDA:0,_ZSt10__fill_n_aIPdmdET_S1_T0_RKT1_St26random_access_iterator_tag
FN:1144,_ZSt6fill_nIPdmdET_S1_T0_RKT1_
FNDA:0,_ZSt6fill_nIPdmdET_S1_T0_RKT1_
FN:1144,_ZSt6fill_nIPN7testing8internal13edit_distance8EditTypeEmS3_ET_S5_T0_RKT1_
FNDA:0,_ZSt6fill_nIPN7testing8internal13edit_distance8EditTypeEmS3_ET_S5_T0_RKT1_
FN:1451,_ZSt13__lower_boundIN9__gnu_cxx17__normal_iteratorIPPN7testing8TestInfoESt6vectorIS4_SaIS4_EEEES4_NS0_5__ops14_Iter_comp_valIZNS2_9TestSuite3RunEvEUlPKS3_SE_E_EEET_SH_SH_RKT0_T1_
FNDA:0,_ZSt13__lower_boundIN9__gnu_cxx17__normal_iteratorIPPN7testing8TestInfoESt6vectorIS4_SaIS4_EEEES4_NS0_5__ops14_Iter_comp_valIZNS2_9TestSuite3RunEvEUlPKS3_SE_E_EEET_SH_SH_RKT0_T1_
FN:2061,_ZSt9__find_ifIN9__gnu_cxx17__normal_iteratorIPKNSt7__cxx1112basic_stringIcSt11char_traitsIcESaIcEEESt6vectorIS7_SaIS7_EEEENS0_5__ops10_Iter_predIZNK7testing8internal12_GLOBAL__N_114UnitTestFilter11MatchesNameERS8_EUlSK_E_EEET_SN_SN_T0_St26random_access_iterator_tag
FNDA:82,_ZSt9__find_ifIN9__gnu_cxx17__normal_iteratorIPKNSt7__cxx1112basic_stringIcSt11char_traitsIcESaIcEEESt6vectorIS7_SaIS7_EEEENS0_5__ops10_Iter_predIZNK7testing8internal12_GLOBAL__N_114UnitTestFilter11MatchesNameERS8_EUlSK_E_EEET_SN_SN_T0_St26random_access_iterator_tag
FN:2061,_ZSt9__find_ifIN9__gnu_cxx17__normal_iteratorIPKcNSt7__cxx1112basic_stringIcSt11char_traitsIcESaIcEEEEENS0_5__ops10_Iter_predIZN7testing8internal12_GLOBAL__N_113IsGlobPatternERKS9_EUlcE_EEET_SK_SK_T0_St26random_access_iterator_tag
FNDA:7,_ZSt9__find_ifIN9__gnu_cxx17__normal_iteratorIPKcNSt7__cxx1112basic_stringIcSt11char_traitsIcESaIcEEEEENS0_5__ops10_Iter_predIZN7testing8internal12_GLOBAL__N_113IsGlobPatternERKS9_EUlcE_EEET_SK_SK_T0_St26random_access_iterator_tag
FN:2061,_ZSt9__find_ifIN9__gnu_cxx17__normal_iteratorIPN7testing12TestPropertyESt6vectorIS3_SaIS3_EEEENS0_5__ops10_Iter_predINS2_8internal17TestPropertyKeyIsEEEET_SE_SE_T0_St26random_access_iterator_tag
FNDA:0,_ZSt9__find_ifIN9__gnu_cxx17__normal_iteratorIPN7testing12TestPropertyESt6vectorIS3_SaIS3_EEEENS0_5__ops10_Iter_predINS2_8internal17TestPropertyKeyIsEEEET_SE_SE_T0_St26random_access_iterator_tag
FN:2061,_ZSt9__find_ifIN9__gnu_cxx17__normal_iteratorIPKNSt7__cxx1112basic_stringIcSt11char_traitsIcESaIcEEESt6vectorIS7_SaIS7_EEEENS0_5__ops16_Iter_equals_valIS8_EEET_SH_SH_T0_St26random_access_iterator_tag
FNDA:0,_ZSt9__find_ifIN9__gnu_cxx17__normal_iteratorIPKNSt7__cxx1112basic_stringIcSt11char_traitsIcESaIcEEESt6vectorIS7_SaIS7_EEEENS0_5__ops16_Iter_equals_valIS8_EEET_SH_SH_T0_St26random_access_iterator_tag
FN:2112,_ZSt9__find_ifIN9__gnu_cxx17__normal_iteratorIPKNSt7__cxx1112basic_stringIcSt11char_traitsIcESaIcEEESt6vectorIS7_SaIS7_EEEENS0_5__ops16_Iter_equals_valIS8_EEET_SH_SH_T0_
FNDA:0,_ZSt9__find_ifIN9__gnu_cxx17__normal_iteratorIPKNSt7__cxx1112basic_stringIcSt11char_traitsIcESaIcEEESt6vectorIS7_SaIS7_EEEENS0_5__ops16_Iter_equals_valIS8_EEET_SH_SH_T0_
FN:2112,_ZSt9__find_ifIN9__gnu_cxx17__normal_iteratorIPN7testing12TestPropertyESt6vectorIS3_SaIS3_EEEENS0_5__ops10_Iter_predINS2_8internal17TestPropertyKeyIsEEEET_SE_SE_T0_
FNDA:0,_ZSt9__find_ifIN9__gnu_cxx17__normal_iteratorIPN7testing12TestPropertyESt6vectorIS3_SaIS3_EEEENS0_5__ops10_Iter_predINS2_8internal17TestPropertyKeyIsEEEET_SE_SE_T0_
FN:2112,_ZSt9__find_ifIN9__gnu_cxx17__normal_iteratorIPKcNSt7__cxx1112basic_stringIcSt11char_traitsIcESaIcEEEEENS0_5__ops10_Iter_predIZN7testing8internal12_GLOBAL__N_113IsGlobPatternERKS9_EUlcE_EEET_SK_SK_T0_
FNDA:7,_ZSt9__find_ifIN9__gnu_cxx17__normal_iteratorIPKcNSt7__cxx1112basic_stringIcSt11char_traitsIcESaIcEEEEENS0_5__ops10_Iter_predIZN7testing8internal12_GLOBAL__N_113IsGlobPatternERKS9_EUlcE_EEET_SK_SK_T0_
FN:2112,_ZSt9__find_ifIN9__gnu_cxx17__normal_iteratorIPKNSt7__cxx1112basic_stringIcSt11char_traitsIcESaIcEEESt6vectorIS7_SaIS7_EEEENS0_5__ops10_Iter_predIZNK7testing8internal12_GLOBAL__N_114UnitTestFilter11MatchesNameERS8_EUlSK_E_EEET_SN_SN_T0_
FNDA:82,_ZSt9__find_ifIN9__gnu_cxx17__normal_iteratorIPKNSt7__cxx1112basic_stringIcSt11char_traitsIcESaIcEEESt6vectorIS7_SaIS7_EEEENS0_5__ops10_Iter_predIZNK7testing8internal12_GLOBAL__N_114UnitTestFilter11MatchesNameERS8_EUlSK_E_EEET_SN_SN_T0_
DA:152,0
DA:182,0
DA:184,0
DA:152,0
DA:182,0
DA:184,0
DA:152,0
DA:182,0
DA:184,0
DA:201,0
DA:211,0
DA:212,0
DA:213,0
DA:230,0
DA:235,0
DA:236,0
DA:237,0
DA:230,0
DA:235,0
DA:236,0
DA:237,0
DA:230,0
DA:235,0
DA:236,0
DA:237,0
DA:254,32
DA:259,32
DA:260,13
DA:261,19
DA:313,0
DA:315,0
DA:313,66
DA:315,66
DA:313,0
DA:315,0
DA:313,0
DA:315,0
DA:313,0
DA:315,0
DA:313,6
DA:315,6
DA:313,56
DA:315,56
DA:313,0
DA:315,0
DA:313,0
DA:315,0
DA:313,0
DA:315,0
DA:313,12
DA:315,12
DA:313,66
DA:315,66
DA:313,4
DA:315,4
DA:313,4
DA:315,4
DA:328,0
DA:329,0
DA:328,0
DA:329,0
DA:335,0
DA:336,0
DA:335,0
DA:336,0
DA:335,0
DA:336,0
DA:335,0
DA:336,0
DA:335,0
DA:336,0
DA:335,0
DA:336,0
DA:335,0
DA:336,0
DA:335,2
DA:336,2
DA:335,0
DA:336,0
DA:335,4
DA:336,4
DA:335,4
DA:336,4
DA:400,4
DA:403,4
DA:405,0
DA:406,0
DA:407,0
DA:409,4
DA:400,4
DA:403,11
DA:405,7
DA:406,7
DA:407,7
DA:409,4
DA:420,0
DA:429,0
DA:430,0
DA:431,0
DA:432,0
DA:420,0
DA:429,0
DA:430,0
DA:431,0
DA:432,0
DA:420,0
DA:429,0
DA:430,0
DA:431,0
DA:432,0
DA:420,0
DA:429,0
DA:430,0
DA:431,0
DA:432,0
DA:420,0
DA:429,0
DA:430,0
DA:431,0
DA:432,0
DA:420,0
DA:429,0
DA:430,0
DA:431,0
DA:432,0
DA:420,0
DA:429,0
DA:430,0
DA:431,0
DA:432,0
DA:420,2
DA:429,2
DA:430,2
DA:431,2
DA:432,2
DA:420,0
DA:429,0
DA:430,0
DA:431,0
DA:432,0
DA:486,0
DA:495,0
DA:486,0
DA:495,0
DA:486,0
DA:495,0
DA:486,0
DA:495,0
DA:486,0
DA:495,0
DA:486,0
DA:495,0
DA:486,0
DA:495,0
DA:486,2
DA:495,2
DA:486,0
DA:495,0
DA:486,4
DA:495,4
DA:486,4
DA:495,4
DA:521,0
DA:522,0
DA:521,0
DA:522,0
DA:521,0
DA:522,0
DA:521,0
DA:522,0
DA:521,0
DA:522,0
DA:521,0
DA:522,0
DA:521,0
DA:522,0
DA:521,2
DA:522,2
DA:521,0
DA:522,0
DA:521,4
DA:522,4
DA:521,4
DA:522,4
DA:527,0
DA:529,0
DA:532,0
DA:527,0
DA:529,0
DA:532,0
DA:527,0
DA:529,0
DA:532,0
DA:527,0
DA:529,0
DA:532,0
DA:527,0
DA:529,0
DA:532,0
DA:527,0
DA:529,0
DA:532,0
DA:527,0
DA:529,0
DA:532,0
DA:527,0
DA:529,0
DA:532,0
DA:527,0
DA:529,0
DA:532,0
DA:527,0
DA:529,0
DA:532,0
DA:527,0
DA:529,0
DA:532,0
DA:527,2
DA:529,2
DA:532,2
DA:527,0
DA:529,0
DA:532,0
DA:527,4
DA:529,4
DA:532,4
DA:527,4
DA:529,4
DA:532,4
DA:611,0
DA:620,0
DA:611,0
DA:620,0
DA:611,0
DA:620,0
DA:611,0
DA:620,0
DA:611,0
DA:620,0
DA:611,0
DA:620,0
DA:611,0
DA:620,0
DA:611,0
DA:620,0
DA:611,0
DA:620,0
DA:644,0
DA:652,0
DA:653,0
DA:644,0
DA:652,0
DA:653,0
DA:644,2
DA:652,2
DA:653,2
DA:644,0
DA:652,0
DA:653,0
DA:644,4
DA:652,4
DA:653,4
DA:644,4
DA:652,4
DA:653,4
DA:714,0
DA:717,0
DA:718,0
DA:719,0
DA:720,0
DA:731,0
DA:740,0
DA:741,0
DA:742,0
DA:743,0
DA:731,0
DA:740,0
DA:741,0
DA:742,0
DA:743,0
DA:750,0
DA:760,0
DA:762,0
DA:750,0
DA:760,0
DA:762,0
DA:750,0
DA:760,0
DA:762,0
DA:768,0
DA:769,0
DA:768,0
DA:769,0
DA:768,0
DA:769,0
DA:796,0
DA:798,0
DA:801,0
DA:796,0
DA:798,0
DA:801,0
DA:796,0
DA:798,0
DA:801,0
DA:796,0
DA:798,0
DA:801,0
DA:884,0
DA:894,0
DA:896,0
DA:884,0
DA:894,0
DA:896,0
DA:884,0
DA:894,0
DA:896,0
DA:884,0
DA:894,0
DA:896,0
DA:908,0
DA:911,0
DA:912,0
DA:913,0
DA:919,0
DA:922,0
DA:923,0
DA:924,0
DA:925,0
DA:968,0
DA:969,0
DA:968,0
DA:969,0
DA:1010,0
DA:1109,0
DA:1115,0
DA:1116,0
DA:1120,0
DA:1121,0
DA:1109,0
DA:1115,0
DA:1116,0
DA:1120,0
DA:1121,0
DA:1144,0
DA:1149,0
DA:1150,0
DA:1144,0
DA:1149,0
DA:1150,0
DA:1451,0
DA:1457,0
DA:1459,0
DA:1461,0
DA:1462,0
DA:1463,0
DA:1464,0
DA:1466,0
DA:1467,0
DA:1468,0
DA:1471,0
DA:1473,0
DA:2061,82
DA:2065,82
DA:2067,82
DA:2069,0
DA:2070,0
DA:2071,0
DA:2073,0
DA:2074,0
DA:2075,0
DA:2077,0
DA:2078,0
DA:2079,0
DA:2081,0
DA:2082,0
DA:2083,0
DA:2086,82
DA:2088,0
DA:2089,0
DA:2090,0
DA:2091,0
DA:2093,42
DA:2094,42
DA:2095,0
DA:2096,42
DA:2098,62
DA:2099,62
DA:2100,20
DA:2101,42
DA:2103,62
DA:2105,62
DA:2061,7
DA:2065,7
DA:2067,9
DA:2069,7
DA:2070,5
DA:2071,2
DA:2073,2
DA:2074,0
DA:2075,2
DA:2077,2
DA:2078,0
DA:2079,2
DA:2081,2
DA:2082,0
DA:2083,2
DA:2086,2
DA:2088,0
DA:2089,0
DA:2090,0
DA:2091,0
DA:2093,1
DA:2094,1
DA:2095,0
DA:2096,1
DA:2098,2
DA:2099,2
DA:2100,2
DA:2101,0
DA:2103,0
DA:2105,0
DA:2061,0
DA:2065,0
DA:2067,0
DA:2069,0
DA:2070,0
DA:2071,0
DA:2073,0
DA:2074,0
DA:2075,0
DA:2077,0
DA:2078,0
DA:2079,0
DA:2081,0
DA:2082,0
DA:2083,0
DA:2086,0
DA:2088,0
DA:2089,0
DA:2090,0
DA:2091,0
DA:2093,0
DA:2094,0
DA:2095,0
DA:2096,0
DA:2098,0
DA:2099,0
DA:2100,0
DA:2101,0
DA:2103,0
DA:2105,0
DA:2061,0
DA:2065,0
DA:2067,0
DA:2069,0
DA:2070,0
DA:2071,0
DA:2073,0
DA:2074,0
DA:2075,0
DA:2077,0
DA:2078,0
DA:2079,0
DA:2081,0
DA:2082,0
DA:2083,0
DA:2086,0
DA:2088,0
DA:2089,0
DA:2090,0
DA:2091,0
DA:2093,0
DA:2094,0
DA:2095,0
DA:2096,0
DA:2098,0
DA:2099,0
DA:2100,0
DA:2101,0
DA:2103,0
DA:2105,0
DA:2112,82
DA:2114,82
DA:2115,164
DA:2112,7
DA:2114,7
DA:2115,14
DA:2112,0
DA:2114,0
DA:2115,0
DA:2112,0
DA:2114,0
DA:2115,0
end_of_record
SF:/home/jlaustill/repo/sea-dash/.pio/libdeps/latest_stable/googletest/googletest/src/gtest-internal-inl.h
FN:114,_ZN7testing8internal21GetRandomSeedFromFlagEi
FNDA:1,_ZN7testing8internal21GetRandomSeedFromFlagEi
FN:131,_ZN7testing8internal17GetNextRandomSeedEi
FNDA:0,_ZN7testing8internal17GetNextRandomSeedEi
FN:144,_ZN7testing8internal14GTestFlagSaverC2Ev
FNDA:20,_ZN7testing8internal14GTestFlagSaverC2Ev
FN:170,_ZN7testing8internal14GTestFlagSaverD2Ev
FNDA:20,_ZN7testing8internal14GTestFlagSaverD2Ev
FN:276,_ZN7testing8internal7CountIfISt6vectorIPNS_9TestSuiteESaIS4_EEPFbPKS3_EEEiRKT_T0_
FNDA:4,_ZN7testing8internal7CountIfISt6vectorIPNS_9TestSuiteESaIS4_EEPFbPKS3_EEEiRKT_T0_
FN:276,_ZN7testing8internal7CountIfISt6vectorINS_14TestPartResultESaIS3_EEPFbRKS3_EEEiRKT_T0_
FNDA:144,_ZN7testing8internal7CountIfISt6vectorINS_14TestPartResultESaIS3_EEPFbRKS3_EEEiRKT_T0_
FN:276,_ZN7testing8internal7CountIfISt6vectorIPNS_8TestInfoESaIS4_EEPFbPKS3_EEEiRKT_T0_
FNDA:18,_ZN7testing8internal7CountIfISt6vectorIPNS_8TestInfoESaIS4_EEPFbPKS3_EEEiRKT_T0_
FN:288,_ZN7testing8internal7ForEachISt6vectorIPNS_11EnvironmentESaIS4_EEPFvS4_EEEvRKT_T0_
FNDA:3,_ZN7testing8internal7ForEachISt6vectorIPNS_11EnvironmentESaIS4_EEPFvS4_EEEvRKT_T0_
FN:288,_ZN7testing8internal7ForEachISt6vectorIPNS_9TestSuiteESaIS4_EEPFvS4_EEEvRKT_T0_
FNDA:2,_ZN7testing8internal7ForEachISt6vectorIPNS_9TestSuiteESaIS4_EEPFvS4_EEEvRKT_T0_
FN:288,_ZN7testing8internal7ForEachISt6vectorIPNS_8TestInfoESaIS4_EEPFvS4_EEEvRKT_T0_
FNDA:4,_ZN7testing8internal7ForEachISt6vectorIPNS_8TestInfoESaIS4_EEPFvS4_EEEvRKT_T0_
FN:288,_ZN7testing8internal7ForEachISt6vectorIPNS_17TestEventListenerESaIS4_EEPFvS4_EEEvRKT_T0_
FNDA:1,_ZN7testing8internal7ForEachISt6vectorIPNS_17TestEventListenerESaIS4_EEPFvS4_EEEvRKT_T0_
FN:295,_ZN7testing8internal12GetElementOrIiEET_RKSt6vectorIS2_SaIS2_EEiS2_
FNDA:22,_ZN7testing8internal12GetElementOrIiEET_RKSt6vectorIS2_SaIS2_EEiS2_
FN:305,_ZN7testing8internal12ShuffleRangeIiEEvPNS0_6RandomEiiPSt6vectorIT_SaIS5_EE
FNDA:0,_ZN7testing8internal12ShuffleRangeIiEEvPNS0_6RandomEiiPSt6vectorIT_SaIS5_EE
FN:329,_ZN7testing8internal7ShuffleIiEEvPNS0_6RandomEPSt6vectorIT_SaIS5_EE
FNDA:0,_ZN7testing8internal7ShuffleIiEEvPNS0_6RandomEPSt6vectorIT_SaIS5_EE
FN:336,_ZN7testing8internalL6DeleteINS_17TestEventListenerEEEvPT_
FNDA:1,_ZN7testing8internalL6DeleteINS_17TestEventListenerEEEvPT_
FN:336,_ZN7testing8internalL6DeleteINS_8TestInfoEEEvPT_
FNDA:20,_ZN7testing8internalL6DeleteINS_8TestInfoEEEvPT_
FN:336,_ZN7testing8internalL6DeleteINS_11EnvironmentEEEvPT_
FNDA:0,_ZN7testing8internalL6DeleteINS_11EnvironmentEEEvPT_
FN:336,_ZN7testing8internalL6DeleteINS_9TestSuiteEEEvPT_
FNDA:2,_ZN7testing8internalL6DeleteINS_9TestSuiteEEEvPT_
FN:348,_ZN7testing8internal17TestPropertyKeyIsC2ERKNSt7__cxx1112basic_stringIcSt11char_traitsIcESaIcEEE
FNDA:0,_ZN7testing8internal17TestPropertyKeyIsC2ERKNSt7__cxx1112basic_stringIcSt11char_traitsIcESaIcEEE
FN:351,_ZNK7testing8internal17TestPropertyKeyIsclERKNS_12TestPropertyE
FNDA:0,_ZNK7testing8internal17TestPropertyKeyIsclERKNS_12TestPropertyE
FN:411,_ZN7testing8internal27OsStackTraceGetterInterfaceC2Ev
FNDA:1,_ZN7testing8internal27OsStackTraceGetterInterfaceC2Ev
FN:412,_ZN7testing8internal27OsStackTraceGetterInterfaceD0Ev
FNDA:0,_ZN7testing8internal27OsStackTraceGetterInterfaceD0Ev
FN:412,_ZN7testing8internal27OsStackTraceGetterInterfaceD2Ev
FNDA:1,_ZN7testing8internal27OsStackTraceGetterInterfaceD2Ev
FN:440,_ZN7testing8internal18OsStackTraceGetterC2Ev
FNDA:1,_ZN7testing8internal18OsStackTraceGetterC2Ev
FN:574,_ZNK7testing8internal12UnitTestImpl15start_timestampEv
FNDA:0,_ZNK7testing8internal12UnitTestImpl15start_timestampEv
FN:577,_ZNK7testing8internal12UnitTestImpl12elapsed_timeEv
FNDA:1,_ZNK7testing8internal12UnitTestImpl12elapsed_timeEv
FN:581,_ZNK7testing8internal12UnitTestImpl6PassedEv
FNDA:2,_ZNK7testing8internal12UnitTestImpl6PassedEv
FN:585,_ZNK7testing8internal12UnitTestImpl6FailedEv
FNDA:2,_ZNK7testing8internal12UnitTestImpl6FailedEv
FN:591,_ZNK7testing8internal12UnitTestImpl12GetTestSuiteEi
FNDA:0,_ZNK7testing8internal12UnitTestImpl12GetTestSuiteEi
FN:598,_ZNK7testing8internal12UnitTestImpl11GetTestCaseEi
FNDA:0,_ZNK7testing8internal12UnitTestImpl11GetTestCaseEi
FN:603,_ZN7testing8internal12UnitTestImpl19GetMutableSuiteCaseEi
FNDA:2,_ZN7testing8internal12UnitTestImpl19GetMutableSuiteCaseEi
FN:609,_ZN7testing8internal12UnitTestImpl9listenersEv
FNDA:24,_ZN7testing8internal12UnitTestImpl9listenersEv
FN:616,_ZNK7testing8internal12UnitTestImpl18ad_hoc_test_resultEv
FNDA:2,_ZNK7testing8internal12UnitTestImpl18ad_hoc_test_resultEv
FN:675,_ZN7testing8internal12UnitTestImpl11AddTestInfoEPFvvES3_PNS_8TestInfoE
FNDA:20,_ZN7testing8internal12UnitTestImpl11AddTestInfoEPFvvES3_PNS_8TestInfoE
FN:700,_ZN7testing8internal12UnitTestImpl27parameterized_test_registryEv
FNDA:0,_ZN7testing8internal12UnitTestImpl27parameterized_test_registryEv
FN:704,_ZN7testing8internal12UnitTestImpl33ignored_parameterized_test_suitesB5cxx11Ev
FNDA:1,_ZN7testing8internal12UnitTestImpl33ignored_parameterized_test_suitesB5cxx11Ev
FN:711,_ZN7testing8internal12UnitTestImpl32type_parameterized_test_registryEv
FNDA:0,_ZN7testing8internal12UnitTestImpl32type_parameterized_test_registryEv
FN:730,_ZN7testing8internal12UnitTestImpl23ClearNonAdHocTestResultEv
FNDA:1,_ZN7testing8internal12UnitTestImpl23ClearNonAdHocTestResultEv
FN:756,_ZNK7testing8internal12UnitTestImpl18current_test_suiteEv
FNDA:20,_ZNK7testing8internal12UnitTestImpl18current_test_suiteEv
FN:757,_ZN7testing8internal12UnitTestImpl17current_test_infoEv
FNDA:20,_ZN7testing8internal12UnitTestImpl17current_test_infoEv
FN:762,_ZN7testing8internal12UnitTestImpl12environmentsEv
FNDA:0,_ZN7testing8internal12UnitTestImpl12environmentsEv
FN:765,_ZN7testing8internal12UnitTestImpl17gtest_trace_stackEv
FNDA:0,_ZN7testing8internal12UnitTestImpl17gtest_trace_stackEv
FN:773,_ZN7testing8internal12UnitTestImpl34InitDeathTestSubprocessControlInfoEv
FNDA:1,_ZN7testing8internal12UnitTestImpl34InitDeathTestSubprocessControlInfoEv
FN:812,_ZNK7testing8internal12UnitTestImpl11random_seedEv
FNDA:0,_ZNK7testing8internal12UnitTestImpl11random_seedEv
FN:815,_ZN7testing8internal12UnitTestImpl6randomEv
FNDA:0,_ZN7testing8internal12UnitTestImpl6randomEv
FN:826,_ZNK7testing8internal12UnitTestImpl16catch_exceptionsEv
FNDA:105,_ZNK7testing8internal12UnitTestImpl16catch_exceptionsEv
FN:839,_ZN7testing8internal12UnitTestImpl20set_catch_exceptionsEb
FNDA:1,_ZN7testing8internal12UnitTestImpl20set_catch_exceptionsEb
FN:842,_ZN7testing8internal12UnitTestImpl22set_current_test_suiteEPNS_9TestSuiteE
FNDA:4,_ZN7testing8internal12UnitTestImpl22set_current_test_suiteEPNS_9TestSuiteE
FN:849,_ZN7testing8internal12UnitTestImpl21set_current_test_infoEPNS_8TestInfoE
FNDA:40,_ZN7testing8internal12UnitTestImpl21set_current_test_infoEPNS_8TestInfoE
FN:978,_ZN7testing8internal15GetUnitTestImplEv
FNDA:248,_ZN7testing8internal15GetUnitTestImplEv
FN:1079,_ZN7testing8internal17StreamingListener20AbstractSocketWriterD0Ev
FNDA:0,_ZN7testing8internal17StreamingListener20AbstractSocketWriterD0Ev
FN:1079,_ZN7testing8internal17StreamingListener20AbstractSocketWriterD2Ev
FNDA:0,_ZN7testing8internal17StreamingListener20AbstractSocketWriterD2Ev
FN:1085,_ZN7testing8internal17StreamingListener20AbstractSocketWriter15CloseConnectionEv
FNDA:0,_ZN7testing8internal17StreamingListener20AbstractSocketWriter15CloseConnectionEv
FN:1088,_ZN7testing8internal17StreamingListener20AbstractSocketWriter6SendLnERKNSt7__cxx1112basic_stringIcSt11char_traitsIcESaIcEEE
FNDA:0,_ZN7testing8internal17StreamingListener20AbstractSocketWriter6SendLnERKNSt7__cxx1112basic_stringIcSt11char_traitsIcESaIcEEE
FN:1094,_ZN7testing8internal17StreamingListener12SocketWriterC2ERKNSt7__cxx1112basic_stringIcSt11char_traitsIcESaIcEEESA_
FNDA:0,_ZN7testing8internal17StreamingListener12SocketWriterC2ERKNSt7__cxx1112basic_stringIcSt11char_traitsIcESaIcEEESA_
FN:1099,_ZN7testing8internal17StreamingListener12SocketWriterD0Ev
FNDA:0,_ZN7testing8internal17StreamingListener12SocketWriterD0Ev
FN:1099,_ZN7testing8internal17StreamingListener12SocketWriterD2Ev
FNDA:0,_ZN7testing8internal17StreamingListener12SocketWriterD2Ev
FN:1104,_ZN7testing8internal17StreamingListener12SocketWriter4SendERKNSt7__cxx1112basic_stringIcSt11char_traitsIcESaIcEEE
FNDA:0,_ZN7testing8internal17StreamingListener12SocketWriter4SendERKNSt7__cxx1112basic_stringIcSt11char_traitsIcESaIcEEE
